

Microchip MPLAB XC8 Assembler V2.35 build 20211206165544 
                                                                                               Fri Jun 03 12:20:13 2022

Microchip MPLAB XC8 C Compiler v2.35 (Free license) build 20211206165544 Og1 
     1                           	processor	16F887
     2                           	pagewidth 120
     3                           	opt	flic
     4                           	psect	idataBANK1,global,class=CODE,delta=2,noexec
     5                           	psect	cinit,global,class=CODE,merge=1,delta=2
     6                           	psect	bssBANK1,global,class=BANK1,space=1,delta=1,noexec
     7                           	psect	dataBANK1,global,class=BANK1,space=1,delta=1,noexec
     8                           	psect	inittext,global,class=CODE,delta=2
     9                           	psect	cstackBANK1,global,class=BANK1,space=1,delta=1,noexec
    10                           	psect	cstackCOMMON,global,class=COMMON,space=1,delta=1,noexec
    11                           	psect	cstackBANK0,global,class=BANK0,space=1,delta=1,noexec
    12                           	psect	maintext,global,class=CODE,split=1,delta=2
    13                           	psect	text1,local,class=CODE,merge=1,delta=2
    14                           	psect	text2,local,class=CODE,merge=1,delta=2
    15                           	psect	intentry,global,class=CODE,delta=2
    16                           	psect	text3,local,class=CODE,merge=1,delta=2
    17                           	psect	text4,local,class=CODE,merge=1,delta=2,group=1
    18                           	psect	text5,local,class=CODE,merge=1,delta=2,group=1
    19                           	psect	text6,local,class=CODE,merge=1,delta=2,group=1
    20                           	psect	text7,local,class=CODE,merge=1,delta=2,group=1
    21                           	psect	text8,local,class=CODE,merge=1,delta=2,group=1
    22                           	psect	text9,local,class=CODE,merge=1,delta=2,group=1
    23                           	psect	text10,local,class=CODE,merge=1,delta=2
    24                           	psect	text11,local,class=CODE,merge=1,delta=2
    25                           	psect	text12,local,class=CODE,merge=1,delta=2
    26                           	psect	text13,local,class=CODE,merge=1,delta=2
    27                           	psect	idloc,global,abs,ovrld,class=IDLOC,space=5,delta=2,noexec
    28                           	psect	config,global,abs,ovrld,class=CONFIG,space=4,delta=2,noexec
    29                           	dabs	1,0x7E,2
    30  0000                     
    31                           ; Version 2.40
    32                           ; Generated 17/11/2021 GMT
    33                           ; 
    34                           ; Copyright © 2021, Microchip Technology Inc. and its subsidiaries ("Microchip")
    35                           ; All rights reserved.
    36                           ; 
    37                           ; This software is developed by Microchip Technology Inc. and its subsidiaries ("Microch
      +                          ip").
    38                           ; 
    39                           ; Redistribution and use in source and binary forms, with or without modification, are
    40                           ; permitted provided that the following conditions are met:
    41                           ; 
    42                           ;     1. Redistributions of source code must retain the above copyright notice, this lis
      +                          t of
    43                           ;        conditions and the following disclaimer.
    44                           ; 
    45                           ;     2. Redistributions in binary form must reproduce the above copyright notice, this 
      +                          list
    46                           ;        of conditions and the following disclaimer in the documentation and/or other
    47                           ;        materials provided with the distribution. Publication is not required when
    48                           ;        this file is used in an embedded application.
    49                           ; 
    50                           ;     3. Microchip's name may not be used to endorse or promote products derived from th
      +                          is
    51                           ;        software without specific prior written permission.
    52                           ; 
    53                           ; THIS SOFTWARE IS PROVIDED BY MICROCHIP "AS IS" AND ANY EXPRESS OR IMPLIED WARRANTIES,
    54                           ; INCLUDING, BUT NOT LIMITED TO, THE IMPLIED WARRANTIES OF MERCHANTABILITY AND FITNESS F
      +                          OR
    55                           ; PURPOSE ARE DISCLAIMED.  IN NO EVENT SHALL MICROCHIP BE LIABLE FOR ANY DIRECT, INDIREC
      +                          T,
    56                           ; INCIDENTAL, SPECIAL, EXEMPLARY, OR CONSEQUENTIAL DAMAGES (INCLUDING BUT NOT LIMITED TO
    57                           ; PROCUREMENT OF SUBSTITUTE GOODS OR SERVICES; LOSS OF USE, DATA OR PROFITS; OR BUSINESS
    58                           ; INTERRUPTION) HOWSOEVER CAUSED AND ON ANY THEORY OF LIABILITY, WHETHER IN CONTRACT, ST
      +                          RICT
    59                           ; LIABILITY, OR TORT (INCLUDING NEGLIGENCE OR OTHERWISE) ARISING IN ANY WAY OUT OF THE U
      +                          SE OF
    60                           ; THIS SOFTWARE, EVEN IF ADVISED OF THE POSSIBILITY OF SUCH DAMAGE.
    61                           ; 
    62                           ; 
    63                           ; Code-generator required, PIC16F887 Definitions
    64                           ; 
    65                           ; SFR Addresses
    66  0000                     	;# 
    67  0001                     	;# 
    68  0002                     	;# 
    69  0003                     	;# 
    70  0004                     	;# 
    71  0005                     	;# 
    72  0006                     	;# 
    73  0007                     	;# 
    74  0008                     	;# 
    75  0009                     	;# 
    76  000A                     	;# 
    77  000B                     	;# 
    78  000C                     	;# 
    79  000D                     	;# 
    80  000E                     	;# 
    81  000E                     	;# 
    82  000F                     	;# 
    83  0010                     	;# 
    84  0011                     	;# 
    85  0012                     	;# 
    86  0013                     	;# 
    87  0014                     	;# 
    88  0015                     	;# 
    89  0015                     	;# 
    90  0016                     	;# 
    91  0017                     	;# 
    92  0018                     	;# 
    93  0019                     	;# 
    94  001A                     	;# 
    95  001B                     	;# 
    96  001B                     	;# 
    97  001C                     	;# 
    98  001D                     	;# 
    99  001E                     	;# 
   100  001F                     	;# 
   101  0081                     	;# 
   102  0085                     	;# 
   103  0086                     	;# 
   104  0087                     	;# 
   105  0088                     	;# 
   106  0089                     	;# 
   107  008C                     	;# 
   108  008D                     	;# 
   109  008E                     	;# 
   110  008F                     	;# 
   111  0090                     	;# 
   112  0091                     	;# 
   113  0092                     	;# 
   114  0093                     	;# 
   115  0093                     	;# 
   116  0093                     	;# 
   117  0094                     	;# 
   118  0095                     	;# 
   119  0096                     	;# 
   120  0097                     	;# 
   121  0098                     	;# 
   122  0099                     	;# 
   123  009A                     	;# 
   124  009B                     	;# 
   125  009C                     	;# 
   126  009D                     	;# 
   127  009E                     	;# 
   128  009F                     	;# 
   129  0105                     	;# 
   130  0107                     	;# 
   131  0108                     	;# 
   132  0109                     	;# 
   133  010C                     	;# 
   134  010C                     	;# 
   135  010D                     	;# 
   136  010E                     	;# 
   137  010F                     	;# 
   138  0185                     	;# 
   139  0187                     	;# 
   140  0188                     	;# 
   141  0189                     	;# 
   142  018C                     	;# 
   143  018D                     	;# 
   144  0000                     	;# 
   145  0001                     	;# 
   146  0002                     	;# 
   147  0003                     	;# 
   148  0004                     	;# 
   149  0005                     	;# 
   150  0006                     	;# 
   151  0007                     	;# 
   152  0008                     	;# 
   153  0009                     	;# 
   154  000A                     	;# 
   155  000B                     	;# 
   156  000C                     	;# 
   157  000D                     	;# 
   158  000E                     	;# 
   159  000E                     	;# 
   160  000F                     	;# 
   161  0010                     	;# 
   162  0011                     	;# 
   163  0012                     	;# 
   164  0013                     	;# 
   165  0014                     	;# 
   166  0015                     	;# 
   167  0015                     	;# 
   168  0016                     	;# 
   169  0017                     	;# 
   170  0018                     	;# 
   171  0019                     	;# 
   172  001A                     	;# 
   173  001B                     	;# 
   174  001B                     	;# 
   175  001C                     	;# 
   176  001D                     	;# 
   177  001E                     	;# 
   178  001F                     	;# 
   179  0081                     	;# 
   180  0085                     	;# 
   181  0086                     	;# 
   182  0087                     	;# 
   183  0088                     	;# 
   184  0089                     	;# 
   185  008C                     	;# 
   186  008D                     	;# 
   187  008E                     	;# 
   188  008F                     	;# 
   189  0090                     	;# 
   190  0091                     	;# 
   191  0092                     	;# 
   192  0093                     	;# 
   193  0093                     	;# 
   194  0093                     	;# 
   195  0094                     	;# 
   196  0095                     	;# 
   197  0096                     	;# 
   198  0097                     	;# 
   199  0098                     	;# 
   200  0099                     	;# 
   201  009A                     	;# 
   202  009B                     	;# 
   203  009C                     	;# 
   204  009D                     	;# 
   205  009E                     	;# 
   206  009F                     	;# 
   207  0105                     	;# 
   208  0107                     	;# 
   209  0108                     	;# 
   210  0109                     	;# 
   211  010C                     	;# 
   212  010C                     	;# 
   213  010D                     	;# 
   214  010E                     	;# 
   215  010F                     	;# 
   216  0185                     	;# 
   217  0187                     	;# 
   218  0188                     	;# 
   219  0189                     	;# 
   220  018C                     	;# 
   221  018D                     	;# 
   222                           
   223                           	psect	idataBANK1
   224  082C                     __pidataBANK1:
   225                           
   226                           ;initializer for _estado
   227  082C  3402               	retlw	2
   228                           
   229                           ;initializer for _F
   230  082D  3401               	retlw	1
   231                           
   232                           ;initializer for _E
   233  082E  3401               	retlw	1
   234                           
   235                           ;initializer for _D
   236  082F  3401               	retlw	1
   237                           
   238                           ;initializer for _C
   239  0830  3401               	retlw	1
   240                           
   241                           ;initializer for _B
   242  0831  3401               	retlw	1
   243                           
   244                           ;initializer for _A
   245  0832  3401               	retlw	1
   246  0012                     _T2CONbits	set	18
   247  001D                     _CCP2CON	set	29
   248  0017                     _CCP1CON	set	23
   249  0014                     _SSPCONbits	set	20
   250  0007                     _PORTC	set	7
   251  0008                     _PORTD	set	8
   252  0006                     _PORTB	set	6
   253  0005                     _PORTA	set	5
   254  0005                     _PORTAbits	set	5
   255  001E                     _ADRESH	set	30
   256  001F                     _ADCON0bits	set	31
   257  000C                     _PIR1bits	set	12
   258  0013                     _SSPBUF	set	19
   259  0008                     _PORTDbits	set	8
   260  001D                     _CCP2CONbits	set	29
   261  001B                     _CCPR2L	set	27
   262  0017                     _CCP1CONbits	set	23
   263  0015                     _CCPR1L	set	21
   264  0009                     _PORTE	set	9
   265  0006                     _PORTBbits	set	6
   266  000B                     _INTCONbits	set	11
   267  0092                     _PR2	set	146
   268  0087                     _TRISCbits	set	135
   269  009F                     _ADCON1bits	set	159
   270  008F                     _OSCCONbits	set	143
   271  0095                     _WPUBbits	set	149
   272  0081                     _OPTION_REGbits	set	129
   273  0086                     _TRISBbits	set	134
   274  0096                     _IOCBbits	set	150
   275  008C                     _PIE1bits	set	140
   276  0087                     _TRISC	set	135
   277  0089                     _TRISE	set	137
   278  0088                     _TRISD	set	136
   279  0086                     _TRISB	set	134
   280  0085                     _TRISA	set	133
   281  0094                     _SSPSTATbits	set	148
   282  010C                     _EEDAT	set	268
   283  010D                     _EEADR	set	269
   284  018D                     _EECON2	set	397
   285  018C                     _EECON1bits	set	396
   286  0189                     _ANSELH	set	393
   287  0188                     _ANSEL	set	392
   288                           
   289                           	psect	cinit
   290  0013                     start_initialization:	
   291                           ; #config settings
   292                           
   293  0013                     __initialization:
   294                           
   295                           ; Initialize objects allocated to BANK1
   296  0013  1383               	bcf	3,7	;select IRP bank0
   297  0014  30C2               	movlw	low (__pdataBANK1+7)
   298  0015  00FD               	movwf	btemp+-1
   299  0016  3008               	movlw	high __pidataBANK1
   300  0017  00FE               	movwf	btemp
   301  0018  302C               	movlw	low __pidataBANK1
   302  0019  00FF               	movwf	btemp+1
   303  001A  30BB               	movlw	low __pdataBANK1
   304  001B  0084               	movwf	4
   305  001C  120A  158A  2044  120A  118A  	fcall	init_ram0
   306                           
   307                           ; Clear objects allocated to BANK1
   308  0021  1683               	bsf	3,5	;RP0=1, select bank1
   309  0022  1303               	bcf	3,6	;RP1=0, select bank1
   310  0023  01B3               	clrf	__pbssBANK1& (0+127)
   311  0024  01B4               	clrf	(__pbssBANK1+1)& (0+127)
   312  0025  01B5               	clrf	(__pbssBANK1+2)& (0+127)
   313  0026  01B6               	clrf	(__pbssBANK1+3)& (0+127)
   314  0027  01B7               	clrf	(__pbssBANK1+4)& (0+127)
   315  0028  01B8               	clrf	(__pbssBANK1+5)& (0+127)
   316  0029  01B9               	clrf	(__pbssBANK1+6)& (0+127)
   317  002A  01BA               	clrf	(__pbssBANK1+7)& (0+127)
   318  002B                     end_of_initialization:	
   319                           ;End of C runtime variable initialization code
   320                           
   321  002B                     __end_of__initialization:
   322  002B  0183               	clrf	3
   323  002C  120A  158A  2AD9   	ljmp	_main	;jump to C main() function
   324                           
   325                           	psect	bssBANK1
   326  00B3                     __pbssBANK1:
   327  00B3                     _CCPRx:
   328  00B3                     	ds	2
   329  00B5                     _CCPR:
   330  00B5                     	ds	2
   331  00B7                     _pot4_in:
   332  00B7                     	ds	1
   333  00B8                     _pot3_in:
   334  00B8                     	ds	1
   335  00B9                     _pot2_in:
   336  00B9                     	ds	1
   337  00BA                     _pot1_in:
   338  00BA                     	ds	1
   339                           
   340                           	psect	dataBANK1
   341  00BB                     __pdataBANK1:
   342  00BB                     _estado:
   343  00BB                     	ds	1
   344  00BC                     _F:
   345  00BC                     	ds	1
   346  00BD                     _E:
   347  00BD                     	ds	1
   348  00BE                     _D:
   349  00BE                     	ds	1
   350  00BF                     _C:
   351  00BF                     	ds	1
   352  00C0                     _B:
   353  00C0                     	ds	1
   354  00C1                     _A:
   355  00C1                     	ds	1
   356                           
   357                           	psect	inittext
   358  0840                     init_fetch0:	
   359                           ;	Called with low address in FSR and high address in W
   360                           
   361  0840  087E               	movf	btemp,w
   362  0841  008A               	movwf	10
   363  0842  087F               	movf	btemp+1,w
   364  0843  0082               	movwf	2
   365  0844                     init_ram0:	
   366                           ;Called with:
   367                           ;	high address of idata address in btemp 
   368                           ;	low address of idata address in btemp+1 
   369                           ;	low address of data in FSR
   370                           ;	high address + 1 of data in btemp-1
   371                           
   372  0844  120A  158A  2040  120A  158A  	fcall	init_fetch0
   373  0849  0080               	movwf	0
   374  084A  0A84               	incf	4,f
   375  084B  0804               	movf	4,w
   376  084C  067D               	xorwf	btemp+-1,w
   377  084D  1903               	btfsc	3,2
   378  084E  3400               	retlw	0
   379  084F  0AFF               	incf	btemp+1,f
   380  0850  1903               	btfsc	3,2
   381  0851  0AFE               	incf	btemp,f
   382  0852  2844               	goto	init_ram0
   383                           
   384                           	psect	cstackBANK1
   385  00A0                     __pcstackBANK1:
   386  00A0                     ??___fltol:
   387                           
   388                           ; 1 bytes @ 0x0
   389  00A0                     	ds	5
   390  00A5                     ?_map:
   391  00A5                     map@x0:	
   392                           ; 2 bytes @ 0x5
   393                           
   394                           
   395                           ; 1 bytes @ 0x5
   396  00A5                     	ds	1
   397  00A6                     map@x1:
   398                           
   399                           ; 1 bytes @ 0x6
   400  00A6                     	ds	1
   401  00A7                     map@y0:
   402                           
   403                           ; 2 bytes @ 0x7
   404  00A7                     	ds	2
   405  00A9                     map@y1:
   406                           
   407                           ; 2 bytes @ 0x9
   408  00A9                     	ds	2
   409  00AB                     ??_isr:
   410                           
   411                           ; 1 bytes @ 0xB
   412  00AB                     	ds	5
   413  00B0                     ??_setup:
   414                           
   415                           ; 1 bytes @ 0x10
   416  00B0                     	ds	1
   417  00B1                     ??_main:
   418                           
   419                           ; 1 bytes @ 0x11
   420  00B1                     	ds	2
   421                           
   422                           	psect	cstackCOMMON
   423  0070                     __pcstackCOMMON:
   424  0070                     ?_load_data_rb1:
   425  0070                     ?_load_data_rb2:	
   426                           ; 1 bytes @ 0x0
   427                           
   428  0070                     ?_EEPROM_read:	
   429                           ; 1 bytes @ 0x0
   430                           
   431  0070                     ??_EEPROM_read:	
   432                           ; 1 bytes @ 0x0
   433                           
   434  0070                     ?_setup:	
   435                           ; 1 bytes @ 0x0
   436                           
   437  0070                     ?_isr:	
   438                           ; 1 bytes @ 0x0
   439                           
   440  0070                     ?_main:	
   441                           ; 1 bytes @ 0x0
   442                           
   443  0070                     ?_EEPROM_write:	
   444                           ; 1 bytes @ 0x0
   445                           
   446  0070                     ?__Umul8_16:	
   447                           ; 1 bytes @ 0x0
   448                           
   449  0070                     ?___xxtofl:	
   450                           ; 2 bytes @ 0x0
   451                           
   452  0070                     EEPROM_read@adress:	
   453                           ; 4 bytes @ 0x0
   454                           
   455  0070                     EEPROM_write@data:	
   456                           ; 1 bytes @ 0x0
   457                           
   458  0070                     __Umul8_16@multiplicand:	
   459                           ; 1 bytes @ 0x0
   460                           
   461  0070                     ___xxtofl@val:	
   462                           ; 1 bytes @ 0x0
   463                           
   464                           
   465                           ; 4 bytes @ 0x0
   466  0070                     	ds	1
   467  0071                     ??_EEPROM_write:
   468  0071                     EEPROM_write@adress:	
   469                           ; 1 bytes @ 0x1
   470                           
   471                           
   472                           ; 1 bytes @ 0x1
   473  0071                     	ds	1
   474  0072                     ??_load_data_rb1:
   475  0072                     ??_load_data_rb2:	
   476                           ; 1 bytes @ 0x2
   477                           
   478  0072                     ??__Umul8_16:	
   479                           ; 1 bytes @ 0x2
   480                           
   481                           
   482                           ; 1 bytes @ 0x2
   483  0072                     	ds	2
   484  0074                     ??___xxtofl:
   485  0074                     __Umul8_16@product:	
   486                           ; 1 bytes @ 0x4
   487                           
   488                           
   489                           ; 2 bytes @ 0x4
   490  0074                     	ds	2
   491  0076                     __Umul8_16@word_mpld:
   492                           
   493                           ; 2 bytes @ 0x6
   494  0076                     	ds	2
   495  0078                     __Umul8_16@multiplier:
   496  0078                     ___xxtofl@sign:	
   497                           ; 1 bytes @ 0x8
   498                           
   499                           
   500                           ; 1 bytes @ 0x8
   501  0078                     	ds	1
   502  0079                     ___xxtofl@exp:
   503                           
   504                           ; 1 bytes @ 0x9
   505  0079                     	ds	1
   506  007A                     ___xxtofl@arg:
   507                           
   508                           ; 4 bytes @ 0xA
   509  007A                     	ds	4
   510  007E                     ??_map:
   511                           
   512                           	psect	cstackBANK0
   513  0020                     __pcstackBANK0:	
   514                           ; 1 bytes @ 0xE
   515                           
   516  0020                     ?___fldiv:
   517  0020                     ___fldiv@a:	
   518                           ; 4 bytes @ 0x0
   519                           
   520                           
   521                           ; 4 bytes @ 0x0
   522  0020                     	ds	4
   523  0024                     ___fldiv@b:
   524                           
   525                           ; 4 bytes @ 0x4
   526  0024                     	ds	4
   527  0028                     ??___fldiv:
   528                           
   529                           ; 1 bytes @ 0x8
   530  0028                     	ds	5
   531  002D                     ___fldiv@rem:
   532                           
   533                           ; 4 bytes @ 0xD
   534  002D                     	ds	4
   535  0031                     ___fldiv@sign:
   536                           
   537                           ; 1 bytes @ 0x11
   538  0031                     	ds	1
   539  0032                     ___fldiv@new_exp:
   540                           
   541                           ; 2 bytes @ 0x12
   542  0032                     	ds	2
   543  0034                     ___fldiv@grs:
   544                           
   545                           ; 4 bytes @ 0x14
   546  0034                     	ds	4
   547  0038                     ___fldiv@bexp:
   548                           
   549                           ; 1 bytes @ 0x18
   550  0038                     	ds	1
   551  0039                     ___fldiv@aexp:
   552                           
   553                           ; 1 bytes @ 0x19
   554  0039                     	ds	1
   555  003A                     ?___flmul:
   556  003A                     ___flmul@b:	
   557                           ; 4 bytes @ 0x1A
   558                           
   559                           
   560                           ; 4 bytes @ 0x1A
   561  003A                     	ds	4
   562  003E                     ___flmul@a:
   563                           
   564                           ; 4 bytes @ 0x1E
   565  003E                     	ds	4
   566  0042                     ??___flmul:
   567                           
   568                           ; 1 bytes @ 0x22
   569  0042                     	ds	5
   570  0047                     ___flmul@sign:
   571                           
   572                           ; 1 bytes @ 0x27
   573  0047                     	ds	1
   574  0048                     ___flmul@grs:
   575                           
   576                           ; 4 bytes @ 0x28
   577  0048                     	ds	4
   578  004C                     ___flmul@aexp:
   579                           
   580                           ; 1 bytes @ 0x2C
   581  004C                     	ds	1
   582  004D                     ___flmul@bexp:
   583                           
   584                           ; 1 bytes @ 0x2D
   585  004D                     	ds	1
   586  004E                     ___flmul@prod:
   587                           
   588                           ; 4 bytes @ 0x2E
   589  004E                     	ds	4
   590  0052                     ___flmul@temp:
   591                           
   592                           ; 2 bytes @ 0x32
   593  0052                     	ds	2
   594  0054                     ?___fladd:
   595  0054                     ___fladd@b:	
   596                           ; 4 bytes @ 0x34
   597                           
   598                           
   599                           ; 4 bytes @ 0x34
   600  0054                     	ds	4
   601  0058                     ___fladd@a:
   602                           
   603                           ; 4 bytes @ 0x38
   604  0058                     	ds	4
   605  005C                     ??___fladd:
   606                           
   607                           ; 1 bytes @ 0x3C
   608  005C                     	ds	8
   609  0064                     ___fladd@signs:
   610                           
   611                           ; 1 bytes @ 0x44
   612  0064                     	ds	1
   613  0065                     ___fladd@aexp:
   614                           
   615                           ; 1 bytes @ 0x45
   616  0065                     	ds	1
   617  0066                     ___fladd@bexp:
   618                           
   619                           ; 1 bytes @ 0x46
   620  0066                     	ds	1
   621  0067                     ___fladd@grs:
   622                           
   623                           ; 1 bytes @ 0x47
   624  0067                     	ds	1
   625  0068                     ?___fltol:
   626  0068                     ___fltol@f1:	
   627                           ; 4 bytes @ 0x48
   628                           
   629                           
   630                           ; 4 bytes @ 0x48
   631  0068                     	ds	4
   632  006C                     ___fltol@sign1:
   633                           
   634                           ; 1 bytes @ 0x4C
   635  006C                     	ds	1
   636  006D                     ___fltol@exp1:
   637                           
   638                           ; 1 bytes @ 0x4D
   639  006D                     	ds	1
   640  006E                     map@x:
   641                           
   642                           ; 1 bytes @ 0x4E
   643  006E                     	ds	1
   644                           
   645                           	psect	maintext
   646  0AD9                     __pmaintext:	
   647 ;;
   648 ;;Main: autosize = 0, tempsize = 2, incstack = 0, save=0
   649 ;;
   650 ;; *************** function _main *****************
   651 ;; Defined at:
   652 ;;		line 212 in file "master_main_dar-alv.c"
   653 ;; Parameters:    Size  Location     Type
   654 ;;		None
   655 ;; Auto vars:     Size  Location     Type
   656 ;;		None
   657 ;; Return value:  Size  Location     Type
   658 ;;                  1    wreg      void 
   659 ;; Registers used:
   660 ;;		wreg, status,2, status,0, pclath, cstack
   661 ;; Tracked objects:
   662 ;;		On entry : B00/0
   663 ;;		On exit  : 0/0
   664 ;;		Unchanged: 0/0
   665 ;; Data sizes:     COMMON   BANK0   BANK1   BANK3   BANK2
   666 ;;      Params:         0       0       0       0       0
   667 ;;      Locals:         0       0       0       0       0
   668 ;;      Temps:          0       0       2       0       0
   669 ;;      Totals:         0       0       2       0       0
   670 ;;Total ram usage:        2 bytes
   671 ;; Hardware stack levels required when called: 5
   672 ;; This function calls:
   673 ;;		_setup
   674 ;; This function is called by:
   675 ;;		Startup code after reset
   676 ;; This function uses a non-reentrant model
   677 ;;
   678                           
   679  0AD9                     _main:	
   680                           ;psect for function _main
   681                           
   682  0AD9                     l2713:	
   683                           ;incstack = 0
   684                           ; Regs used in _main: [wreg+status,2+status,0+pclath+cstack]
   685                           
   686                           
   687                           ;master_main_dar-alv.c: 214:     setup();
   688  0AD9  120A  158A  2053  120A  158A  	fcall	_setup
   689  0ADE                     l2715:
   690                           
   691                           ;master_main_dar-alv.c: 218:         if (ADCON0bits.GO == 0){
   692  0ADE  1283               	bcf	3,5	;RP0=0, select bank0
   693  0ADF  1303               	bcf	3,6	;RP1=0, select bank0
   694  0AE0  189F               	btfsc	31,1	;volatile
   695  0AE1  2AE3               	goto	u3371
   696  0AE2  2AE4               	goto	u3370
   697  0AE3                     u3371:
   698  0AE3  2B39               	goto	l2745
   699  0AE4                     u3370:
   700  0AE4                     l2717:
   701                           
   702                           ;master_main_dar-alv.c: 219:             if (ADCON0bits.CHS == 0){
   703  0AE4  0C1F               	rrf	31,w	;volatile
   704  0AE5  1683               	bsf	3,5	;RP0=1, select bank1
   705  0AE6  1303               	bcf	3,6	;RP1=0, select bank1
   706  0AE7  00B1               	movwf	??_main^(0+128)
   707  0AE8  0C31               	rrf	??_main^(0+128),w
   708  0AE9  390F               	andlw	15
   709  0AEA  3A00               	xorlw	0
   710  0AEB  1D03               	skipz
   711  0AEC  2AEE               	goto	u3381
   712  0AED  2AEF               	goto	u3380
   713  0AEE                     u3381:
   714  0AEE  2AF9               	goto	l2723
   715  0AEF                     u3380:
   716  0AEF                     l2719:
   717                           
   718                           ;master_main_dar-alv.c: 220:                 ADCON0bits.CHS = 1;
   719  0AEF  1283               	bcf	3,5	;RP0=0, select bank0
   720  0AF0  1303               	bcf	3,6	;RP1=0, select bank0
   721  0AF1  081F               	movf	31,w	;volatile
   722  0AF2  39C3               	andlw	-61
   723  0AF3  3804               	iorlw	4
   724  0AF4  009F               	movwf	31	;volatile
   725  0AF5                     l2721:
   726                           
   727                           ;master_main_dar-alv.c: 221:                 _delay((unsigned long)((40)*(500000/4000000
      +                          .0)));
   728  0AF5  2AF6               	nop2	;2 cycle nop
   729  0AF6  2AF7               	nop2	;2 cycle nop
   730  0AF7  0000               	nop
   731                           
   732                           ;master_main_dar-alv.c: 222:             }
   733  0AF8  2B33               	goto	l2741
   734  0AF9                     l2723:
   735  0AF9  1283               	bcf	3,5	;RP0=0, select bank0
   736  0AFA  1303               	bcf	3,6	;RP1=0, select bank0
   737  0AFB  0C1F               	rrf	31,w	;volatile
   738  0AFC  1683               	bsf	3,5	;RP0=1, select bank1
   739  0AFD  1303               	bcf	3,6	;RP1=0, select bank1
   740  0AFE  00B1               	movwf	??_main^(0+128)
   741  0AFF  0C31               	rrf	??_main^(0+128),w
   742  0B00  390F               	andlw	15
   743  0B01  3A01               	xorlw	1
   744  0B02  1D03               	skipz
   745  0B03  2B05               	goto	u3391
   746  0B04  2B06               	goto	u3390
   747  0B05                     u3391:
   748  0B05  2B0D               	goto	l2729
   749  0B06                     u3390:
   750  0B06                     l2725:
   751                           
   752                           ;master_main_dar-alv.c: 224:                 ADCON0bits.CHS = 2;
   753  0B06  1283               	bcf	3,5	;RP0=0, select bank0
   754  0B07  1303               	bcf	3,6	;RP1=0, select bank0
   755  0B08  081F               	movf	31,w	;volatile
   756  0B09  39C3               	andlw	-61
   757  0B0A  3808               	iorlw	8
   758  0B0B  009F               	movwf	31	;volatile
   759  0B0C  2AF5               	goto	l2721
   760  0B0D                     l2729:
   761  0B0D  1283               	bcf	3,5	;RP0=0, select bank0
   762  0B0E  1303               	bcf	3,6	;RP1=0, select bank0
   763  0B0F  0C1F               	rrf	31,w	;volatile
   764  0B10  1683               	bsf	3,5	;RP0=1, select bank1
   765  0B11  1303               	bcf	3,6	;RP1=0, select bank1
   766  0B12  00B1               	movwf	??_main^(0+128)
   767  0B13  0C31               	rrf	??_main^(0+128),w
   768  0B14  390F               	andlw	15
   769  0B15  3A02               	xorlw	2
   770  0B16  1D03               	skipz
   771  0B17  2B19               	goto	u3401
   772  0B18  2B1A               	goto	u3400
   773  0B19                     u3401:
   774  0B19  2B21               	goto	l2735
   775  0B1A                     u3400:
   776  0B1A                     l2731:
   777                           
   778                           ;master_main_dar-alv.c: 228:                 ADCON0bits.CHS = 3;
   779  0B1A  1283               	bcf	3,5	;RP0=0, select bank0
   780  0B1B  1303               	bcf	3,6	;RP1=0, select bank0
   781  0B1C  081F               	movf	31,w	;volatile
   782  0B1D  39C3               	andlw	-61
   783  0B1E  380C               	iorlw	12
   784  0B1F  009F               	movwf	31	;volatile
   785  0B20  2AF5               	goto	l2721
   786  0B21                     l2735:
   787  0B21  1283               	bcf	3,5	;RP0=0, select bank0
   788  0B22  1303               	bcf	3,6	;RP1=0, select bank0
   789  0B23  0C1F               	rrf	31,w	;volatile
   790  0B24  1683               	bsf	3,5	;RP0=1, select bank1
   791  0B25  1303               	bcf	3,6	;RP1=0, select bank1
   792  0B26  00B1               	movwf	??_main^(0+128)
   793  0B27  0C31               	rrf	??_main^(0+128),w
   794  0B28  390F               	andlw	15
   795  0B29  3A03               	xorlw	3
   796  0B2A  1D03               	skipz
   797  0B2B  2B2D               	goto	u3411
   798  0B2C  2B2E               	goto	u3410
   799  0B2D                     u3411:
   800  0B2D  2B33               	goto	l175
   801  0B2E                     u3410:
   802  0B2E                     l2737:
   803                           
   804                           ;master_main_dar-alv.c: 232:                 ADCON0bits.CHS = 0;
   805  0B2E  30C3               	movlw	-61
   806  0B2F  1283               	bcf	3,5	;RP0=0, select bank0
   807  0B30  1303               	bcf	3,6	;RP1=0, select bank0
   808  0B31  059F               	andwf	31,f	;volatile
   809  0B32  2AF5               	goto	l2721
   810  0B33                     l175:
   811  0B33                     l2741:
   812                           
   813                           ;master_main_dar-alv.c: 235:             _delay((unsigned long)((40)*(500000/4000000.0))
      +                          );
   814  0B33  2B34               	nop2	;2 cycle nop
   815  0B34  2B35               	nop2	;2 cycle nop
   816  0B35  0000               	nop
   817  0B36                     l2743:
   818                           
   819                           ;master_main_dar-alv.c: 236:             ADCON0bits.GO = 1;
   820  0B36  1283               	bcf	3,5	;RP0=0, select bank0
   821  0B37  1303               	bcf	3,6	;RP1=0, select bank0
   822  0B38  149F               	bsf	31,1	;volatile
   823  0B39                     l2745:
   824                           
   825                           ;master_main_dar-alv.c: 240:         PORTAbits.RA6 = 0;
   826  0B39  1305               	bcf	5,6	;volatile
   827  0B3A                     l2747:
   828                           
   829                           ;master_main_dar-alv.c: 241:         if (PORTAbits.RA6 == 0){
   830  0B3A  1B05               	btfsc	5,6	;volatile
   831  0B3B  2B3D               	goto	u3421
   832  0B3C  2B3E               	goto	u3420
   833  0B3D                     u3421:
   834  0B3D  2B8C               	goto	l2759
   835  0B3E                     u3420:
   836  0B3E                     l2749:
   837                           
   838                           ;master_main_dar-alv.c: 242:             PORTDbits.RD1 = 0;
   839  0B3E  1088               	bcf	8,1	;volatile
   840  0B3F                     l2751:
   841                           
   842                           ;master_main_dar-alv.c: 243:             _delay((unsigned long)((50)*(500000/4000.0)));
   843  0B3F  3009               	movlw	9
   844  0B40  1683               	bsf	3,5	;RP0=1, select bank1
   845  0B41  1303               	bcf	3,6	;RP1=0, select bank1
   846  0B42  00B2               	movwf	(??_main^(0+128)+1)
   847  0B43  301B               	movlw	27
   848  0B44  00B1               	movwf	??_main^(0+128)
   849  0B45                     u3457:
   850  0B45  0BB1               	decfsz	??_main^(0+128),f
   851  0B46  2B45               	goto	u3457
   852  0B47  0BB2               	decfsz	(??_main^(0+128)+1),f
   853  0B48  2B45               	goto	u3457
   854  0B49  2B4A               	nop2
   855  0B4A                     l2753:
   856                           
   857                           ;master_main_dar-alv.c: 244:             PORTDbits.RD0 = 1;
   858  0B4A  1283               	bcf	3,5	;RP0=0, select bank0
   859  0B4B  1303               	bcf	3,6	;RP1=0, select bank0
   860  0B4C  1408               	bsf	8,0	;volatile
   861                           
   862                           ;master_main_dar-alv.c: 245:             _delay((unsigned long)((50)*(500000/4000.0)));
   863  0B4D  3009               	movlw	9
   864  0B4E  1683               	bsf	3,5	;RP0=1, select bank1
   865  0B4F  1303               	bcf	3,6	;RP1=0, select bank1
   866  0B50  00B2               	movwf	(??_main^(0+128)+1)
   867  0B51  301B               	movlw	27
   868  0B52  00B1               	movwf	??_main^(0+128)
   869  0B53                     u3467:
   870  0B53  0BB1               	decfsz	??_main^(0+128),f
   871  0B54  2B53               	goto	u3467
   872  0B55  0BB2               	decfsz	(??_main^(0+128)+1),f
   873  0B56  2B53               	goto	u3467
   874  0B57  2B58               	nop2
   875                           
   876                           ;master_main_dar-alv.c: 246:             SSPBUF = pot3_in;
   877  0B58  1683               	bsf	3,5	;RP0=1, select bank1
   878  0B59  1303               	bcf	3,6	;RP1=0, select bank1
   879  0B5A  0838               	movf	_pot3_in^(0+128),w
   880  0B5B  1283               	bcf	3,5	;RP0=0, select bank0
   881  0B5C  1303               	bcf	3,6	;RP1=0, select bank0
   882  0B5D  0093               	movwf	19	;volatile
   883  0B5E                     l180:	
   884                           ;master_main_dar-alv.c: 247:             while(!SSPSTATbits.BF);
   885                           
   886  0B5E  1683               	bsf	3,5	;RP0=1, select bank1
   887  0B5F  1303               	bcf	3,6	;RP1=0, select bank1
   888  0B60  1C14               	btfss	20,0	;volatile
   889  0B61  2B63               	goto	u3431
   890  0B62  2B64               	goto	u3430
   891  0B63                     u3431:
   892  0B63  2B5E               	goto	l180
   893  0B64                     u3430:
   894  0B64                     l182:
   895                           
   896                           ;master_main_dar-alv.c: 249:             PORTDbits.RD1 = 1;
   897  0B64  1283               	bcf	3,5	;RP0=0, select bank0
   898  0B65  1303               	bcf	3,6	;RP1=0, select bank0
   899  0B66  1488               	bsf	8,1	;volatile
   900  0B67                     l2755:
   901                           
   902                           ;master_main_dar-alv.c: 250:             _delay((unsigned long)((50)*(500000/4000.0)));
   903  0B67  3009               	movlw	9
   904  0B68  1683               	bsf	3,5	;RP0=1, select bank1
   905  0B69  1303               	bcf	3,6	;RP1=0, select bank1
   906  0B6A  00B2               	movwf	(??_main^(0+128)+1)
   907  0B6B  301B               	movlw	27
   908  0B6C  00B1               	movwf	??_main^(0+128)
   909  0B6D                     u3477:
   910  0B6D  0BB1               	decfsz	??_main^(0+128),f
   911  0B6E  2B6D               	goto	u3477
   912  0B6F  0BB2               	decfsz	(??_main^(0+128)+1),f
   913  0B70  2B6D               	goto	u3477
   914  0B71  2B72               	nop2
   915  0B72                     l2757:
   916                           
   917                           ;master_main_dar-alv.c: 251:             PORTDbits.RD0 = 0;
   918  0B72  1283               	bcf	3,5	;RP0=0, select bank0
   919  0B73  1303               	bcf	3,6	;RP1=0, select bank0
   920  0B74  1008               	bcf	8,0	;volatile
   921                           
   922                           ;master_main_dar-alv.c: 252:             _delay((unsigned long)((50)*(500000/4000.0)));
   923  0B75  3009               	movlw	9
   924  0B76  1683               	bsf	3,5	;RP0=1, select bank1
   925  0B77  1303               	bcf	3,6	;RP1=0, select bank1
   926  0B78  00B2               	movwf	(??_main^(0+128)+1)
   927  0B79  301B               	movlw	27
   928  0B7A  00B1               	movwf	??_main^(0+128)
   929  0B7B                     u3487:
   930  0B7B  0BB1               	decfsz	??_main^(0+128),f
   931  0B7C  2B7B               	goto	u3487
   932  0B7D  0BB2               	decfsz	(??_main^(0+128)+1),f
   933  0B7E  2B7B               	goto	u3487
   934  0B7F  2B80               	nop2
   935                           
   936                           ;master_main_dar-alv.c: 253:             SSPBUF = pot4_in;
   937  0B80  1683               	bsf	3,5	;RP0=1, select bank1
   938  0B81  1303               	bcf	3,6	;RP1=0, select bank1
   939  0B82  0837               	movf	_pot4_in^(0+128),w
   940  0B83  1283               	bcf	3,5	;RP0=0, select bank0
   941  0B84  1303               	bcf	3,6	;RP1=0, select bank0
   942  0B85  0093               	movwf	19	;volatile
   943  0B86                     l183:	
   944                           ;master_main_dar-alv.c: 254:             while(!SSPSTATbits.BF);
   945                           
   946  0B86  1683               	bsf	3,5	;RP0=1, select bank1
   947  0B87  1303               	bcf	3,6	;RP1=0, select bank1
   948  0B88  1C14               	btfss	20,0	;volatile
   949  0B89  2B8B               	goto	u3441
   950  0B8A  2B8C               	goto	u3440
   951  0B8B                     u3441:
   952  0B8B  2B86               	goto	l183
   953  0B8C                     u3440:
   954  0B8C                     l2759:
   955                           
   956                           ;master_main_dar-alv.c: 256:         _delay((unsigned long)((50)*(500000/4000.0)));
   957  0B8C  3009               	movlw	9
   958  0B8D  1683               	bsf	3,5	;RP0=1, select bank1
   959  0B8E  1303               	bcf	3,6	;RP1=0, select bank1
   960  0B8F  00B2               	movwf	(??_main^(0+128)+1)
   961  0B90  301B               	movlw	27
   962  0B91  00B1               	movwf	??_main^(0+128)
   963  0B92                     u3497:
   964  0B92  0BB1               	decfsz	??_main^(0+128),f
   965  0B93  2B92               	goto	u3497
   966  0B94  0BB2               	decfsz	(??_main^(0+128)+1),f
   967  0B95  2B92               	goto	u3497
   968  0B96  2B97               	nop2
   969  0B97  2ADE               	goto	l2715
   970  0B98  120A  118A  2810   	ljmp	start
   971  0B9B                     __end_of_main:
   972                           
   973                           	psect	text1
   974  0853                     __ptext1:	
   975 ;; *************** function _setup *****************
   976 ;; Defined at:
   977 ;;		line 263 in file "master_main_dar-alv.c"
   978 ;; Parameters:    Size  Location     Type
   979 ;;		None
   980 ;; Auto vars:     Size  Location     Type
   981 ;;		None
   982 ;; Return value:  Size  Location     Type
   983 ;;                  1    wreg      void 
   984 ;; Registers used:
   985 ;;		wreg, status,2, status,0
   986 ;; Tracked objects:
   987 ;;		On entry : 0/0
   988 ;;		On exit  : 0/0
   989 ;;		Unchanged: 0/0
   990 ;; Data sizes:     COMMON   BANK0   BANK1   BANK3   BANK2
   991 ;;      Params:         0       0       0       0       0
   992 ;;      Locals:         0       0       0       0       0
   993 ;;      Temps:          0       0       1       0       0
   994 ;;      Totals:         0       0       1       0       0
   995 ;;Total ram usage:        1 bytes
   996 ;; Hardware stack levels used: 1
   997 ;; Hardware stack levels required when called: 4
   998 ;; This function calls:
   999 ;;		Nothing
  1000 ;; This function is called by:
  1001 ;;		_main
  1002 ;; This function uses a non-reentrant model
  1003 ;;
  1004                           
  1005  0853                     _setup:	
  1006                           ;psect for function _setup
  1007                           
  1008  0853                     l2403:	
  1009                           ;incstack = 0
  1010                           ; Regs used in _setup: [wreg+status,2+status,0]
  1011                           
  1012                           
  1013                           ;master_main_dar-alv.c: 264:     ANSEL = 0b00001111;
  1014  0853  300F               	movlw	15
  1015  0854  1683               	bsf	3,5	;RP0=1, select bank3
  1016  0855  1703               	bsf	3,6	;RP1=1, select bank3
  1017  0856  0088               	movwf	8	;volatile
  1018  0857                     l2405:
  1019                           
  1020                           ;master_main_dar-alv.c: 265:     ANSELH = 0;
  1021  0857  0189               	clrf	9	;volatile
  1022  0858                     l2407:
  1023                           
  1024                           ;master_main_dar-alv.c: 267:     TRISA = 0b00001111;
  1025  0858  300F               	movlw	15
  1026  0859  1683               	bsf	3,5	;RP0=1, select bank1
  1027  085A  1303               	bcf	3,6	;RP1=0, select bank1
  1028  085B  0085               	movwf	5	;volatile
  1029                           
  1030                           ;master_main_dar-alv.c: 268:     TRISB = 0;
  1031  085C  0186               	clrf	6	;volatile
  1032                           
  1033                           ;master_main_dar-alv.c: 269:     TRISD = 0;
  1034  085D  0188               	clrf	8	;volatile
  1035                           
  1036                           ;master_main_dar-alv.c: 270:     TRISE = 0;
  1037  085E  0189               	clrf	9	;volatile
  1038                           
  1039                           ;master_main_dar-alv.c: 271:     PORTA = 0;
  1040  085F  1283               	bcf	3,5	;RP0=0, select bank0
  1041  0860  1303               	bcf	3,6	;RP1=0, select bank0
  1042  0861  0185               	clrf	5	;volatile
  1043                           
  1044                           ;master_main_dar-alv.c: 272:     PORTB = 0;
  1045  0862  0186               	clrf	6	;volatile
  1046                           
  1047                           ;master_main_dar-alv.c: 273:     PORTD = 0;
  1048  0863  0188               	clrf	8	;volatile
  1049                           
  1050                           ;master_main_dar-alv.c: 274:     PORTE = 0;
  1051  0864  0189               	clrf	9	;volatile
  1052  0865                     l2409:
  1053                           
  1054                           ;master_main_dar-alv.c: 276:     TRISC = 0b00010000;
  1055  0865  3010               	movlw	16
  1056  0866  1683               	bsf	3,5	;RP0=1, select bank1
  1057  0867  1303               	bcf	3,6	;RP1=0, select bank1
  1058  0868  0087               	movwf	7	;volatile
  1059  0869                     l2411:
  1060                           
  1061                           ;master_main_dar-alv.c: 277:     PORTC = 0;
  1062  0869  1283               	bcf	3,5	;RP0=0, select bank0
  1063  086A  1303               	bcf	3,6	;RP1=0, select bank0
  1064  086B  0187               	clrf	7	;volatile
  1065  086C                     l2413:
  1066                           
  1067                           ;master_main_dar-alv.c: 280:     SSPCONbits.SSPM = 0b0000;
  1068  086C  30F0               	movlw	-16
  1069  086D  0594               	andwf	20,f	;volatile
  1070  086E                     l2415:
  1071                           
  1072                           ;master_main_dar-alv.c: 281:     SSPCONbits.CKP = 0;
  1073  086E  1214               	bcf	20,4	;volatile
  1074  086F                     l2417:
  1075                           
  1076                           ;master_main_dar-alv.c: 282:     SSPCONbits.SSPEN = 1;
  1077  086F  1694               	bsf	20,5	;volatile
  1078  0870                     l2419:
  1079                           
  1080                           ;master_main_dar-alv.c: 284:     SSPSTATbits.CKE = 1;
  1081  0870  1683               	bsf	3,5	;RP0=1, select bank1
  1082  0871  1303               	bcf	3,6	;RP1=0, select bank1
  1083  0872  1714               	bsf	20,6	;volatile
  1084  0873                     l2421:
  1085                           
  1086                           ;master_main_dar-alv.c: 285:     SSPSTATbits.SMP = 1;
  1087  0873  1794               	bsf	20,7	;volatile
  1088  0874                     l2423:
  1089                           
  1090                           ;master_main_dar-alv.c: 286:     SSPBUF = 0x00;
  1091  0874  1283               	bcf	3,5	;RP0=0, select bank0
  1092  0875  1303               	bcf	3,6	;RP1=0, select bank0
  1093  0876  0193               	clrf	19	;volatile
  1094  0877                     l2425:
  1095                           
  1096                           ;master_main_dar-alv.c: 289:     INTCONbits.GIE = 1;
  1097  0877  178B               	bsf	11,7	;volatile
  1098  0878                     l2427:
  1099                           
  1100                           ;master_main_dar-alv.c: 290:     INTCONbits.PEIE = 1;
  1101  0878  170B               	bsf	11,6	;volatile
  1102  0879                     l2429:
  1103                           
  1104                           ;master_main_dar-alv.c: 291:     PIR1bits.ADIF = 0;
  1105  0879  130C               	bcf	12,6	;volatile
  1106  087A                     l2431:
  1107                           
  1108                           ;master_main_dar-alv.c: 292:     PIE1bits.ADIE = 1;
  1109  087A  1683               	bsf	3,5	;RP0=1, select bank1
  1110  087B  1303               	bcf	3,6	;RP1=0, select bank1
  1111  087C  170C               	bsf	12,6	;volatile
  1112  087D                     l2433:
  1113                           
  1114                           ;master_main_dar-alv.c: 293:     INTCONbits.RBIE = 1;
  1115  087D  158B               	bsf	11,3	;volatile
  1116  087E                     l2435:
  1117                           
  1118                           ;master_main_dar-alv.c: 294:     IOCBbits.IOCB0 = 1;
  1119  087E  1416               	bsf	22,0	;volatile
  1120  087F                     l2437:
  1121                           
  1122                           ;master_main_dar-alv.c: 295:     IOCBbits.IOCB1 = 1;
  1123  087F  1496               	bsf	22,1	;volatile
  1124  0880                     l2439:
  1125                           
  1126                           ;master_main_dar-alv.c: 296:     IOCBbits.IOCB2 = 1;
  1127  0880  1516               	bsf	22,2	;volatile
  1128  0881                     l2441:
  1129                           
  1130                           ;master_main_dar-alv.c: 297:     INTCONbits.RBIF = 0;
  1131  0881  100B               	bcf	11,0	;volatile
  1132  0882                     l2443:
  1133                           
  1134                           ;master_main_dar-alv.c: 300:     TRISBbits.TRISB0 = 1;
  1135  0882  1406               	bsf	6,0	;volatile
  1136  0883                     l2445:
  1137                           
  1138                           ;master_main_dar-alv.c: 301:     TRISBbits.TRISB1 = 1;
  1139  0883  1486               	bsf	6,1	;volatile
  1140  0884                     l2447:
  1141                           
  1142                           ;master_main_dar-alv.c: 302:     TRISBbits.TRISB2 = 1;
  1143  0884  1506               	bsf	6,2	;volatile
  1144  0885                     l2449:
  1145                           
  1146                           ;master_main_dar-alv.c: 303:     OPTION_REGbits.nRBPU = 0;
  1147  0885  1381               	bcf	1,7	;volatile
  1148  0886                     l2451:
  1149                           
  1150                           ;master_main_dar-alv.c: 304:     WPUBbits.WPUB0 = 1;
  1151  0886  1415               	bsf	21,0	;volatile
  1152  0887                     l2453:
  1153                           
  1154                           ;master_main_dar-alv.c: 305:     WPUBbits.WPUB1 = 1;
  1155  0887  1495               	bsf	21,1	;volatile
  1156  0888                     l2455:
  1157                           
  1158                           ;master_main_dar-alv.c: 306:     WPUBbits.WPUB2 = 1;
  1159  0888  1515               	bsf	21,2	;volatile
  1160  0889                     l2457:
  1161                           
  1162                           ;master_main_dar-alv.c: 309:     OSCCONbits.IRCF = 0b0011;
  1163  0889  080F               	movf	15,w	;volatile
  1164  088A  398F               	andlw	-113
  1165  088B  3830               	iorlw	48
  1166  088C  008F               	movwf	15	;volatile
  1167  088D                     l2459:
  1168                           
  1169                           ;master_main_dar-alv.c: 310:     OSCCONbits.SCS = 1;
  1170  088D  140F               	bsf	15,0	;volatile
  1171  088E                     l2461:
  1172                           
  1173                           ;master_main_dar-alv.c: 313:     ADCON0bits.ADCS = 0b00;
  1174  088E  303F               	movlw	-193
  1175  088F  1283               	bcf	3,5	;RP0=0, select bank0
  1176  0890  1303               	bcf	3,6	;RP1=0, select bank0
  1177  0891  059F               	andwf	31,f	;volatile
  1178  0892                     l2463:
  1179                           
  1180                           ;master_main_dar-alv.c: 314:     ADCON1bits.VCFG0 = 0;
  1181  0892  1683               	bsf	3,5	;RP0=1, select bank1
  1182  0893  1303               	bcf	3,6	;RP1=0, select bank1
  1183  0894  121F               	bcf	31,4	;volatile
  1184  0895                     l2465:
  1185                           
  1186                           ;master_main_dar-alv.c: 315:     ADCON1bits.VCFG1 = 0;
  1187  0895  129F               	bcf	31,5	;volatile
  1188  0896                     l2467:
  1189                           
  1190                           ;master_main_dar-alv.c: 317:     ADCON0bits.CHS = 0b0000;
  1191  0896  30C3               	movlw	-61
  1192  0897  1283               	bcf	3,5	;RP0=0, select bank0
  1193  0898  1303               	bcf	3,6	;RP1=0, select bank0
  1194  0899  059F               	andwf	31,f	;volatile
  1195  089A                     l2469:
  1196                           
  1197                           ;master_main_dar-alv.c: 318:     ADCON1bits.ADFM = 0;
  1198  089A  1683               	bsf	3,5	;RP0=1, select bank1
  1199  089B  1303               	bcf	3,6	;RP1=0, select bank1
  1200  089C  139F               	bcf	31,7	;volatile
  1201  089D                     l2471:
  1202                           
  1203                           ;master_main_dar-alv.c: 319:     ADCON0bits.ADON = 1;
  1204  089D  1283               	bcf	3,5	;RP0=0, select bank0
  1205  089E  1303               	bcf	3,6	;RP1=0, select bank0
  1206  089F  141F               	bsf	31,0	;volatile
  1207  08A0                     l2473:
  1208                           
  1209                           ;master_main_dar-alv.c: 320:     _delay((unsigned long)((320)*(500000/4000000.0)));
  1210  08A0  300C               	movlw	12
  1211  08A1  1683               	bsf	3,5	;RP0=1, select bank1
  1212  08A2  1303               	bcf	3,6	;RP1=0, select bank1
  1213  08A3  00B0               	movwf	??_setup^(0+128)
  1214  08A4                     u3507:
  1215  08A4  0BB0               	decfsz	??_setup^(0+128),f
  1216  08A5  28A4               	goto	u3507
  1217  08A6  0000               	nop
  1218  08A7                     l2475:
  1219                           
  1220                           ;master_main_dar-alv.c: 323:     TRISCbits.TRISC2 = 1;
  1221  08A7  1683               	bsf	3,5	;RP0=1, select bank1
  1222  08A8  1303               	bcf	3,6	;RP1=0, select bank1
  1223  08A9  1507               	bsf	7,2	;volatile
  1224  08AA                     l2477:
  1225                           
  1226                           ;master_main_dar-alv.c: 324:     TRISCbits.TRISC1 = 1;
  1227  08AA  1487               	bsf	7,1	;volatile
  1228  08AB                     l2479:
  1229                           
  1230                           ;master_main_dar-alv.c: 325:     PR2 = 156;
  1231  08AB  309C               	movlw	156
  1232  08AC  0092               	movwf	18	;volatile
  1233  08AD                     l2481:
  1234                           
  1235                           ;master_main_dar-alv.c: 328:     CCP1CON = 0;
  1236  08AD  1283               	bcf	3,5	;RP0=0, select bank0
  1237  08AE  1303               	bcf	3,6	;RP1=0, select bank0
  1238  08AF  0197               	clrf	23	;volatile
  1239  08B0                     l2483:
  1240                           
  1241                           ;master_main_dar-alv.c: 329:     CCP2CON = 0;
  1242  08B0  019D               	clrf	29	;volatile
  1243  08B1                     l2485:
  1244                           
  1245                           ;master_main_dar-alv.c: 330:     CCP1CONbits.P1M = 0;
  1246  08B1  303F               	movlw	-193
  1247  08B2  0597               	andwf	23,f	;volatile
  1248  08B3                     l2487:
  1249                           
  1250                           ;master_main_dar-alv.c: 331:     CCP1CONbits.CCP1M = 0b1100;
  1251  08B3  0817               	movf	23,w	;volatile
  1252  08B4  39F0               	andlw	-16
  1253  08B5  380C               	iorlw	12
  1254  08B6  0097               	movwf	23	;volatile
  1255  08B7                     l2489:
  1256                           
  1257                           ;master_main_dar-alv.c: 332:     CCP2CONbits.CCP2M = 0b1100;
  1258  08B7  081D               	movf	29,w	;volatile
  1259  08B8  39F0               	andlw	-16
  1260  08B9  380C               	iorlw	12
  1261  08BA  009D               	movwf	29	;volatile
  1262  08BB                     l2491:
  1263                           
  1264                           ;master_main_dar-alv.c: 334:     CCPR1L = 155>>2;
  1265  08BB  3026               	movlw	38
  1266  08BC  0095               	movwf	21	;volatile
  1267  08BD                     l2493:
  1268                           
  1269                           ;master_main_dar-alv.c: 335:     CCP1CONbits.DC1B = 155 & 0b11;
  1270  08BD  3030               	movlw	48
  1271  08BE  0497               	iorwf	23,f	;volatile
  1272  08BF                     l2495:
  1273                           
  1274                           ;master_main_dar-alv.c: 336:     CCPR2L = 155>>2;
  1275  08BF  3026               	movlw	38
  1276  08C0  009B               	movwf	27	;volatile
  1277  08C1                     l2497:
  1278                           
  1279                           ;master_main_dar-alv.c: 337:     CCP2CONbits.DC2B0 = 155 & 0b01;
  1280  08C1  161D               	bsf	29,4	;volatile
  1281  08C2                     l2499:
  1282                           
  1283                           ;master_main_dar-alv.c: 338:     CCP2CONbits.DC2B1 = 155 & 0b10;
  1284  08C2  129D               	bcf	29,5	;volatile
  1285  08C3                     l2501:
  1286                           
  1287                           ;master_main_dar-alv.c: 341:     T2CONbits.T2CKPS = 0b11;
  1288  08C3  3003               	movlw	3
  1289  08C4  0492               	iorwf	18,f	;volatile
  1290  08C5                     l2503:
  1291                           
  1292                           ;master_main_dar-alv.c: 342:     PIR1bits.TMR2IF = 0;
  1293  08C5  108C               	bcf	12,1	;volatile
  1294  08C6                     l2505:
  1295                           
  1296                           ;master_main_dar-alv.c: 343:     T2CONbits.TMR2ON = 1;
  1297  08C6  1512               	bsf	18,2	;volatile
  1298  08C7                     l191:	
  1299                           ;master_main_dar-alv.c: 344:     while(!PIR1bits.TMR2IF);
  1300                           
  1301  08C7  1C8C               	btfss	12,1	;volatile
  1302  08C8  28CA               	goto	u3121
  1303  08C9  28CB               	goto	u3120
  1304  08CA                     u3121:
  1305  08CA  28C7               	goto	l191
  1306  08CB                     u3120:
  1307  08CB                     l193:
  1308                           
  1309                           ;master_main_dar-alv.c: 345:     PIR1bits.TMR2IF = 0;
  1310  08CB  108C               	bcf	12,1	;volatile
  1311                           
  1312                           ;master_main_dar-alv.c: 347:     TRISCbits.TRISC1 = 0;
  1313  08CC  1683               	bsf	3,5	;RP0=1, select bank1
  1314  08CD  1303               	bcf	3,6	;RP1=0, select bank1
  1315  08CE  1087               	bcf	7,1	;volatile
  1316                           
  1317                           ;master_main_dar-alv.c: 348:     TRISCbits.TRISC2 = 0;
  1318  08CF  1107               	bcf	7,2	;volatile
  1319  08D0                     l194:	
  1320                           ;master_main_dar-alv.c: 350:     return;
  1321                           
  1322  08D0  0008               	return
  1323  08D1                     __end_of_setup:
  1324                           
  1325                           	psect	text2
  1326  002F                     __ptext2:	
  1327 ;; *************** function _isr *****************
  1328 ;; Defined at:
  1329 ;;		line 70 in file "master_main_dar-alv.c"
  1330 ;; Parameters:    Size  Location     Type
  1331 ;;		None
  1332 ;; Auto vars:     Size  Location     Type
  1333 ;;		None
  1334 ;; Return value:  Size  Location     Type
  1335 ;;                  1    wreg      void 
  1336 ;; Registers used:
  1337 ;;		wreg, status,2, status,0, btemp+1, pclath, cstack
  1338 ;; Tracked objects:
  1339 ;;		On entry : 0/0
  1340 ;;		On exit  : 0/0
  1341 ;;		Unchanged: 0/0
  1342 ;; Data sizes:     COMMON   BANK0   BANK1   BANK3   BANK2
  1343 ;;      Params:         0       0       0       0       0
  1344 ;;      Locals:         0       0       0       0       0
  1345 ;;      Temps:          0       0       5       0       0
  1346 ;;      Totals:         0       0       5       0       0
  1347 ;;Total ram usage:        5 bytes
  1348 ;; Hardware stack levels used: 1
  1349 ;; Hardware stack levels required when called: 3
  1350 ;; This function calls:
  1351 ;;		_EEPROM_read
  1352 ;;		_load_data_rb1
  1353 ;;		_load_data_rb2
  1354 ;;		_map
  1355 ;; This function is called by:
  1356 ;;		Interrupt level 1
  1357 ;; This function uses a non-reentrant model
  1358 ;;
  1359                           
  1360  002F                     _isr:	
  1361                           ;psect for function _isr
  1362                           
  1363  002F                     i1l2507:
  1364                           
  1365                           ;master_main_dar-alv.c: 71:     if(INTCONbits.RBIF){
  1366  002F  1C0B               	btfss	11,0	;volatile
  1367  0030  2832               	goto	u313_21
  1368  0031  2833               	goto	u313_20
  1369  0032                     u313_21:
  1370  0032  2B6D               	goto	i1l2677
  1371  0033                     u313_20:
  1372  0033                     i1l2509:
  1373                           
  1374                           ;master_main_dar-alv.c: 72:         A = 1;
  1375  0033  01C1               	clrf	_A^(0+128)
  1376  0034  0AC1               	incf	_A^(0+128),f
  1377                           
  1378                           ;master_main_dar-alv.c: 73:         C = 1;
  1379  0035  01BF               	clrf	_C^(0+128)
  1380  0036  0ABF               	incf	_C^(0+128),f
  1381                           
  1382                           ;master_main_dar-alv.c: 74:         E = 1;
  1383  0037  01BD               	clrf	_E^(0+128)
  1384  0038  0ABD               	incf	_E^(0+128),f
  1385                           
  1386                           ;master_main_dar-alv.c: 75:         if (!PORTBbits.RB0){
  1387  0039  1283               	bcf	3,5	;RP0=0, select bank0
  1388  003A  1303               	bcf	3,6	;RP1=0, select bank0
  1389  003B  1806               	btfsc	6,0	;volatile
  1390  003C  283E               	goto	u314_21
  1391  003D  283F               	goto	u314_20
  1392  003E                     u314_21:
  1393  003E  2846               	goto	i1l2515
  1394  003F                     u314_20:
  1395  003F                     i1l2511:
  1396                           
  1397                           ;master_main_dar-alv.c: 76:             A = 0;
  1398  003F  1683               	bsf	3,5	;RP0=1, select bank1
  1399  0040  1303               	bcf	3,6	;RP1=0, select bank1
  1400  0041  01C1               	clrf	_A^(0+128)
  1401  0042                     i1l2513:
  1402                           
  1403                           ;master_main_dar-alv.c: 77:             B = A;
  1404  0042  0841               	movf	_A^(0+128),w
  1405  0043  00AB               	movwf	??_isr^(0+128)
  1406  0044  082B               	movf	??_isr^(0+128),w
  1407  0045  00C0               	movwf	_B^(0+128)
  1408  0046                     i1l2515:
  1409                           
  1410                           ;master_main_dar-alv.c: 79:         if (B != A){
  1411  0046  1683               	bsf	3,5	;RP0=1, select bank1
  1412  0047  1303               	bcf	3,6	;RP1=0, select bank1
  1413  0048  0840               	movf	_B^(0+128),w
  1414  0049  0641               	xorwf	_A^(0+128),w
  1415  004A  1903               	skipnz
  1416  004B  284D               	goto	u315_21
  1417  004C  284E               	goto	u315_20
  1418  004D                     u315_21:
  1419  004D  285A               	goto	i1l2523
  1420  004E                     u315_20:
  1421  004E                     i1l2517:
  1422                           
  1423                           ;master_main_dar-alv.c: 80:             B = A;
  1424  004E  0841               	movf	_A^(0+128),w
  1425  004F  00AB               	movwf	??_isr^(0+128)
  1426  0050  082B               	movf	??_isr^(0+128),w
  1427  0051  00C0               	movwf	_B^(0+128)
  1428  0052                     i1l2519:
  1429                           
  1430                           ;master_main_dar-alv.c: 81:             estado++;
  1431  0052  3001               	movlw	1
  1432  0053  00AB               	movwf	??_isr^(0+128)
  1433  0054  082B               	movf	??_isr^(0+128),w
  1434  0055  07BB               	addwf	_estado^(0+128),f
  1435  0056                     i1l2521:
  1436                           
  1437                           ;master_main_dar-alv.c: 82:             PORTE = estado;
  1438  0056  083B               	movf	_estado^(0+128),w
  1439  0057  1283               	bcf	3,5	;RP0=0, select bank0
  1440  0058  1303               	bcf	3,6	;RP1=0, select bank0
  1441  0059  0089               	movwf	9	;volatile
  1442  005A                     i1l2523:
  1443                           
  1444                           ;master_main_dar-alv.c: 84:         if (estado > 2){
  1445  005A  3003               	movlw	3
  1446  005B  1683               	bsf	3,5	;RP0=1, select bank1
  1447  005C  1303               	bcf	3,6	;RP1=0, select bank1
  1448  005D  023B               	subwf	_estado^(0+128),w
  1449  005E  1C03               	skipc
  1450  005F  2861               	goto	u316_21
  1451  0060  2862               	goto	u316_20
  1452  0061                     u316_21:
  1453  0061  2867               	goto	i1l2529
  1454  0062                     u316_20:
  1455  0062                     i1l2525:
  1456                           
  1457                           ;master_main_dar-alv.c: 85:             estado = 0;
  1458  0062  01BB               	clrf	_estado^(0+128)
  1459  0063                     i1l2527:
  1460                           
  1461                           ;master_main_dar-alv.c: 86:             PORTE = estado;
  1462  0063  083B               	movf	_estado^(0+128),w
  1463  0064  1283               	bcf	3,5	;RP0=0, select bank0
  1464  0065  1303               	bcf	3,6	;RP1=0, select bank0
  1465  0066  0089               	movwf	9	;volatile
  1466  0067                     i1l2529:
  1467                           
  1468                           ;master_main_dar-alv.c: 89:         if (estado == 0){
  1469  0067  1683               	bsf	3,5	;RP0=1, select bank1
  1470  0068  1303               	bcf	3,6	;RP1=0, select bank1
  1471  0069  083B               	movf	_estado^(0+128),w
  1472  006A  1D03               	btfss	3,2
  1473  006B  286D               	goto	u317_21
  1474  006C  286E               	goto	u317_20
  1475  006D                     u317_21:
  1476  006D  28AC               	goto	i1l2553
  1477  006E                     u317_20:
  1478  006E                     i1l2531:
  1479                           
  1480                           ;master_main_dar-alv.c: 90:             if(!PORTBbits.RB1){
  1481  006E  1283               	bcf	3,5	;RP0=0, select bank0
  1482  006F  1303               	bcf	3,6	;RP1=0, select bank0
  1483  0070  1886               	btfsc	6,1	;volatile
  1484  0071  2873               	goto	u318_21
  1485  0072  2874               	goto	u318_20
  1486  0073                     u318_21:
  1487  0073  287B               	goto	i1l2537
  1488  0074                     u318_20:
  1489  0074                     i1l2533:
  1490                           
  1491                           ;master_main_dar-alv.c: 91:                 C = 0;
  1492  0074  1683               	bsf	3,5	;RP0=1, select bank1
  1493  0075  1303               	bcf	3,6	;RP1=0, select bank1
  1494  0076  01BF               	clrf	_C^(0+128)
  1495  0077                     i1l2535:
  1496                           
  1497                           ;master_main_dar-alv.c: 92:                 D = C;
  1498  0077  083F               	movf	_C^(0+128),w
  1499  0078  00AB               	movwf	??_isr^(0+128)
  1500  0079  082B               	movf	??_isr^(0+128),w
  1501  007A  00BE               	movwf	_D^(0+128)
  1502  007B                     i1l2537:
  1503                           
  1504                           ;master_main_dar-alv.c: 94:             if (D != C){
  1505  007B  1683               	bsf	3,5	;RP0=1, select bank1
  1506  007C  1303               	bcf	3,6	;RP1=0, select bank1
  1507  007D  083E               	movf	_D^(0+128),w
  1508  007E  063F               	xorwf	_C^(0+128),w
  1509  007F  1903               	skipnz
  1510  0080  2882               	goto	u319_21
  1511  0081  2883               	goto	u319_20
  1512  0082                     u319_21:
  1513  0082  288D               	goto	i1l133
  1514  0083                     u319_20:
  1515  0083                     i1l2539:
  1516                           
  1517                           ;master_main_dar-alv.c: 95:                 D = C;
  1518  0083  083F               	movf	_C^(0+128),w
  1519  0084  00AB               	movwf	??_isr^(0+128)
  1520  0085  082B               	movf	??_isr^(0+128),w
  1521  0086  00BE               	movwf	_D^(0+128)
  1522  0087                     i1l2541:
  1523                           
  1524                           ;master_main_dar-alv.c: 96:                 load_data_rb1();
  1525  0087  160A  118A  2756  120A  118A  	fcall	_load_data_rb1
  1526                           
  1527                           ;master_main_dar-alv.c: 97:             }
  1528  008C  289A               	goto	i1l2547
  1529  008D                     i1l133:	
  1530                           ;master_main_dar-alv.c: 98:             else if(!PORTBbits.RB2){
  1531                           
  1532  008D  1283               	bcf	3,5	;RP0=0, select bank0
  1533  008E  1303               	bcf	3,6	;RP1=0, select bank0
  1534  008F  1906               	btfsc	6,2	;volatile
  1535  0090  2892               	goto	u320_21
  1536  0091  2893               	goto	u320_20
  1537  0092                     u320_21:
  1538  0092  289A               	goto	i1l2547
  1539  0093                     u320_20:
  1540  0093                     i1l2543:
  1541                           
  1542                           ;master_main_dar-alv.c: 99:                 E = 0;
  1543  0093  1683               	bsf	3,5	;RP0=1, select bank1
  1544  0094  1303               	bcf	3,6	;RP1=0, select bank1
  1545  0095  01BD               	clrf	_E^(0+128)
  1546  0096                     i1l2545:
  1547                           
  1548                           ;master_main_dar-alv.c: 100:                 F = E;
  1549  0096  083D               	movf	_E^(0+128),w
  1550  0097  00AB               	movwf	??_isr^(0+128)
  1551  0098  082B               	movf	??_isr^(0+128),w
  1552  0099  00BC               	movwf	_F^(0+128)
  1553  009A                     i1l2547:
  1554                           
  1555                           ;master_main_dar-alv.c: 102:             if (F != E){
  1556  009A  1683               	bsf	3,5	;RP0=1, select bank1
  1557  009B  1303               	bcf	3,6	;RP1=0, select bank1
  1558  009C  083C               	movf	_F^(0+128),w
  1559  009D  063D               	xorwf	_E^(0+128),w
  1560  009E  1903               	skipnz
  1561  009F  28A1               	goto	u321_21
  1562  00A0  28A2               	goto	u321_20
  1563  00A1                     u321_21:
  1564  00A1  2B6C               	goto	i1l137
  1565  00A2                     u321_20:
  1566  00A2                     i1l2549:
  1567                           
  1568                           ;master_main_dar-alv.c: 103:                 F = E;
  1569  00A2  083D               	movf	_E^(0+128),w
  1570  00A3  00AB               	movwf	??_isr^(0+128)
  1571  00A4  082B               	movf	??_isr^(0+128),w
  1572  00A5  00BC               	movwf	_F^(0+128)
  1573  00A6                     i1l2551:
  1574                           
  1575                           ;master_main_dar-alv.c: 104:                 load_data_rb2();
  1576  00A6  160A  118A  27AB  120A  118A  	fcall	_load_data_rb2
  1577  00AB  2B6C               	goto	i1l137
  1578  00AC                     i1l2553:
  1579  00AC  033B               	decf	_estado^(0+128),w
  1580  00AD  1D03               	btfss	3,2
  1581  00AE  28B0               	goto	u322_21
  1582  00AF  28B1               	goto	u322_20
  1583  00B0                     u322_21:
  1584  00B0  2B6C               	goto	i1l137
  1585  00B1                     u322_20:
  1586  00B1                     i1l2555:
  1587                           
  1588                           ;master_main_dar-alv.c: 108:             if(!PORTBbits.RB1){
  1589  00B1  1283               	bcf	3,5	;RP0=0, select bank0
  1590  00B2  1303               	bcf	3,6	;RP1=0, select bank0
  1591  00B3  1886               	btfsc	6,1	;volatile
  1592  00B4  28B6               	goto	u323_21
  1593  00B5  28B7               	goto	u323_20
  1594  00B6                     u323_21:
  1595  00B6  28BE               	goto	i1l2561
  1596  00B7                     u323_20:
  1597  00B7                     i1l2557:
  1598                           
  1599                           ;master_main_dar-alv.c: 109:                 C = 0;
  1600  00B7  1683               	bsf	3,5	;RP0=1, select bank1
  1601  00B8  1303               	bcf	3,6	;RP1=0, select bank1
  1602  00B9  01BF               	clrf	_C^(0+128)
  1603  00BA                     i1l2559:
  1604                           
  1605                           ;master_main_dar-alv.c: 110:                 D = C;
  1606  00BA  083F               	movf	_C^(0+128),w
  1607  00BB  00AB               	movwf	??_isr^(0+128)
  1608  00BC  082B               	movf	??_isr^(0+128),w
  1609  00BD  00BE               	movwf	_D^(0+128)
  1610  00BE                     i1l2561:
  1611                           
  1612                           ;master_main_dar-alv.c: 112:             if (D != C){
  1613  00BE  1683               	bsf	3,5	;RP0=1, select bank1
  1614  00BF  1303               	bcf	3,6	;RP1=0, select bank1
  1615  00C0  083E               	movf	_D^(0+128),w
  1616  00C1  063F               	xorwf	_C^(0+128),w
  1617  00C2  1903               	skipnz
  1618  00C3  28C5               	goto	u324_21
  1619  00C4  28C6               	goto	u324_20
  1620  00C5                     u324_21:
  1621  00C5  2A04               	goto	i1l140
  1622  00C6                     u324_20:
  1623  00C6                     i1l2563:
  1624                           
  1625                           ;master_main_dar-alv.c: 113:                 D = C;
  1626  00C6  083F               	movf	_C^(0+128),w
  1627  00C7  00AB               	movwf	??_isr^(0+128)
  1628  00C8  082B               	movf	??_isr^(0+128),w
  1629  00C9  00BE               	movwf	_D^(0+128)
  1630  00CA                     i1l2565:
  1631                           
  1632                           ;master_main_dar-alv.c: 114:                 pot1_in = EEPROM_read(0x00);
  1633  00CA  3000               	movlw	0
  1634  00CB  120A  158A  2033  120A  118A  	fcall	_EEPROM_read
  1635  00D0  1683               	bsf	3,5	;RP0=1, select bank1
  1636  00D1  1303               	bcf	3,6	;RP1=0, select bank1
  1637  00D2  00AB               	movwf	??_isr^(0+128)
  1638  00D3  082B               	movf	??_isr^(0+128),w
  1639  00D4  00BA               	movwf	_pot1_in^(0+128)
  1640  00D5                     i1l2567:
  1641                           
  1642                           ;master_main_dar-alv.c: 115:                 _delay((unsigned long)((50)*(500000/4000.0)
      +                          ));
  1643  00D5  3009               	movlw	9
  1644  00D6  1683               	bsf	3,5	;RP0=1, select bank1
  1645  00D7  1303               	bcf	3,6	;RP1=0, select bank1
  1646  00D8  00AC               	movwf	(??_isr^(0+128)+1)
  1647  00D9  301B               	movlw	27
  1648  00DA  00AB               	movwf	??_isr^(0+128)
  1649  00DB                     u351_27:
  1650  00DB  0BAB               	decfsz	??_isr^(0+128),f
  1651  00DC  28DB               	goto	u351_27
  1652  00DD  0BAC               	decfsz	(??_isr^(0+128)+1),f
  1653  00DE  28DB               	goto	u351_27
  1654  00DF  28E0               	nop2
  1655  00E0                     i1l2569:
  1656                           
  1657                           ;master_main_dar-alv.c: 116:                 CCPR = map(pot1_in, 0, 255, 13, 80);
  1658  00E0  1683               	bsf	3,5	;RP0=1, select bank1
  1659  00E1  1303               	bcf	3,6	;RP1=0, select bank1
  1660  00E2  01A5               	clrf	map@x0^(0+128)
  1661  00E3  30FF               	movlw	255
  1662  00E4  00AB               	movwf	??_isr^(0+128)
  1663  00E5  082B               	movf	??_isr^(0+128),w
  1664  00E6  00A6               	movwf	map@x1^(0+128)
  1665  00E7  300D               	movlw	13
  1666  00E8  00A7               	movwf	map@y0^(0+128)
  1667  00E9  3000               	movlw	0
  1668  00EA  00A8               	movwf	(map@y0^(0+128)+1)
  1669  00EB  3050               	movlw	80
  1670  00EC  00A9               	movwf	map@y1^(0+128)
  1671  00ED  3000               	movlw	0
  1672  00EE  00AA               	movwf	(map@y1^(0+128)+1)
  1673  00EF  083A               	movf	_pot1_in^(0+128),w
  1674  00F0  120A  158A  216D  120A  118A  	fcall	_map
  1675  00F5  1683               	bsf	3,5	;RP0=1, select bank1
  1676  00F6  1303               	bcf	3,6	;RP1=0, select bank1
  1677  00F7  0826               	movf	(?_map+1)^(0+128),w
  1678  00F8  00B6               	movwf	(_CCPR+1)^(0+128)
  1679  00F9  0825               	movf	?_map^(0+128),w
  1680  00FA  00B5               	movwf	_CCPR^(0+128)
  1681  00FB                     i1l2571:
  1682                           
  1683                           ;master_main_dar-alv.c: 117:                 CCPR1L = (uint8_t)(CCPR>>2);
  1684  00FB  0836               	movf	(_CCPR+1)^(0+128),w
  1685  00FC  00AC               	movwf	(??_isr^(0+128)+1)
  1686  00FD  0835               	movf	_CCPR^(0+128),w
  1687  00FE  00AB               	movwf	??_isr^(0+128)
  1688  00FF  1003               	clrc
  1689  0100  0CAC               	rrf	(??_isr^(0+128)+1),f
  1690  0101  0CAB               	rrf	??_isr^(0+128),f
  1691  0102  1003               	clrc
  1692  0103  0CAC               	rrf	(??_isr^(0+128)+1),f
  1693  0104  0CAB               	rrf	??_isr^(0+128),f
  1694  0105  082B               	movf	??_isr^(0+128),w
  1695  0106  1283               	bcf	3,5	;RP0=0, select bank0
  1696  0107  1303               	bcf	3,6	;RP1=0, select bank0
  1697  0108  0095               	movwf	21	;volatile
  1698  0109                     i1l2573:
  1699                           
  1700                           ;master_main_dar-alv.c: 118:                 CCP1CONbits.DC1B = CCPR & 0b11;
  1701  0109  1683               	bsf	3,5	;RP0=1, select bank1
  1702  010A  1303               	bcf	3,6	;RP1=0, select bank1
  1703  010B  0835               	movf	_CCPR^(0+128),w
  1704  010C  3903               	andlw	3
  1705  010D  00AB               	movwf	??_isr^(0+128)
  1706  010E  0EAB               	swapf	??_isr^(0+128),f
  1707  010F  1283               	bcf	3,5	;RP0=0, select bank0
  1708  0110  1303               	bcf	3,6	;RP1=0, select bank0
  1709  0111  0817               	movf	23,w	;volatile
  1710  0112  1683               	bsf	3,5	;RP0=1, select bank1
  1711  0113  1303               	bcf	3,6	;RP1=0, select bank1
  1712  0114  062B               	xorwf	??_isr^(0+128),w
  1713  0115  39CF               	andlw	-49
  1714  0116  062B               	xorwf	??_isr^(0+128),w
  1715  0117  1283               	bcf	3,5	;RP0=0, select bank0
  1716  0118  1303               	bcf	3,6	;RP1=0, select bank0
  1717  0119  0097               	movwf	23	;volatile
  1718  011A                     i1l2575:
  1719                           
  1720                           ;master_main_dar-alv.c: 119:                 _delay((unsigned long)((50)*(500000/4000.0)
      +                          ));
  1721  011A  3009               	movlw	9
  1722  011B  1683               	bsf	3,5	;RP0=1, select bank1
  1723  011C  1303               	bcf	3,6	;RP1=0, select bank1
  1724  011D  00AC               	movwf	(??_isr^(0+128)+1)
  1725  011E  301B               	movlw	27
  1726  011F  00AB               	movwf	??_isr^(0+128)
  1727  0120                     u352_27:
  1728  0120  0BAB               	decfsz	??_isr^(0+128),f
  1729  0121  2920               	goto	u352_27
  1730  0122  0BAC               	decfsz	(??_isr^(0+128)+1),f
  1731  0123  2920               	goto	u352_27
  1732  0124  2925               	nop2
  1733  0125                     i1l2577:
  1734                           
  1735                           ;master_main_dar-alv.c: 120:                 pot2_in = EEPROM_read(0x01);
  1736  0125  3001               	movlw	1
  1737  0126  120A  158A  2033  120A  118A  	fcall	_EEPROM_read
  1738  012B  1683               	bsf	3,5	;RP0=1, select bank1
  1739  012C  1303               	bcf	3,6	;RP1=0, select bank1
  1740  012D  00AB               	movwf	??_isr^(0+128)
  1741  012E  082B               	movf	??_isr^(0+128),w
  1742  012F  00B9               	movwf	_pot2_in^(0+128)
  1743  0130                     i1l2579:
  1744                           
  1745                           ;master_main_dar-alv.c: 121:                 _delay((unsigned long)((50)*(500000/4000.0)
      +                          ));
  1746  0130  3009               	movlw	9
  1747  0131  1683               	bsf	3,5	;RP0=1, select bank1
  1748  0132  1303               	bcf	3,6	;RP1=0, select bank1
  1749  0133  00AC               	movwf	(??_isr^(0+128)+1)
  1750  0134  301B               	movlw	27
  1751  0135  00AB               	movwf	??_isr^(0+128)
  1752  0136                     u353_27:
  1753  0136  0BAB               	decfsz	??_isr^(0+128),f
  1754  0137  2936               	goto	u353_27
  1755  0138  0BAC               	decfsz	(??_isr^(0+128)+1),f
  1756  0139  2936               	goto	u353_27
  1757  013A  293B               	nop2
  1758                           
  1759                           ;master_main_dar-alv.c: 122:                 CCPRx = map(pot2_in, 0, 255, 13, 80);
  1760  013B  1683               	bsf	3,5	;RP0=1, select bank1
  1761  013C  1303               	bcf	3,6	;RP1=0, select bank1
  1762  013D  01A5               	clrf	map@x0^(0+128)
  1763  013E  30FF               	movlw	255
  1764  013F  00AB               	movwf	??_isr^(0+128)
  1765  0140  082B               	movf	??_isr^(0+128),w
  1766  0141  00A6               	movwf	map@x1^(0+128)
  1767  0142  300D               	movlw	13
  1768  0143  00A7               	movwf	map@y0^(0+128)
  1769  0144  3000               	movlw	0
  1770  0145  00A8               	movwf	(map@y0^(0+128)+1)
  1771  0146  3050               	movlw	80
  1772  0147  00A9               	movwf	map@y1^(0+128)
  1773  0148  3000               	movlw	0
  1774  0149  00AA               	movwf	(map@y1^(0+128)+1)
  1775  014A  0839               	movf	_pot2_in^(0+128),w
  1776  014B  120A  158A  216D  120A  118A  	fcall	_map
  1777  0150  1683               	bsf	3,5	;RP0=1, select bank1
  1778  0151  1303               	bcf	3,6	;RP1=0, select bank1
  1779  0152  0826               	movf	(?_map+1)^(0+128),w
  1780  0153  00B4               	movwf	(_CCPRx+1)^(0+128)
  1781  0154  0825               	movf	?_map^(0+128),w
  1782  0155  00B3               	movwf	_CCPRx^(0+128)
  1783  0156                     i1l2581:
  1784                           
  1785                           ;master_main_dar-alv.c: 123:                 CCPR2L = (uint8_t)(CCPRx>>2);
  1786  0156  0834               	movf	(_CCPRx+1)^(0+128),w
  1787  0157  00AC               	movwf	(??_isr^(0+128)+1)
  1788  0158  0833               	movf	_CCPRx^(0+128),w
  1789  0159  00AB               	movwf	??_isr^(0+128)
  1790  015A  1003               	clrc
  1791  015B  0CAC               	rrf	(??_isr^(0+128)+1),f
  1792  015C  0CAB               	rrf	??_isr^(0+128),f
  1793  015D  1003               	clrc
  1794  015E  0CAC               	rrf	(??_isr^(0+128)+1),f
  1795  015F  0CAB               	rrf	??_isr^(0+128),f
  1796  0160  082B               	movf	??_isr^(0+128),w
  1797  0161  1283               	bcf	3,5	;RP0=0, select bank0
  1798  0162  1303               	bcf	3,6	;RP1=0, select bank0
  1799  0163  009B               	movwf	27	;volatile
  1800  0164                     i1l2583:
  1801                           
  1802                           ;master_main_dar-alv.c: 124:                 CCP2CONbits.DC2B0 = CCPRx & 0b01;
  1803  0164  1683               	bsf	3,5	;RP0=1, select bank1
  1804  0165  1303               	bcf	3,6	;RP1=0, select bank1
  1805  0166  0833               	movf	_CCPRx^(0+128),w
  1806  0167  3901               	andlw	1
  1807  0168  00AB               	movwf	??_isr^(0+128)
  1808  0169  0EAB               	swapf	??_isr^(0+128),f
  1809  016A  1283               	bcf	3,5	;RP0=0, select bank0
  1810  016B  1303               	bcf	3,6	;RP1=0, select bank0
  1811  016C  081D               	movf	29,w	;volatile
  1812  016D  1683               	bsf	3,5	;RP0=1, select bank1
  1813  016E  1303               	bcf	3,6	;RP1=0, select bank1
  1814  016F  062B               	xorwf	??_isr^(0+128),w
  1815  0170  39EF               	andlw	-17
  1816  0171  062B               	xorwf	??_isr^(0+128),w
  1817  0172  1283               	bcf	3,5	;RP0=0, select bank0
  1818  0173  1303               	bcf	3,6	;RP1=0, select bank0
  1819  0174  009D               	movwf	29	;volatile
  1820  0175                     i1l2585:
  1821                           
  1822                           ;master_main_dar-alv.c: 125:                 CCP2CONbits.DC2B1 = CCPRx & 0b10;
  1823  0175  1683               	bsf	3,5	;RP0=1, select bank1
  1824  0176  1303               	bcf	3,6	;RP1=0, select bank1
  1825  0177  0833               	movf	_CCPRx^(0+128),w
  1826  0178  3902               	andlw	2
  1827  0179  00AB               	movwf	??_isr^(0+128)
  1828  017A  0EAB               	swapf	??_isr^(0+128),f
  1829  017B  0DAB               	rlf	??_isr^(0+128),f
  1830  017C  1283               	bcf	3,5	;RP0=0, select bank0
  1831  017D  1303               	bcf	3,6	;RP1=0, select bank0
  1832  017E  081D               	movf	29,w	;volatile
  1833  017F  1683               	bsf	3,5	;RP0=1, select bank1
  1834  0180  1303               	bcf	3,6	;RP1=0, select bank1
  1835  0181  062B               	xorwf	??_isr^(0+128),w
  1836  0182  39DF               	andlw	-33
  1837  0183  062B               	xorwf	??_isr^(0+128),w
  1838  0184  1283               	bcf	3,5	;RP0=0, select bank0
  1839  0185  1303               	bcf	3,6	;RP1=0, select bank0
  1840  0186  009D               	movwf	29	;volatile
  1841  0187                     i1l2587:
  1842                           
  1843                           ;master_main_dar-alv.c: 126:                 _delay((unsigned long)((50)*(500000/4000.0)
      +                          ));
  1844  0187  3009               	movlw	9
  1845  0188  1683               	bsf	3,5	;RP0=1, select bank1
  1846  0189  1303               	bcf	3,6	;RP1=0, select bank1
  1847  018A  00AC               	movwf	(??_isr^(0+128)+1)
  1848  018B  301B               	movlw	27
  1849  018C  00AB               	movwf	??_isr^(0+128)
  1850  018D                     u354_27:
  1851  018D  0BAB               	decfsz	??_isr^(0+128),f
  1852  018E  298D               	goto	u354_27
  1853  018F  0BAC               	decfsz	(??_isr^(0+128)+1),f
  1854  0190  298D               	goto	u354_27
  1855  0191  2992               	nop2
  1856  0192                     i1l2589:
  1857                           
  1858                           ;master_main_dar-alv.c: 127:                 pot3_in = EEPROM_read(0x02);
  1859  0192  3002               	movlw	2
  1860  0193  120A  158A  2033  120A  118A  	fcall	_EEPROM_read
  1861  0198  1683               	bsf	3,5	;RP0=1, select bank1
  1862  0199  1303               	bcf	3,6	;RP1=0, select bank1
  1863  019A  00AB               	movwf	??_isr^(0+128)
  1864  019B  082B               	movf	??_isr^(0+128),w
  1865  019C  00B8               	movwf	_pot3_in^(0+128)
  1866  019D                     i1l2591:
  1867                           
  1868                           ;master_main_dar-alv.c: 128:                 PORTDbits.RD1 = 0;
  1869  019D  1283               	bcf	3,5	;RP0=0, select bank0
  1870  019E  1303               	bcf	3,6	;RP1=0, select bank0
  1871  019F  1088               	bcf	8,1	;volatile
  1872  01A0                     i1l2593:
  1873                           
  1874                           ;master_main_dar-alv.c: 129:                 _delay((unsigned long)((50)*(500000/4000.0)
      +                          ));
  1875  01A0  3009               	movlw	9
  1876  01A1  1683               	bsf	3,5	;RP0=1, select bank1
  1877  01A2  1303               	bcf	3,6	;RP1=0, select bank1
  1878  01A3  00AC               	movwf	(??_isr^(0+128)+1)
  1879  01A4  301B               	movlw	27
  1880  01A5  00AB               	movwf	??_isr^(0+128)
  1881  01A6                     u355_27:
  1882  01A6  0BAB               	decfsz	??_isr^(0+128),f
  1883  01A7  29A6               	goto	u355_27
  1884  01A8  0BAC               	decfsz	(??_isr^(0+128)+1),f
  1885  01A9  29A6               	goto	u355_27
  1886  01AA  29AB               	nop2
  1887  01AB                     i1l2595:
  1888                           
  1889                           ;master_main_dar-alv.c: 130:                 PORTDbits.RD0 = 1;
  1890  01AB  1283               	bcf	3,5	;RP0=0, select bank0
  1891  01AC  1303               	bcf	3,6	;RP1=0, select bank0
  1892  01AD  1408               	bsf	8,0	;volatile
  1893  01AE                     i1l2597:
  1894                           
  1895                           ;master_main_dar-alv.c: 131:                 _delay((unsigned long)((50)*(500000/4000.0)
      +                          ));
  1896  01AE  3009               	movlw	9
  1897  01AF  1683               	bsf	3,5	;RP0=1, select bank1
  1898  01B0  1303               	bcf	3,6	;RP1=0, select bank1
  1899  01B1  00AC               	movwf	(??_isr^(0+128)+1)
  1900  01B2  301B               	movlw	27
  1901  01B3  00AB               	movwf	??_isr^(0+128)
  1902  01B4                     u356_27:
  1903  01B4  0BAB               	decfsz	??_isr^(0+128),f
  1904  01B5  29B4               	goto	u356_27
  1905  01B6  0BAC               	decfsz	(??_isr^(0+128)+1),f
  1906  01B7  29B4               	goto	u356_27
  1907  01B8  29B9               	nop2
  1908  01B9                     i1l2599:
  1909                           
  1910                           ;master_main_dar-alv.c: 132:                 SSPBUF = pot3_in;
  1911  01B9  1683               	bsf	3,5	;RP0=1, select bank1
  1912  01BA  1303               	bcf	3,6	;RP1=0, select bank1
  1913  01BB  0838               	movf	_pot3_in^(0+128),w
  1914  01BC  1283               	bcf	3,5	;RP0=0, select bank0
  1915  01BD  1303               	bcf	3,6	;RP1=0, select bank0
  1916  01BE  0093               	movwf	19	;volatile
  1917  01BF                     i1l141:	
  1918                           ;master_main_dar-alv.c: 133:                 while(!SSPSTATbits.BF);
  1919                           
  1920  01BF  1683               	bsf	3,5	;RP0=1, select bank1
  1921  01C0  1303               	bcf	3,6	;RP1=0, select bank1
  1922  01C1  1C14               	btfss	20,0	;volatile
  1923  01C2  29C4               	goto	u325_21
  1924  01C3  29C5               	goto	u325_20
  1925  01C4                     u325_21:
  1926  01C4  29BF               	goto	i1l141
  1927  01C5                     u325_20:
  1928  01C5                     i1l2601:
  1929                           
  1930                           ;master_main_dar-alv.c: 134:                 _delay((unsigned long)((50)*(500000/4000.0)
      +                          ));
  1931  01C5  3009               	movlw	9
  1932  01C6  1683               	bsf	3,5	;RP0=1, select bank1
  1933  01C7  1303               	bcf	3,6	;RP1=0, select bank1
  1934  01C8  00AC               	movwf	(??_isr^(0+128)+1)
  1935  01C9  301B               	movlw	27
  1936  01CA  00AB               	movwf	??_isr^(0+128)
  1937  01CB                     u357_27:
  1938  01CB  0BAB               	decfsz	??_isr^(0+128),f
  1939  01CC  29CB               	goto	u357_27
  1940  01CD  0BAC               	decfsz	(??_isr^(0+128)+1),f
  1941  01CE  29CB               	goto	u357_27
  1942  01CF  29D0               	nop2
  1943  01D0                     i1l2603:
  1944                           
  1945                           ;master_main_dar-alv.c: 135:                 pot4_in = EEPROM_read(0x03);
  1946  01D0  3003               	movlw	3
  1947  01D1  120A  158A  2033  120A  118A  	fcall	_EEPROM_read
  1948  01D6  1683               	bsf	3,5	;RP0=1, select bank1
  1949  01D7  1303               	bcf	3,6	;RP1=0, select bank1
  1950  01D8  00AB               	movwf	??_isr^(0+128)
  1951  01D9  082B               	movf	??_isr^(0+128),w
  1952  01DA  00B7               	movwf	_pot4_in^(0+128)
  1953  01DB                     i1l2605:
  1954                           
  1955                           ;master_main_dar-alv.c: 136:                 PORTDbits.RD1 = 1;
  1956  01DB  1283               	bcf	3,5	;RP0=0, select bank0
  1957  01DC  1303               	bcf	3,6	;RP1=0, select bank0
  1958  01DD  1488               	bsf	8,1	;volatile
  1959  01DE                     i1l2607:
  1960                           
  1961                           ;master_main_dar-alv.c: 137:                 _delay((unsigned long)((50)*(500000/4000.0)
      +                          ));
  1962  01DE  3009               	movlw	9
  1963  01DF  1683               	bsf	3,5	;RP0=1, select bank1
  1964  01E0  1303               	bcf	3,6	;RP1=0, select bank1
  1965  01E1  00AC               	movwf	(??_isr^(0+128)+1)
  1966  01E2  301B               	movlw	27
  1967  01E3  00AB               	movwf	??_isr^(0+128)
  1968  01E4                     u358_27:
  1969  01E4  0BAB               	decfsz	??_isr^(0+128),f
  1970  01E5  29E4               	goto	u358_27
  1971  01E6  0BAC               	decfsz	(??_isr^(0+128)+1),f
  1972  01E7  29E4               	goto	u358_27
  1973  01E8  29E9               	nop2
  1974  01E9                     i1l2609:
  1975                           
  1976                           ;master_main_dar-alv.c: 138:                 PORTDbits.RD0 = 0;
  1977  01E9  1283               	bcf	3,5	;RP0=0, select bank0
  1978  01EA  1303               	bcf	3,6	;RP1=0, select bank0
  1979  01EB  1008               	bcf	8,0	;volatile
  1980  01EC                     i1l2611:
  1981                           
  1982                           ;master_main_dar-alv.c: 139:                 _delay((unsigned long)((50)*(500000/4000.0)
      +                          ));
  1983  01EC  3009               	movlw	9
  1984  01ED  1683               	bsf	3,5	;RP0=1, select bank1
  1985  01EE  1303               	bcf	3,6	;RP1=0, select bank1
  1986  01EF  00AC               	movwf	(??_isr^(0+128)+1)
  1987  01F0  301B               	movlw	27
  1988  01F1  00AB               	movwf	??_isr^(0+128)
  1989  01F2                     u359_27:
  1990  01F2  0BAB               	decfsz	??_isr^(0+128),f
  1991  01F3  29F2               	goto	u359_27
  1992  01F4  0BAC               	decfsz	(??_isr^(0+128)+1),f
  1993  01F5  29F2               	goto	u359_27
  1994  01F6  29F7               	nop2
  1995  01F7                     i1l2613:
  1996                           
  1997                           ;master_main_dar-alv.c: 140:                 SSPBUF = pot4_in;
  1998  01F7  1683               	bsf	3,5	;RP0=1, select bank1
  1999  01F8  1303               	bcf	3,6	;RP1=0, select bank1
  2000  01F9  0837               	movf	_pot4_in^(0+128),w
  2001  01FA  1283               	bcf	3,5	;RP0=0, select bank0
  2002  01FB  1303               	bcf	3,6	;RP1=0, select bank0
  2003  01FC  0093               	movwf	19	;volatile
  2004  01FD                     i1l144:	
  2005                           ;master_main_dar-alv.c: 141:                 while(!SSPSTATbits.BF);
  2006                           
  2007  01FD  1683               	bsf	3,5	;RP0=1, select bank1
  2008  01FE  1303               	bcf	3,6	;RP1=0, select bank1
  2009  01FF  1C14               	btfss	20,0	;volatile
  2010  0200  2A02               	goto	u326_21
  2011  0201  2A03               	goto	u326_20
  2012  0202                     u326_21:
  2013  0202  29FD               	goto	i1l144
  2014  0203                     u326_20:
  2015  0203  2A11               	goto	i1l2619
  2016  0204                     i1l140:	
  2017                           ;master_main_dar-alv.c: 143:             else if(!PORTBbits.RB2){
  2018                           
  2019  0204  1283               	bcf	3,5	;RP0=0, select bank0
  2020  0205  1303               	bcf	3,6	;RP1=0, select bank0
  2021  0206  1906               	btfsc	6,2	;volatile
  2022  0207  2A09               	goto	u327_21
  2023  0208  2A0A               	goto	u327_20
  2024  0209                     u327_21:
  2025  0209  2A11               	goto	i1l2619
  2026  020A                     u327_20:
  2027  020A                     i1l2615:
  2028                           
  2029                           ;master_main_dar-alv.c: 144:                 E = 0;
  2030  020A  1683               	bsf	3,5	;RP0=1, select bank1
  2031  020B  1303               	bcf	3,6	;RP1=0, select bank1
  2032  020C  01BD               	clrf	_E^(0+128)
  2033  020D                     i1l2617:
  2034                           
  2035                           ;master_main_dar-alv.c: 145:                 F = E;
  2036  020D  083D               	movf	_E^(0+128),w
  2037  020E  00AB               	movwf	??_isr^(0+128)
  2038  020F  082B               	movf	??_isr^(0+128),w
  2039  0210  00BC               	movwf	_F^(0+128)
  2040  0211                     i1l2619:
  2041                           
  2042                           ;master_main_dar-alv.c: 147:             if (F != E){
  2043  0211  1683               	bsf	3,5	;RP0=1, select bank1
  2044  0212  1303               	bcf	3,6	;RP1=0, select bank1
  2045  0213  083C               	movf	_F^(0+128),w
  2046  0214  063D               	xorwf	_E^(0+128),w
  2047  0215  1903               	skipnz
  2048  0216  2A18               	goto	u328_21
  2049  0217  2A19               	goto	u328_20
  2050  0218                     u328_21:
  2051  0218  2B6C               	goto	i1l137
  2052  0219                     u328_20:
  2053  0219                     i1l2621:
  2054                           
  2055                           ;master_main_dar-alv.c: 148:                 F = E;
  2056  0219  083D               	movf	_E^(0+128),w
  2057  021A  00AB               	movwf	??_isr^(0+128)
  2058  021B  082B               	movf	??_isr^(0+128),w
  2059  021C  00BC               	movwf	_F^(0+128)
  2060  021D                     i1l2623:
  2061                           
  2062                           ;master_main_dar-alv.c: 149:                 pot1_in = EEPROM_read(0x04);
  2063  021D  3004               	movlw	4
  2064  021E  120A  158A  2033  120A  118A  	fcall	_EEPROM_read
  2065  0223  1683               	bsf	3,5	;RP0=1, select bank1
  2066  0224  1303               	bcf	3,6	;RP1=0, select bank1
  2067  0225  00AB               	movwf	??_isr^(0+128)
  2068  0226  082B               	movf	??_isr^(0+128),w
  2069  0227  00BA               	movwf	_pot1_in^(0+128)
  2070  0228                     i1l2625:
  2071                           
  2072                           ;master_main_dar-alv.c: 150:                 _delay((unsigned long)((250)*(500000/4000.0
      +                          )));
  2073  0228  3029               	movlw	41
  2074  0229  1683               	bsf	3,5	;RP0=1, select bank1
  2075  022A  1303               	bcf	3,6	;RP1=0, select bank1
  2076  022B  00AC               	movwf	(??_isr^(0+128)+1)
  2077  022C  3093               	movlw	147
  2078  022D  00AB               	movwf	??_isr^(0+128)
  2079  022E                     u360_27:
  2080  022E  0BAB               	decfsz	??_isr^(0+128),f
  2081  022F  2A2E               	goto	u360_27
  2082  0230  0BAC               	decfsz	(??_isr^(0+128)+1),f
  2083  0231  2A2E               	goto	u360_27
  2084  0232  2A33               	nop2
  2085  0233                     i1l2627:
  2086                           
  2087                           ;master_main_dar-alv.c: 151:                 CCPR = map(pot1_in, 0, 255, 13, 80);
  2088  0233  1683               	bsf	3,5	;RP0=1, select bank1
  2089  0234  1303               	bcf	3,6	;RP1=0, select bank1
  2090  0235  01A5               	clrf	map@x0^(0+128)
  2091  0236  30FF               	movlw	255
  2092  0237  00AB               	movwf	??_isr^(0+128)
  2093  0238  082B               	movf	??_isr^(0+128),w
  2094  0239  00A6               	movwf	map@x1^(0+128)
  2095  023A  300D               	movlw	13
  2096  023B  00A7               	movwf	map@y0^(0+128)
  2097  023C  3000               	movlw	0
  2098  023D  00A8               	movwf	(map@y0^(0+128)+1)
  2099  023E  3050               	movlw	80
  2100  023F  00A9               	movwf	map@y1^(0+128)
  2101  0240  3000               	movlw	0
  2102  0241  00AA               	movwf	(map@y1^(0+128)+1)
  2103  0242  083A               	movf	_pot1_in^(0+128),w
  2104  0243  120A  158A  216D  120A  118A  	fcall	_map
  2105  0248  1683               	bsf	3,5	;RP0=1, select bank1
  2106  0249  1303               	bcf	3,6	;RP1=0, select bank1
  2107  024A  0826               	movf	(?_map+1)^(0+128),w
  2108  024B  00B6               	movwf	(_CCPR+1)^(0+128)
  2109  024C  0825               	movf	?_map^(0+128),w
  2110  024D  00B5               	movwf	_CCPR^(0+128)
  2111  024E                     i1l2629:
  2112                           
  2113                           ;master_main_dar-alv.c: 152:                 CCPR1L = (uint8_t)(CCPR>>2);
  2114  024E  0836               	movf	(_CCPR+1)^(0+128),w
  2115  024F  00AC               	movwf	(??_isr^(0+128)+1)
  2116  0250  0835               	movf	_CCPR^(0+128),w
  2117  0251  00AB               	movwf	??_isr^(0+128)
  2118  0252  1003               	clrc
  2119  0253  0CAC               	rrf	(??_isr^(0+128)+1),f
  2120  0254  0CAB               	rrf	??_isr^(0+128),f
  2121  0255  1003               	clrc
  2122  0256  0CAC               	rrf	(??_isr^(0+128)+1),f
  2123  0257  0CAB               	rrf	??_isr^(0+128),f
  2124  0258  082B               	movf	??_isr^(0+128),w
  2125  0259  1283               	bcf	3,5	;RP0=0, select bank0
  2126  025A  1303               	bcf	3,6	;RP1=0, select bank0
  2127  025B  0095               	movwf	21	;volatile
  2128  025C                     i1l2631:
  2129                           
  2130                           ;master_main_dar-alv.c: 153:                 CCP1CONbits.DC1B = CCPR & 0b11;
  2131  025C  1683               	bsf	3,5	;RP0=1, select bank1
  2132  025D  1303               	bcf	3,6	;RP1=0, select bank1
  2133  025E  0835               	movf	_CCPR^(0+128),w
  2134  025F  3903               	andlw	3
  2135  0260  00AB               	movwf	??_isr^(0+128)
  2136  0261  0EAB               	swapf	??_isr^(0+128),f
  2137  0262  1283               	bcf	3,5	;RP0=0, select bank0
  2138  0263  1303               	bcf	3,6	;RP1=0, select bank0
  2139  0264  0817               	movf	23,w	;volatile
  2140  0265  1683               	bsf	3,5	;RP0=1, select bank1
  2141  0266  1303               	bcf	3,6	;RP1=0, select bank1
  2142  0267  062B               	xorwf	??_isr^(0+128),w
  2143  0268  39CF               	andlw	-49
  2144  0269  062B               	xorwf	??_isr^(0+128),w
  2145  026A  1283               	bcf	3,5	;RP0=0, select bank0
  2146  026B  1303               	bcf	3,6	;RP1=0, select bank0
  2147  026C  0097               	movwf	23	;volatile
  2148  026D                     i1l2633:
  2149                           
  2150                           ;master_main_dar-alv.c: 154:                 _delay((unsigned long)((50)*(500000/4000.0)
      +                          ));
  2151  026D  3009               	movlw	9
  2152  026E  1683               	bsf	3,5	;RP0=1, select bank1
  2153  026F  1303               	bcf	3,6	;RP1=0, select bank1
  2154  0270  00AC               	movwf	(??_isr^(0+128)+1)
  2155  0271  301B               	movlw	27
  2156  0272  00AB               	movwf	??_isr^(0+128)
  2157  0273                     u361_27:
  2158  0273  0BAB               	decfsz	??_isr^(0+128),f
  2159  0274  2A73               	goto	u361_27
  2160  0275  0BAC               	decfsz	(??_isr^(0+128)+1),f
  2161  0276  2A73               	goto	u361_27
  2162  0277  2A78               	nop2
  2163  0278                     i1l2635:
  2164                           
  2165                           ;master_main_dar-alv.c: 155:                 pot2_in = EEPROM_read(0x05);
  2166  0278  3005               	movlw	5
  2167  0279  120A  158A  2033  120A  118A  	fcall	_EEPROM_read
  2168  027E  1683               	bsf	3,5	;RP0=1, select bank1
  2169  027F  1303               	bcf	3,6	;RP1=0, select bank1
  2170  0280  00AB               	movwf	??_isr^(0+128)
  2171  0281  082B               	movf	??_isr^(0+128),w
  2172  0282  00B9               	movwf	_pot2_in^(0+128)
  2173  0283                     i1l2637:
  2174                           
  2175                           ;master_main_dar-alv.c: 156:                 _delay((unsigned long)((250)*(500000/4000.0
      +                          )));
  2176  0283  3029               	movlw	41
  2177  0284  1683               	bsf	3,5	;RP0=1, select bank1
  2178  0285  1303               	bcf	3,6	;RP1=0, select bank1
  2179  0286  00AC               	movwf	(??_isr^(0+128)+1)
  2180  0287  3093               	movlw	147
  2181  0288  00AB               	movwf	??_isr^(0+128)
  2182  0289                     u362_27:
  2183  0289  0BAB               	decfsz	??_isr^(0+128),f
  2184  028A  2A89               	goto	u362_27
  2185  028B  0BAC               	decfsz	(??_isr^(0+128)+1),f
  2186  028C  2A89               	goto	u362_27
  2187  028D  2A8E               	nop2
  2188                           
  2189                           ;master_main_dar-alv.c: 157:                 CCPRx = map(pot2_in, 0, 255, 13, 80);
  2190  028E  1683               	bsf	3,5	;RP0=1, select bank1
  2191  028F  1303               	bcf	3,6	;RP1=0, select bank1
  2192  0290  01A5               	clrf	map@x0^(0+128)
  2193  0291  30FF               	movlw	255
  2194  0292  00AB               	movwf	??_isr^(0+128)
  2195  0293  082B               	movf	??_isr^(0+128),w
  2196  0294  00A6               	movwf	map@x1^(0+128)
  2197  0295  300D               	movlw	13
  2198  0296  00A7               	movwf	map@y0^(0+128)
  2199  0297  3000               	movlw	0
  2200  0298  00A8               	movwf	(map@y0^(0+128)+1)
  2201  0299  3050               	movlw	80
  2202  029A  00A9               	movwf	map@y1^(0+128)
  2203  029B  3000               	movlw	0
  2204  029C  00AA               	movwf	(map@y1^(0+128)+1)
  2205  029D  0839               	movf	_pot2_in^(0+128),w
  2206  029E  120A  158A  216D  120A  118A  	fcall	_map
  2207  02A3  1683               	bsf	3,5	;RP0=1, select bank1
  2208  02A4  1303               	bcf	3,6	;RP1=0, select bank1
  2209  02A5  0826               	movf	(?_map+1)^(0+128),w
  2210  02A6  00B4               	movwf	(_CCPRx+1)^(0+128)
  2211  02A7  0825               	movf	?_map^(0+128),w
  2212  02A8  00B3               	movwf	_CCPRx^(0+128)
  2213  02A9                     i1l2639:
  2214                           
  2215                           ;master_main_dar-alv.c: 158:                 CCPR2L = (uint8_t)(CCPRx>>2);
  2216  02A9  0834               	movf	(_CCPRx+1)^(0+128),w
  2217  02AA  00AC               	movwf	(??_isr^(0+128)+1)
  2218  02AB  0833               	movf	_CCPRx^(0+128),w
  2219  02AC  00AB               	movwf	??_isr^(0+128)
  2220  02AD  1003               	clrc
  2221  02AE  0CAC               	rrf	(??_isr^(0+128)+1),f
  2222  02AF  0CAB               	rrf	??_isr^(0+128),f
  2223  02B0  1003               	clrc
  2224  02B1  0CAC               	rrf	(??_isr^(0+128)+1),f
  2225  02B2  0CAB               	rrf	??_isr^(0+128),f
  2226  02B3  082B               	movf	??_isr^(0+128),w
  2227  02B4  1283               	bcf	3,5	;RP0=0, select bank0
  2228  02B5  1303               	bcf	3,6	;RP1=0, select bank0
  2229  02B6  009B               	movwf	27	;volatile
  2230  02B7                     i1l2641:
  2231                           
  2232                           ;master_main_dar-alv.c: 159:                 CCP2CONbits.DC2B0 = CCPRx & 0b01;
  2233  02B7  1683               	bsf	3,5	;RP0=1, select bank1
  2234  02B8  1303               	bcf	3,6	;RP1=0, select bank1
  2235  02B9  0833               	movf	_CCPRx^(0+128),w
  2236  02BA  3901               	andlw	1
  2237  02BB  00AB               	movwf	??_isr^(0+128)
  2238  02BC  0EAB               	swapf	??_isr^(0+128),f
  2239  02BD  1283               	bcf	3,5	;RP0=0, select bank0
  2240  02BE  1303               	bcf	3,6	;RP1=0, select bank0
  2241  02BF  081D               	movf	29,w	;volatile
  2242  02C0  1683               	bsf	3,5	;RP0=1, select bank1
  2243  02C1  1303               	bcf	3,6	;RP1=0, select bank1
  2244  02C2  062B               	xorwf	??_isr^(0+128),w
  2245  02C3  39EF               	andlw	-17
  2246  02C4  062B               	xorwf	??_isr^(0+128),w
  2247  02C5  1283               	bcf	3,5	;RP0=0, select bank0
  2248  02C6  1303               	bcf	3,6	;RP1=0, select bank0
  2249  02C7  009D               	movwf	29	;volatile
  2250  02C8                     i1l2643:
  2251                           
  2252                           ;master_main_dar-alv.c: 160:                 CCP2CONbits.DC2B1 = CCPRx & 0b10;
  2253  02C8  1683               	bsf	3,5	;RP0=1, select bank1
  2254  02C9  1303               	bcf	3,6	;RP1=0, select bank1
  2255  02CA  0833               	movf	_CCPRx^(0+128),w
  2256  02CB  3902               	andlw	2
  2257  02CC  00AB               	movwf	??_isr^(0+128)
  2258  02CD  0EAB               	swapf	??_isr^(0+128),f
  2259  02CE  0DAB               	rlf	??_isr^(0+128),f
  2260  02CF  1283               	bcf	3,5	;RP0=0, select bank0
  2261  02D0  1303               	bcf	3,6	;RP1=0, select bank0
  2262  02D1  081D               	movf	29,w	;volatile
  2263  02D2  1683               	bsf	3,5	;RP0=1, select bank1
  2264  02D3  1303               	bcf	3,6	;RP1=0, select bank1
  2265  02D4  062B               	xorwf	??_isr^(0+128),w
  2266  02D5  39DF               	andlw	-33
  2267  02D6  062B               	xorwf	??_isr^(0+128),w
  2268  02D7  1283               	bcf	3,5	;RP0=0, select bank0
  2269  02D8  1303               	bcf	3,6	;RP1=0, select bank0
  2270  02D9  009D               	movwf	29	;volatile
  2271  02DA                     i1l2645:
  2272                           
  2273                           ;master_main_dar-alv.c: 161:                 _delay((unsigned long)((50)*(500000/4000.0)
      +                          ));
  2274  02DA  3009               	movlw	9
  2275  02DB  1683               	bsf	3,5	;RP0=1, select bank1
  2276  02DC  1303               	bcf	3,6	;RP1=0, select bank1
  2277  02DD  00AC               	movwf	(??_isr^(0+128)+1)
  2278  02DE  301B               	movlw	27
  2279  02DF  00AB               	movwf	??_isr^(0+128)
  2280  02E0                     u363_27:
  2281  02E0  0BAB               	decfsz	??_isr^(0+128),f
  2282  02E1  2AE0               	goto	u363_27
  2283  02E2  0BAC               	decfsz	(??_isr^(0+128)+1),f
  2284  02E3  2AE0               	goto	u363_27
  2285  02E4  2AE5               	nop2
  2286  02E5                     i1l2647:
  2287                           
  2288                           ;master_main_dar-alv.c: 162:                 pot3_in = EEPROM_read(0x06);
  2289  02E5  3006               	movlw	6
  2290  02E6  120A  158A  2033  120A  118A  	fcall	_EEPROM_read
  2291  02EB  1683               	bsf	3,5	;RP0=1, select bank1
  2292  02EC  1303               	bcf	3,6	;RP1=0, select bank1
  2293  02ED  00AB               	movwf	??_isr^(0+128)
  2294  02EE  082B               	movf	??_isr^(0+128),w
  2295  02EF  00B8               	movwf	_pot3_in^(0+128)
  2296  02F0                     i1l2649:
  2297                           
  2298                           ;master_main_dar-alv.c: 163:                 _delay((unsigned long)((250)*(500000/4000.0
      +                          )));
  2299  02F0  3029               	movlw	41
  2300  02F1  1683               	bsf	3,5	;RP0=1, select bank1
  2301  02F2  1303               	bcf	3,6	;RP1=0, select bank1
  2302  02F3  00AC               	movwf	(??_isr^(0+128)+1)
  2303  02F4  3093               	movlw	147
  2304  02F5  00AB               	movwf	??_isr^(0+128)
  2305  02F6                     u364_27:
  2306  02F6  0BAB               	decfsz	??_isr^(0+128),f
  2307  02F7  2AF6               	goto	u364_27
  2308  02F8  0BAC               	decfsz	(??_isr^(0+128)+1),f
  2309  02F9  2AF6               	goto	u364_27
  2310  02FA  2AFB               	nop2
  2311  02FB                     i1l2651:
  2312                           
  2313                           ;master_main_dar-alv.c: 164:                 PORTDbits.RD1 = 0;
  2314  02FB  1283               	bcf	3,5	;RP0=0, select bank0
  2315  02FC  1303               	bcf	3,6	;RP1=0, select bank0
  2316  02FD  1088               	bcf	8,1	;volatile
  2317  02FE                     i1l2653:
  2318                           
  2319                           ;master_main_dar-alv.c: 165:                 _delay((unsigned long)((50)*(500000/4000.0)
      +                          ));
  2320  02FE  3009               	movlw	9
  2321  02FF  1683               	bsf	3,5	;RP0=1, select bank1
  2322  0300  1303               	bcf	3,6	;RP1=0, select bank1
  2323  0301  00AC               	movwf	(??_isr^(0+128)+1)
  2324  0302  301B               	movlw	27
  2325  0303  00AB               	movwf	??_isr^(0+128)
  2326  0304                     u365_27:
  2327  0304  0BAB               	decfsz	??_isr^(0+128),f
  2328  0305  2B04               	goto	u365_27
  2329  0306  0BAC               	decfsz	(??_isr^(0+128)+1),f
  2330  0307  2B04               	goto	u365_27
  2331  0308  2B09               	nop2
  2332  0309                     i1l2655:
  2333                           
  2334                           ;master_main_dar-alv.c: 166:                 PORTDbits.RD0 = 1;
  2335  0309  1283               	bcf	3,5	;RP0=0, select bank0
  2336  030A  1303               	bcf	3,6	;RP1=0, select bank0
  2337  030B  1408               	bsf	8,0	;volatile
  2338  030C                     i1l2657:
  2339                           
  2340                           ;master_main_dar-alv.c: 167:                 _delay((unsigned long)((50)*(500000/4000.0)
      +                          ));
  2341  030C  3009               	movlw	9
  2342  030D  1683               	bsf	3,5	;RP0=1, select bank1
  2343  030E  1303               	bcf	3,6	;RP1=0, select bank1
  2344  030F  00AC               	movwf	(??_isr^(0+128)+1)
  2345  0310  301B               	movlw	27
  2346  0311  00AB               	movwf	??_isr^(0+128)
  2347  0312                     u366_27:
  2348  0312  0BAB               	decfsz	??_isr^(0+128),f
  2349  0313  2B12               	goto	u366_27
  2350  0314  0BAC               	decfsz	(??_isr^(0+128)+1),f
  2351  0315  2B12               	goto	u366_27
  2352  0316  2B17               	nop2
  2353  0317                     i1l2659:
  2354                           
  2355                           ;master_main_dar-alv.c: 168:                 SSPBUF = pot3_in;
  2356  0317  1683               	bsf	3,5	;RP0=1, select bank1
  2357  0318  1303               	bcf	3,6	;RP1=0, select bank1
  2358  0319  0838               	movf	_pot3_in^(0+128),w
  2359  031A  1283               	bcf	3,5	;RP0=0, select bank0
  2360  031B  1303               	bcf	3,6	;RP1=0, select bank0
  2361  031C  0093               	movwf	19	;volatile
  2362  031D                     i1l150:	
  2363                           ;master_main_dar-alv.c: 169:                 while(!SSPSTATbits.BF);
  2364                           
  2365  031D  1683               	bsf	3,5	;RP0=1, select bank1
  2366  031E  1303               	bcf	3,6	;RP1=0, select bank1
  2367  031F  1C14               	btfss	20,0	;volatile
  2368  0320  2B22               	goto	u329_21
  2369  0321  2B23               	goto	u329_20
  2370  0322                     u329_21:
  2371  0322  2B1D               	goto	i1l150
  2372  0323                     u329_20:
  2373  0323                     i1l2661:
  2374                           
  2375                           ;master_main_dar-alv.c: 170:                 _delay((unsigned long)((250)*(500000/4000.0
      +                          )));
  2376  0323  3029               	movlw	41
  2377  0324  1683               	bsf	3,5	;RP0=1, select bank1
  2378  0325  1303               	bcf	3,6	;RP1=0, select bank1
  2379  0326  00AC               	movwf	(??_isr^(0+128)+1)
  2380  0327  3093               	movlw	147
  2381  0328  00AB               	movwf	??_isr^(0+128)
  2382  0329                     u367_27:
  2383  0329  0BAB               	decfsz	??_isr^(0+128),f
  2384  032A  2B29               	goto	u367_27
  2385  032B  0BAC               	decfsz	(??_isr^(0+128)+1),f
  2386  032C  2B29               	goto	u367_27
  2387  032D  2B2E               	nop2
  2388  032E                     i1l2663:
  2389                           
  2390                           ;master_main_dar-alv.c: 171:                 pot4_in = EEPROM_read(0x07);
  2391  032E  3007               	movlw	7
  2392  032F  120A  158A  2033  120A  118A  	fcall	_EEPROM_read
  2393  0334  1683               	bsf	3,5	;RP0=1, select bank1
  2394  0335  1303               	bcf	3,6	;RP1=0, select bank1
  2395  0336  00AB               	movwf	??_isr^(0+128)
  2396  0337  082B               	movf	??_isr^(0+128),w
  2397  0338  00B7               	movwf	_pot4_in^(0+128)
  2398  0339                     i1l2665:
  2399                           
  2400                           ;master_main_dar-alv.c: 172:                 _delay((unsigned long)((250)*(500000/4000.0
      +                          )));
  2401  0339  3029               	movlw	41
  2402  033A  1683               	bsf	3,5	;RP0=1, select bank1
  2403  033B  1303               	bcf	3,6	;RP1=0, select bank1
  2404  033C  00AC               	movwf	(??_isr^(0+128)+1)
  2405  033D  3093               	movlw	147
  2406  033E  00AB               	movwf	??_isr^(0+128)
  2407  033F                     u368_27:
  2408  033F  0BAB               	decfsz	??_isr^(0+128),f
  2409  0340  2B3F               	goto	u368_27
  2410  0341  0BAC               	decfsz	(??_isr^(0+128)+1),f
  2411  0342  2B3F               	goto	u368_27
  2412  0343  2B44               	nop2
  2413  0344                     i1l2667:
  2414                           
  2415                           ;master_main_dar-alv.c: 173:                 PORTDbits.RD1 = 1;
  2416  0344  1283               	bcf	3,5	;RP0=0, select bank0
  2417  0345  1303               	bcf	3,6	;RP1=0, select bank0
  2418  0346  1488               	bsf	8,1	;volatile
  2419  0347                     i1l2669:
  2420                           
  2421                           ;master_main_dar-alv.c: 174:                 _delay((unsigned long)((50)*(500000/4000.0)
      +                          ));
  2422  0347  3009               	movlw	9
  2423  0348  1683               	bsf	3,5	;RP0=1, select bank1
  2424  0349  1303               	bcf	3,6	;RP1=0, select bank1
  2425  034A  00AC               	movwf	(??_isr^(0+128)+1)
  2426  034B  301B               	movlw	27
  2427  034C  00AB               	movwf	??_isr^(0+128)
  2428  034D                     u369_27:
  2429  034D  0BAB               	decfsz	??_isr^(0+128),f
  2430  034E  2B4D               	goto	u369_27
  2431  034F  0BAC               	decfsz	(??_isr^(0+128)+1),f
  2432  0350  2B4D               	goto	u369_27
  2433  0351  2B52               	nop2
  2434  0352                     i1l2671:
  2435                           
  2436                           ;master_main_dar-alv.c: 175:                 PORTDbits.RD0 = 0;
  2437  0352  1283               	bcf	3,5	;RP0=0, select bank0
  2438  0353  1303               	bcf	3,6	;RP1=0, select bank0
  2439  0354  1008               	bcf	8,0	;volatile
  2440  0355                     i1l2673:
  2441                           
  2442                           ;master_main_dar-alv.c: 176:                 _delay((unsigned long)((50)*(500000/4000.0)
      +                          ));
  2443  0355  3009               	movlw	9
  2444  0356  1683               	bsf	3,5	;RP0=1, select bank1
  2445  0357  1303               	bcf	3,6	;RP1=0, select bank1
  2446  0358  00AC               	movwf	(??_isr^(0+128)+1)
  2447  0359  301B               	movlw	27
  2448  035A  00AB               	movwf	??_isr^(0+128)
  2449  035B                     u370_27:
  2450  035B  0BAB               	decfsz	??_isr^(0+128),f
  2451  035C  2B5B               	goto	u370_27
  2452  035D  0BAC               	decfsz	(??_isr^(0+128)+1),f
  2453  035E  2B5B               	goto	u370_27
  2454  035F  2B60               	nop2
  2455  0360                     i1l2675:
  2456                           
  2457                           ;master_main_dar-alv.c: 177:                 SSPBUF = pot4_in;
  2458  0360  1683               	bsf	3,5	;RP0=1, select bank1
  2459  0361  1303               	bcf	3,6	;RP1=0, select bank1
  2460  0362  0837               	movf	_pot4_in^(0+128),w
  2461  0363  1283               	bcf	3,5	;RP0=0, select bank0
  2462  0364  1303               	bcf	3,6	;RP1=0, select bank0
  2463  0365  0093               	movwf	19	;volatile
  2464  0366                     i1l153:	
  2465                           ;master_main_dar-alv.c: 178:                 while(!SSPSTATbits.BF);
  2466                           
  2467  0366  1683               	bsf	3,5	;RP0=1, select bank1
  2468  0367  1303               	bcf	3,6	;RP1=0, select bank1
  2469  0368  1C14               	btfss	20,0	;volatile
  2470  0369  2B6B               	goto	u330_21
  2471  036A  2B6C               	goto	u330_20
  2472  036B                     u330_21:
  2473  036B  2B66               	goto	i1l153
  2474  036C                     u330_20:
  2475  036C                     i1l137:
  2476                           
  2477                           ;master_main_dar-alv.c: 181:         INTCONbits.RBIF = 0;
  2478  036C  100B               	bcf	11,0	;volatile
  2479  036D                     i1l2677:
  2480                           
  2481                           ;master_main_dar-alv.c: 183:     if (estado == 0){
  2482  036D  1683               	bsf	3,5	;RP0=1, select bank1
  2483  036E  1303               	bcf	3,6	;RP1=0, select bank1
  2484  036F  083B               	movf	_estado^(0+128),w
  2485  0370  1D03               	btfss	3,2
  2486  0371  2B73               	goto	u331_21
  2487  0372  2B74               	goto	u331_20
  2488  0373                     u331_21:
  2489  0373  2C54               	goto	i1l165
  2490  0374                     u331_20:
  2491  0374                     i1l2679:
  2492                           
  2493                           ;master_main_dar-alv.c: 184:         if (PIR1bits.ADIF){
  2494  0374  1283               	bcf	3,5	;RP0=0, select bank0
  2495  0375  1303               	bcf	3,6	;RP1=0, select bank0
  2496  0376  1F0C               	btfss	12,6	;volatile
  2497  0377  2B79               	goto	u332_21
  2498  0378  2B7A               	goto	u332_20
  2499  0379                     u332_21:
  2500  0379  2C54               	goto	i1l165
  2501  037A                     u332_20:
  2502  037A                     i1l2681:
  2503                           
  2504                           ;master_main_dar-alv.c: 185:             if (ADCON0bits.CHS == 0){
  2505  037A  0C1F               	rrf	31,w	;volatile
  2506  037B  1683               	bsf	3,5	;RP0=1, select bank1
  2507  037C  1303               	bcf	3,6	;RP1=0, select bank1
  2508  037D  00AB               	movwf	??_isr^(0+128)
  2509  037E  0C2B               	rrf	??_isr^(0+128),w
  2510  037F  390F               	andlw	15
  2511  0380  3A00               	xorlw	0
  2512  0381  1D03               	skipz
  2513  0382  2B84               	goto	u333_21
  2514  0383  2B85               	goto	u333_20
  2515  0384                     u333_21:
  2516  0384  2BC6               	goto	i1l2691
  2517  0385                     u333_20:
  2518  0385                     i1l2683:
  2519                           
  2520                           ;master_main_dar-alv.c: 186:                 pot1_in = ADRESH;
  2521  0385  1283               	bcf	3,5	;RP0=0, select bank0
  2522  0386  1303               	bcf	3,6	;RP1=0, select bank0
  2523  0387  081E               	movf	30,w	;volatile
  2524  0388  1683               	bsf	3,5	;RP0=1, select bank1
  2525  0389  1303               	bcf	3,6	;RP1=0, select bank1
  2526  038A  00AB               	movwf	??_isr^(0+128)
  2527  038B  082B               	movf	??_isr^(0+128),w
  2528  038C  00BA               	movwf	_pot1_in^(0+128)
  2529  038D                     i1l2685:
  2530                           
  2531                           ;master_main_dar-alv.c: 187:                 CCPR = map(pot1_in, 0, 255, 13, 80);
  2532  038D  01A5               	clrf	map@x0^(0+128)
  2533  038E  30FF               	movlw	255
  2534  038F  00AB               	movwf	??_isr^(0+128)
  2535  0390  082B               	movf	??_isr^(0+128),w
  2536  0391  00A6               	movwf	map@x1^(0+128)
  2537  0392  300D               	movlw	13
  2538  0393  00A7               	movwf	map@y0^(0+128)
  2539  0394  3000               	movlw	0
  2540  0395  00A8               	movwf	(map@y0^(0+128)+1)
  2541  0396  3050               	movlw	80
  2542  0397  00A9               	movwf	map@y1^(0+128)
  2543  0398  3000               	movlw	0
  2544  0399  00AA               	movwf	(map@y1^(0+128)+1)
  2545  039A  083A               	movf	_pot1_in^(0+128),w
  2546  039B  120A  158A  216D  120A  118A  	fcall	_map
  2547  03A0  1683               	bsf	3,5	;RP0=1, select bank1
  2548  03A1  1303               	bcf	3,6	;RP1=0, select bank1
  2549  03A2  0826               	movf	(?_map+1)^(0+128),w
  2550  03A3  00B6               	movwf	(_CCPR+1)^(0+128)
  2551  03A4  0825               	movf	?_map^(0+128),w
  2552  03A5  00B5               	movwf	_CCPR^(0+128)
  2553  03A6                     i1l2687:
  2554                           
  2555                           ;master_main_dar-alv.c: 188:                 CCPR1L = (uint8_t)(CCPR>>2);
  2556  03A6  0836               	movf	(_CCPR+1)^(0+128),w
  2557  03A7  00AC               	movwf	(??_isr^(0+128)+1)
  2558  03A8  0835               	movf	_CCPR^(0+128),w
  2559  03A9  00AB               	movwf	??_isr^(0+128)
  2560  03AA  1003               	clrc
  2561  03AB  0CAC               	rrf	(??_isr^(0+128)+1),f
  2562  03AC  0CAB               	rrf	??_isr^(0+128),f
  2563  03AD  1003               	clrc
  2564  03AE  0CAC               	rrf	(??_isr^(0+128)+1),f
  2565  03AF  0CAB               	rrf	??_isr^(0+128),f
  2566  03B0  082B               	movf	??_isr^(0+128),w
  2567  03B1  1283               	bcf	3,5	;RP0=0, select bank0
  2568  03B2  1303               	bcf	3,6	;RP1=0, select bank0
  2569  03B3  0095               	movwf	21	;volatile
  2570  03B4                     i1l2689:
  2571                           
  2572                           ;master_main_dar-alv.c: 189:                 CCP1CONbits.DC1B = CCPR & 0b11;
  2573  03B4  1683               	bsf	3,5	;RP0=1, select bank1
  2574  03B5  1303               	bcf	3,6	;RP1=0, select bank1
  2575  03B6  0835               	movf	_CCPR^(0+128),w
  2576  03B7  3903               	andlw	3
  2577  03B8  00AB               	movwf	??_isr^(0+128)
  2578  03B9  0EAB               	swapf	??_isr^(0+128),f
  2579  03BA  1283               	bcf	3,5	;RP0=0, select bank0
  2580  03BB  1303               	bcf	3,6	;RP1=0, select bank0
  2581  03BC  0817               	movf	23,w	;volatile
  2582  03BD  1683               	bsf	3,5	;RP0=1, select bank1
  2583  03BE  1303               	bcf	3,6	;RP1=0, select bank1
  2584  03BF  062B               	xorwf	??_isr^(0+128),w
  2585  03C0  39CF               	andlw	-49
  2586  03C1  062B               	xorwf	??_isr^(0+128),w
  2587  03C2  1283               	bcf	3,5	;RP0=0, select bank0
  2588  03C3  1303               	bcf	3,6	;RP1=0, select bank0
  2589  03C4  0097               	movwf	23	;volatile
  2590                           
  2591                           ;master_main_dar-alv.c: 190:             }
  2592  03C5  2C52               	goto	i1l2711
  2593  03C6                     i1l2691:
  2594  03C6  1283               	bcf	3,5	;RP0=0, select bank0
  2595  03C7  1303               	bcf	3,6	;RP1=0, select bank0
  2596  03C8  0C1F               	rrf	31,w	;volatile
  2597  03C9  1683               	bsf	3,5	;RP0=1, select bank1
  2598  03CA  1303               	bcf	3,6	;RP1=0, select bank1
  2599  03CB  00AB               	movwf	??_isr^(0+128)
  2600  03CC  0C2B               	rrf	??_isr^(0+128),w
  2601  03CD  390F               	andlw	15
  2602  03CE  3A01               	xorlw	1
  2603  03CF  1D03               	skipz
  2604  03D0  2BD2               	goto	u334_21
  2605  03D1  2BD3               	goto	u334_20
  2606  03D2                     u334_21:
  2607  03D2  2C26               	goto	i1l2703
  2608  03D3                     u334_20:
  2609  03D3                     i1l2693:
  2610                           
  2611                           ;master_main_dar-alv.c: 193:                 pot2_in = ADRESH;
  2612  03D3  1283               	bcf	3,5	;RP0=0, select bank0
  2613  03D4  1303               	bcf	3,6	;RP1=0, select bank0
  2614  03D5  081E               	movf	30,w	;volatile
  2615  03D6  1683               	bsf	3,5	;RP0=1, select bank1
  2616  03D7  1303               	bcf	3,6	;RP1=0, select bank1
  2617  03D8  00AB               	movwf	??_isr^(0+128)
  2618  03D9  082B               	movf	??_isr^(0+128),w
  2619  03DA  00B9               	movwf	_pot2_in^(0+128)
  2620  03DB                     i1l2695:
  2621                           
  2622                           ;master_main_dar-alv.c: 194:                 CCPRx = map(pot2_in, 0, 255, 13, 80);
  2623  03DB  01A5               	clrf	map@x0^(0+128)
  2624  03DC  30FF               	movlw	255
  2625  03DD  00AB               	movwf	??_isr^(0+128)
  2626  03DE  082B               	movf	??_isr^(0+128),w
  2627  03DF  00A6               	movwf	map@x1^(0+128)
  2628  03E0  300D               	movlw	13
  2629  03E1  00A7               	movwf	map@y0^(0+128)
  2630  03E2  3000               	movlw	0
  2631  03E3  00A8               	movwf	(map@y0^(0+128)+1)
  2632  03E4  3050               	movlw	80
  2633  03E5  00A9               	movwf	map@y1^(0+128)
  2634  03E6  3000               	movlw	0
  2635  03E7  00AA               	movwf	(map@y1^(0+128)+1)
  2636  03E8  0839               	movf	_pot2_in^(0+128),w
  2637  03E9  120A  158A  216D  120A  118A  	fcall	_map
  2638  03EE  1683               	bsf	3,5	;RP0=1, select bank1
  2639  03EF  1303               	bcf	3,6	;RP1=0, select bank1
  2640  03F0  0826               	movf	(?_map+1)^(0+128),w
  2641  03F1  00B4               	movwf	(_CCPRx+1)^(0+128)
  2642  03F2  0825               	movf	?_map^(0+128),w
  2643  03F3  00B3               	movwf	_CCPRx^(0+128)
  2644  03F4                     i1l2697:
  2645                           
  2646                           ;master_main_dar-alv.c: 195:                 CCPR2L = (uint8_t)(CCPRx>>2);
  2647  03F4  0834               	movf	(_CCPRx+1)^(0+128),w
  2648  03F5  00AC               	movwf	(??_isr^(0+128)+1)
  2649  03F6  0833               	movf	_CCPRx^(0+128),w
  2650  03F7  00AB               	movwf	??_isr^(0+128)
  2651  03F8  1003               	clrc
  2652  03F9  0CAC               	rrf	(??_isr^(0+128)+1),f
  2653  03FA  0CAB               	rrf	??_isr^(0+128),f
  2654  03FB  1003               	clrc
  2655  03FC  0CAC               	rrf	(??_isr^(0+128)+1),f
  2656  03FD  0CAB               	rrf	??_isr^(0+128),f
  2657  03FE  082B               	movf	??_isr^(0+128),w
  2658  03FF  1283               	bcf	3,5	;RP0=0, select bank0
  2659  0400  1303               	bcf	3,6	;RP1=0, select bank0
  2660  0401  009B               	movwf	27	;volatile
  2661  0402                     i1l2699:
  2662                           
  2663                           ;master_main_dar-alv.c: 196:                 CCP2CONbits.DC2B0 = CCPRx & 0b01;
  2664  0402  1683               	bsf	3,5	;RP0=1, select bank1
  2665  0403  1303               	bcf	3,6	;RP1=0, select bank1
  2666  0404  0833               	movf	_CCPRx^(0+128),w
  2667  0405  3901               	andlw	1
  2668  0406  00AB               	movwf	??_isr^(0+128)
  2669  0407  0EAB               	swapf	??_isr^(0+128),f
  2670  0408  1283               	bcf	3,5	;RP0=0, select bank0
  2671  0409  1303               	bcf	3,6	;RP1=0, select bank0
  2672  040A  081D               	movf	29,w	;volatile
  2673  040B  1683               	bsf	3,5	;RP0=1, select bank1
  2674  040C  1303               	bcf	3,6	;RP1=0, select bank1
  2675  040D  062B               	xorwf	??_isr^(0+128),w
  2676  040E  39EF               	andlw	-17
  2677  040F  062B               	xorwf	??_isr^(0+128),w
  2678  0410  1283               	bcf	3,5	;RP0=0, select bank0
  2679  0411  1303               	bcf	3,6	;RP1=0, select bank0
  2680  0412  009D               	movwf	29	;volatile
  2681  0413                     i1l2701:
  2682                           
  2683                           ;master_main_dar-alv.c: 197:                 CCP2CONbits.DC2B1 = CCPRx & 0b10;
  2684  0413  1683               	bsf	3,5	;RP0=1, select bank1
  2685  0414  1303               	bcf	3,6	;RP1=0, select bank1
  2686  0415  0833               	movf	_CCPRx^(0+128),w
  2687  0416  3902               	andlw	2
  2688  0417  00AB               	movwf	??_isr^(0+128)
  2689  0418  0EAB               	swapf	??_isr^(0+128),f
  2690  0419  0DAB               	rlf	??_isr^(0+128),f
  2691  041A  1283               	bcf	3,5	;RP0=0, select bank0
  2692  041B  1303               	bcf	3,6	;RP1=0, select bank0
  2693  041C  081D               	movf	29,w	;volatile
  2694  041D  1683               	bsf	3,5	;RP0=1, select bank1
  2695  041E  1303               	bcf	3,6	;RP1=0, select bank1
  2696  041F  062B               	xorwf	??_isr^(0+128),w
  2697  0420  39DF               	andlw	-33
  2698  0421  062B               	xorwf	??_isr^(0+128),w
  2699  0422  1283               	bcf	3,5	;RP0=0, select bank0
  2700  0423  1303               	bcf	3,6	;RP1=0, select bank0
  2701  0424  009D               	movwf	29	;volatile
  2702                           
  2703                           ;master_main_dar-alv.c: 198:             }
  2704  0425  2C52               	goto	i1l2711
  2705  0426                     i1l2703:
  2706  0426  1283               	bcf	3,5	;RP0=0, select bank0
  2707  0427  1303               	bcf	3,6	;RP1=0, select bank0
  2708  0428  0C1F               	rrf	31,w	;volatile
  2709  0429  1683               	bsf	3,5	;RP0=1, select bank1
  2710  042A  1303               	bcf	3,6	;RP1=0, select bank1
  2711  042B  00AB               	movwf	??_isr^(0+128)
  2712  042C  0C2B               	rrf	??_isr^(0+128),w
  2713  042D  390F               	andlw	15
  2714  042E  3A02               	xorlw	2
  2715  042F  1D03               	skipz
  2716  0430  2C32               	goto	u335_21
  2717  0431  2C33               	goto	u335_20
  2718  0432                     u335_21:
  2719  0432  2C3C               	goto	i1l2707
  2720  0433                     u335_20:
  2721  0433                     i1l2705:
  2722                           
  2723                           ;master_main_dar-alv.c: 201:                 pot3_in = ADRESH;
  2724  0433  1283               	bcf	3,5	;RP0=0, select bank0
  2725  0434  1303               	bcf	3,6	;RP1=0, select bank0
  2726  0435  081E               	movf	30,w	;volatile
  2727  0436  1683               	bsf	3,5	;RP0=1, select bank1
  2728  0437  1303               	bcf	3,6	;RP1=0, select bank1
  2729  0438  00AB               	movwf	??_isr^(0+128)
  2730  0439  082B               	movf	??_isr^(0+128),w
  2731  043A  00B8               	movwf	_pot3_in^(0+128)
  2732                           
  2733                           ;master_main_dar-alv.c: 202:             }
  2734  043B  2C52               	goto	i1l2711
  2735  043C                     i1l2707:
  2736  043C  1283               	bcf	3,5	;RP0=0, select bank0
  2737  043D  1303               	bcf	3,6	;RP1=0, select bank0
  2738  043E  0C1F               	rrf	31,w	;volatile
  2739  043F  1683               	bsf	3,5	;RP0=1, select bank1
  2740  0440  1303               	bcf	3,6	;RP1=0, select bank1
  2741  0441  00AB               	movwf	??_isr^(0+128)
  2742  0442  0C2B               	rrf	??_isr^(0+128),w
  2743  0443  390F               	andlw	15
  2744  0444  3A03               	xorlw	3
  2745  0445  1D03               	skipz
  2746  0446  2C48               	goto	u336_21
  2747  0447  2C49               	goto	u336_20
  2748  0448                     u336_21:
  2749  0448  2C52               	goto	i1l161
  2750  0449                     u336_20:
  2751  0449                     i1l2709:
  2752                           
  2753                           ;master_main_dar-alv.c: 205:                 pot4_in = ADRESH;
  2754  0449  1283               	bcf	3,5	;RP0=0, select bank0
  2755  044A  1303               	bcf	3,6	;RP1=0, select bank0
  2756  044B  081E               	movf	30,w	;volatile
  2757  044C  1683               	bsf	3,5	;RP0=1, select bank1
  2758  044D  1303               	bcf	3,6	;RP1=0, select bank1
  2759  044E  00AB               	movwf	??_isr^(0+128)
  2760  044F  082B               	movf	??_isr^(0+128),w
  2761  0450  00B7               	movwf	_pot4_in^(0+128)
  2762  0451  2C52               	goto	i1l2711
  2763  0452                     i1l161:
  2764  0452                     i1l2711:
  2765                           
  2766                           ;master_main_dar-alv.c: 207:             PIR1bits.ADIF = 0;
  2767  0452  1283               	bcf	3,5	;RP0=0, select bank0
  2768  0453  130C               	bcf	12,6	;volatile
  2769  0454                     i1l165:
  2770  0454  1683               	bsf	3,5	;RP0=1, select bank1
  2771  0455  1303               	bcf	3,6	;RP1=0, select bank1
  2772  0456  082F               	movf	(??_isr+4)^(0+128),w
  2773  0457  00FF               	movwf	btemp+1
  2774  0458  082E               	movf	(??_isr+3)^(0+128),w
  2775  0459  008A               	movwf	10
  2776  045A  0E2D               	swapf	(??_isr+2)^(0+128),w
  2777  045B  0083               	movwf	3
  2778  045C  0EFE               	swapf	btemp,f
  2779  045D  0E7E               	swapf	btemp,w
  2780  045E  0009               	retfie
  2781  045F                     __end_of_isr:
  2782                           
  2783                           	psect	intentry
  2784  0004                     __pintentry:	
  2785                           ;incstack = 0
  2786                           ; Regs used in _isr: [wreg+status,2+status,0+btemp+1+pclath+cstack]
  2787                           
  2788  0004                     interrupt_function:
  2789  007E                     saved_w	set	btemp
  2790  0004  00FE               	movwf	btemp
  2791  0005  0E03               	swapf	3,w
  2792  0006  1683               	bsf	3,5	;RP0=1, select bank1
  2793  0007  1303               	bcf	3,6	;RP1=0, select bank1
  2794  0008  00AD               	movwf	(??_isr+2)^(0+128)
  2795  0009  080A               	movf	10,w
  2796  000A  00AE               	movwf	(??_isr+3)^(0+128)
  2797  000B  087F               	movf	btemp+1,w
  2798  000C  00AF               	movwf	(??_isr+4)^(0+128)
  2799  000D  120A  118A  282F   	ljmp	_isr
  2800                           
  2801                           	psect	text3
  2802  096D                     __ptext3:	
  2803 ;; *************** function _map *****************
  2804 ;; Defined at:
  2805 ;;		line 353 in file "master_main_dar-alv.c"
  2806 ;; Parameters:    Size  Location     Type
  2807 ;;  x               1    wreg     unsigned char 
  2808 ;;  x0              1    5[BANK1 ] unsigned char 
  2809 ;;  x1              1    6[BANK1 ] unsigned char 
  2810 ;;  y0              2    7[BANK1 ] unsigned short 
  2811 ;;  y1              2    9[BANK1 ] unsigned short 
  2812 ;; Auto vars:     Size  Location     Type
  2813 ;;  x               1   78[BANK0 ] unsigned char 
  2814 ;; Return value:  Size  Location     Type
  2815 ;;                  2    5[BANK1 ] unsigned short 
  2816 ;; Registers used:
  2817 ;;		wreg, status,2, status,0, btemp+1, pclath, cstack
  2818 ;; Tracked objects:
  2819 ;;		On entry : 0/0
  2820 ;;		On exit  : 0/0
  2821 ;;		Unchanged: 0/0
  2822 ;; Data sizes:     COMMON   BANK0   BANK1   BANK3   BANK2
  2823 ;;      Params:         0       0       6       0       0
  2824 ;;      Locals:         0       1       0       0       0
  2825 ;;      Temps:          0       0       0       0       0
  2826 ;;      Totals:         0       1       6       0       0
  2827 ;;Total ram usage:        7 bytes
  2828 ;; Hardware stack levels used: 1
  2829 ;; Hardware stack levels required when called: 2
  2830 ;; This function calls:
  2831 ;;		___fladd
  2832 ;;		___fldiv
  2833 ;;		___flmul
  2834 ;;		___fltol
  2835 ;;		___xxtofl
  2836 ;; This function is called by:
  2837 ;;		_isr
  2838 ;; This function uses a non-reentrant model
  2839 ;;
  2840                           
  2841  096D                     _map:	
  2842                           ;psect for function _map
  2843                           
  2844                           
  2845                           ;incstack = 0
  2846                           ; Regs used in _map: [wreg+status,2+status,0+btemp+1+pclath+cstack]
  2847                           ;map@x stored from wreg
  2848  096D  1283               	bcf	3,5	;RP0=0, select bank0
  2849  096E  1303               	bcf	3,6	;RP1=0, select bank0
  2850  096F  00EE               	movwf	map@x
  2851  0970                     i1l2399:
  2852                           
  2853                           ;master_main_dar-alv.c: 353: unsigned short map(uint8_t x, uint8_t x0, uint8_t x1,;maste
      +                          r_main_dar-alv.c: 354:             unsigned short y0, unsigned short y1){;master_main_da
      +                          r-alv.c: 355:     return (unsigned short)(y0+((float)(y1-y0)/(x1-x0))*(x-x0));
  2854  0970  1683               	bsf	3,5	;RP0=1, select bank1
  2855  0971  1303               	bcf	3,6	;RP1=0, select bank1
  2856  0972  0827               	movf	map@y0^(0+128),w
  2857  0973  00F0               	movwf	___xxtofl@val
  2858  0974  0828               	movf	(map@y0+1)^(0+128),w
  2859  0975  00F1               	movwf	___xxtofl@val+1
  2860  0976  01F2               	clrf	___xxtofl@val+2
  2861  0977  01F3               	clrf	___xxtofl@val+3
  2862  0978  3000               	movlw	0
  2863  0979  120A  158A  221F  120A  158A  	fcall	___xxtofl
  2864  097E  0873               	movf	?___xxtofl+3,w
  2865  097F  1283               	bcf	3,5	;RP0=0, select bank0
  2866  0980  1303               	bcf	3,6	;RP1=0, select bank0
  2867  0981  00DB               	movwf	___fladd@a+3
  2868  0982  0872               	movf	?___xxtofl+2,w
  2869  0983  00DA               	movwf	___fladd@a+2
  2870  0984  0871               	movf	?___xxtofl+1,w
  2871  0985  00D9               	movwf	___fladd@a+1
  2872  0986  0870               	movf	?___xxtofl,w
  2873  0987  00D8               	movwf	___fladd@a
  2874  0988  1683               	bsf	3,5	;RP0=1, select bank1
  2875  0989  1303               	bcf	3,6	;RP1=0, select bank1
  2876  098A  0827               	movf	map@y0^(0+128),w
  2877  098B  0229               	subwf	map@y1^(0+128),w
  2878  098C  00F0               	movwf	___xxtofl@val
  2879  098D  0828               	movf	(map@y0+1)^(0+128),w
  2880  098E  1C03               	skipc
  2881  098F  0A28               	incf	(map@y0+1)^(0+128),w
  2882  0990  022A               	subwf	(map@y1+1)^(0+128),w
  2883  0991  00F1               	movwf	___xxtofl@val+1
  2884  0992  01F2               	clrf	___xxtofl@val+2
  2885  0993  01F3               	clrf	___xxtofl@val+3
  2886  0994  3000               	movlw	0
  2887  0995  120A  158A  221F  120A  158A  	fcall	___xxtofl
  2888  099A  0873               	movf	?___xxtofl+3,w
  2889  099B  1283               	bcf	3,5	;RP0=0, select bank0
  2890  099C  1303               	bcf	3,6	;RP1=0, select bank0
  2891  099D  00A7               	movwf	___fldiv@b+3
  2892  099E  0872               	movf	?___xxtofl+2,w
  2893  099F  00A6               	movwf	___fldiv@b+2
  2894  09A0  0871               	movf	?___xxtofl+1,w
  2895  09A1  00A5               	movwf	___fldiv@b+1
  2896  09A2  0870               	movf	?___xxtofl,w
  2897  09A3  00A4               	movwf	___fldiv@b
  2898  09A4  1683               	bsf	3,5	;RP0=1, select bank1
  2899  09A5  1303               	bcf	3,6	;RP1=0, select bank1
  2900  09A6  0825               	movf	map@x0^(0+128),w
  2901  09A7  0226               	subwf	map@x1^(0+128),w
  2902  09A8  00F0               	movwf	___xxtofl@val
  2903  09A9  01F1               	clrf	___xxtofl@val+1
  2904  09AA  1C03               	skipc
  2905  09AB  03F1               	decf	___xxtofl@val+1,f
  2906  09AC  01F2               	clrf	___xxtofl@val+2
  2907  09AD  1BF1               	btfsc	___xxtofl@val+1,7
  2908  09AE  03F2               	decf	___xxtofl@val+2,f
  2909  09AF  0872               	movf	___xxtofl@val+2,w
  2910  09B0  00F3               	movwf	___xxtofl@val+3
  2911  09B1  3001               	movlw	1
  2912  09B2  120A  158A  221F  120A  158A  	fcall	___xxtofl
  2913  09B7  0873               	movf	?___xxtofl+3,w
  2914  09B8  1283               	bcf	3,5	;RP0=0, select bank0
  2915  09B9  1303               	bcf	3,6	;RP1=0, select bank0
  2916  09BA  00A3               	movwf	___fldiv@a+3
  2917  09BB  0872               	movf	?___xxtofl+2,w
  2918  09BC  00A2               	movwf	___fldiv@a+2
  2919  09BD  0871               	movf	?___xxtofl+1,w
  2920  09BE  00A1               	movwf	___fldiv@a+1
  2921  09BF  0870               	movf	?___xxtofl,w
  2922  09C0  00A0               	movwf	___fldiv@a
  2923  09C1  120A  158A  239B  120A  158A  	fcall	___fldiv
  2924  09C6  1283               	bcf	3,5	;RP0=0, select bank0
  2925  09C7  1303               	bcf	3,6	;RP1=0, select bank0
  2926  09C8  0823               	movf	?___fldiv+3,w
  2927  09C9  00C1               	movwf	___flmul@a+3
  2928  09CA  0822               	movf	?___fldiv+2,w
  2929  09CB  00C0               	movwf	___flmul@a+2
  2930  09CC  0821               	movf	?___fldiv+1,w
  2931  09CD  00BF               	movwf	___flmul@a+1
  2932  09CE  0820               	movf	?___fldiv,w
  2933  09CF  00BE               	movwf	___flmul@a
  2934  09D0  1683               	bsf	3,5	;RP0=1, select bank1
  2935  09D1  1303               	bcf	3,6	;RP1=0, select bank1
  2936  09D2  0825               	movf	map@x0^(0+128),w
  2937  09D3  1283               	bcf	3,5	;RP0=0, select bank0
  2938  09D4  1303               	bcf	3,6	;RP1=0, select bank0
  2939  09D5  026E               	subwf	map@x,w
  2940  09D6  00F0               	movwf	___xxtofl@val
  2941  09D7  01F1               	clrf	___xxtofl@val+1
  2942  09D8  1C03               	skipc
  2943  09D9  03F1               	decf	___xxtofl@val+1,f
  2944  09DA  01F2               	clrf	___xxtofl@val+2
  2945  09DB  1BF1               	btfsc	___xxtofl@val+1,7
  2946  09DC  03F2               	decf	___xxtofl@val+2,f
  2947  09DD  0872               	movf	___xxtofl@val+2,w
  2948  09DE  00F3               	movwf	___xxtofl@val+3
  2949  09DF  3001               	movlw	1
  2950  09E0  120A  158A  221F  120A  158A  	fcall	___xxtofl
  2951  09E5  0873               	movf	?___xxtofl+3,w
  2952  09E6  1283               	bcf	3,5	;RP0=0, select bank0
  2953  09E7  1303               	bcf	3,6	;RP1=0, select bank0
  2954  09E8  00BD               	movwf	___flmul@b+3
  2955  09E9  0872               	movf	?___xxtofl+2,w
  2956  09EA  00BC               	movwf	___flmul@b+2
  2957  09EB  0871               	movf	?___xxtofl+1,w
  2958  09EC  00BB               	movwf	___flmul@b+1
  2959  09ED  0870               	movf	?___xxtofl,w
  2960  09EE  00BA               	movwf	___flmul@b
  2961  09EF  120A  118A  245F  120A  158A  	fcall	___flmul
  2962  09F4  1283               	bcf	3,5	;RP0=0, select bank0
  2963  09F5  1303               	bcf	3,6	;RP1=0, select bank0
  2964  09F6  083D               	movf	?___flmul+3,w
  2965  09F7  00D7               	movwf	___fladd@b+3
  2966  09F8  083C               	movf	?___flmul+2,w
  2967  09F9  00D6               	movwf	___fladd@b+2
  2968  09FA  083B               	movf	?___flmul+1,w
  2969  09FB  00D5               	movwf	___fladd@b+1
  2970  09FC  083A               	movf	?___flmul,w
  2971  09FD  00D4               	movwf	___fladd@b
  2972  09FE  120A  158A  2578  120A  158A  	fcall	___fladd
  2973  0A03  1283               	bcf	3,5	;RP0=0, select bank0
  2974  0A04  1303               	bcf	3,6	;RP1=0, select bank0
  2975  0A05  0857               	movf	?___fladd+3,w
  2976  0A06  00EB               	movwf	___fltol@f1+3
  2977  0A07  0856               	movf	?___fladd+2,w
  2978  0A08  00EA               	movwf	___fltol@f1+2
  2979  0A09  0855               	movf	?___fladd+1,w
  2980  0A0A  00E9               	movwf	___fltol@f1+1
  2981  0A0B  0854               	movf	?___fladd,w
  2982  0A0C  00E8               	movwf	___fltol@f1
  2983  0A0D  120A  158A  20D1  120A  158A  	fcall	___fltol
  2984  0A12  1283               	bcf	3,5	;RP0=0, select bank0
  2985  0A13  1303               	bcf	3,6	;RP1=0, select bank0
  2986  0A14  0869               	movf	?___fltol+1,w
  2987  0A15  1683               	bsf	3,5	;RP0=1, select bank1
  2988  0A16  1303               	bcf	3,6	;RP1=0, select bank1
  2989  0A17  00A6               	movwf	(?_map+1)^(0+128)
  2990  0A18  1283               	bcf	3,5	;RP0=0, select bank0
  2991  0A19  1303               	bcf	3,6	;RP1=0, select bank0
  2992  0A1A  0868               	movf	?___fltol,w
  2993  0A1B  1683               	bsf	3,5	;RP0=1, select bank1
  2994  0A1C  1303               	bcf	3,6	;RP1=0, select bank1
  2995  0A1D  00A5               	movwf	?_map^(0+128)
  2996  0A1E                     i1l197:
  2997  0A1E  0008               	return
  2998  0A1F                     __end_of_map:
  2999                           
  3000                           	psect	text4
  3001  0A1F                     __ptext4:	
  3002 ;; *************** function ___xxtofl *****************
  3003 ;; Defined at:
  3004 ;;		line 10 in file "C:\Program Files\Microchip\xc8\v2.35\pic\sources\c90\common\xxtofl.c"
  3005 ;; Parameters:    Size  Location     Type
  3006 ;;  sign            1    wreg     unsigned char 
  3007 ;;  val             4    0[COMMON] long 
  3008 ;; Auto vars:     Size  Location     Type
  3009 ;;  sign            1    8[COMMON] unsigned char 
  3010 ;;  arg             4   10[COMMON] unsigned long 
  3011 ;;  exp             1    9[COMMON] unsigned char 
  3012 ;; Return value:  Size  Location     Type
  3013 ;;                  4    0[COMMON] unsigned char 
  3014 ;; Registers used:
  3015 ;;		wreg, status,2, status,0
  3016 ;; Tracked objects:
  3017 ;;		On entry : 0/0
  3018 ;;		On exit  : 0/0
  3019 ;;		Unchanged: 0/0
  3020 ;; Data sizes:     COMMON   BANK0   BANK1   BANK3   BANK2
  3021 ;;      Params:         4       0       0       0       0
  3022 ;;      Locals:         6       0       0       0       0
  3023 ;;      Temps:          4       0       0       0       0
  3024 ;;      Totals:        14       0       0       0       0
  3025 ;;Total ram usage:       14 bytes
  3026 ;; Hardware stack levels used: 1
  3027 ;; This function calls:
  3028 ;;		Nothing
  3029 ;; This function is called by:
  3030 ;;		_map
  3031 ;; This function uses a non-reentrant model
  3032 ;;
  3033                           
  3034  0A1F                     ___xxtofl:	
  3035                           ;psect for function ___xxtofl
  3036                           
  3037                           
  3038                           ;incstack = 0
  3039                           ; Regs used in ___xxtofl: [wreg+status,2+status,0]
  3040                           ;___xxtofl@sign stored from wreg
  3041  0A1F  00F8               	movwf	___xxtofl@sign
  3042  0A20                     i1l2323:
  3043  0A20  0878               	movf	___xxtofl@sign,w
  3044  0A21  1903               	btfsc	3,2
  3045  0A22  2A24               	goto	u298_21
  3046  0A23  2A25               	goto	u298_20
  3047  0A24                     u298_21:
  3048  0A24  2A39               	goto	i1l2329
  3049  0A25                     u298_20:
  3050  0A25                     i1l2325:
  3051  0A25  1FF3               	btfss	___xxtofl@val+3,7
  3052  0A26  2A28               	goto	u299_21
  3053  0A27  2A29               	goto	u299_20
  3054  0A28                     u299_21:
  3055  0A28  2A39               	goto	i1l2329
  3056  0A29                     u299_20:
  3057  0A29                     i1l2327:
  3058  0A29  0970               	comf	___xxtofl@val,w
  3059  0A2A  00FA               	movwf	___xxtofl@arg
  3060  0A2B  0971               	comf	___xxtofl@val+1,w
  3061  0A2C  00FB               	movwf	___xxtofl@arg+1
  3062  0A2D  0972               	comf	___xxtofl@val+2,w
  3063  0A2E  00FC               	movwf	___xxtofl@arg+2
  3064  0A2F  0973               	comf	___xxtofl@val+3,w
  3065  0A30  00FD               	movwf	___xxtofl@arg+3
  3066  0A31  0AFA               	incf	___xxtofl@arg,f
  3067  0A32  1903               	skipnz
  3068  0A33  0AFB               	incf	___xxtofl@arg+1,f
  3069  0A34  1903               	skipnz
  3070  0A35  0AFC               	incf	___xxtofl@arg+2,f
  3071  0A36  1903               	skipnz
  3072  0A37  0AFD               	incf	___xxtofl@arg+3,f
  3073  0A38  2A41               	goto	i1l728
  3074  0A39                     i1l2329:
  3075  0A39  0873               	movf	___xxtofl@val+3,w
  3076  0A3A  00FD               	movwf	___xxtofl@arg+3
  3077  0A3B  0872               	movf	___xxtofl@val+2,w
  3078  0A3C  00FC               	movwf	___xxtofl@arg+2
  3079  0A3D  0871               	movf	___xxtofl@val+1,w
  3080  0A3E  00FB               	movwf	___xxtofl@arg+1
  3081  0A3F  0870               	movf	___xxtofl@val,w
  3082  0A40  00FA               	movwf	___xxtofl@arg
  3083  0A41                     i1l728:
  3084  0A41  0873               	movf	___xxtofl@val+3,w
  3085  0A42  0472               	iorwf	___xxtofl@val+2,w
  3086  0A43  0471               	iorwf	___xxtofl@val+1,w
  3087  0A44  0470               	iorwf	___xxtofl@val,w
  3088  0A45  1D03               	skipz
  3089  0A46  2A48               	goto	u300_21
  3090  0A47  2A49               	goto	u300_20
  3091  0A48                     u300_21:
  3092  0A48  2A52               	goto	i1l2335
  3093  0A49                     u300_20:
  3094  0A49                     i1l2331:
  3095  0A49  3000               	movlw	0
  3096  0A4A  00F3               	movwf	?___xxtofl+3
  3097  0A4B  3000               	movlw	0
  3098  0A4C  00F2               	movwf	?___xxtofl+2
  3099  0A4D  3000               	movlw	0
  3100  0A4E  00F1               	movwf	?___xxtofl+1
  3101  0A4F  3000               	movlw	0
  3102  0A50  00F0               	movwf	?___xxtofl
  3103  0A51  2AD8               	goto	i1l730
  3104  0A52                     i1l2335:
  3105  0A52  3096               	movlw	150
  3106  0A53  00F4               	movwf	??___xxtofl
  3107  0A54  0874               	movf	??___xxtofl,w
  3108  0A55  00F9               	movwf	___xxtofl@exp
  3109  0A56  2A64               	goto	i1l2339
  3110  0A57                     i1l2337:
  3111  0A57  3001               	movlw	1
  3112  0A58  00F4               	movwf	??___xxtofl
  3113  0A59  0874               	movf	??___xxtofl,w
  3114  0A5A  07F9               	addwf	___xxtofl@exp,f
  3115  0A5B  3001               	movlw	1
  3116  0A5C                     u301_25:
  3117  0A5C  1003               	clrc
  3118  0A5D  0CFD               	rrf	___xxtofl@arg+3,f
  3119  0A5E  0CFC               	rrf	___xxtofl@arg+2,f
  3120  0A5F  0CFB               	rrf	___xxtofl@arg+1,f
  3121  0A60  0CFA               	rrf	___xxtofl@arg,f
  3122  0A61  3EFF               	addlw	-1
  3123  0A62  1D03               	skipz
  3124  0A63  2A5C               	goto	u301_25
  3125  0A64                     i1l2339:
  3126  0A64  30FE               	movlw	254
  3127  0A65  057D               	andwf	___xxtofl@arg+3,w
  3128  0A66  1D03               	btfss	3,2
  3129  0A67  2A69               	goto	u302_21
  3130  0A68  2A6A               	goto	u302_20
  3131  0A69                     u302_21:
  3132  0A69  2A57               	goto	i1l2337
  3133  0A6A                     u302_20:
  3134  0A6A  2A86               	goto	i1l734
  3135  0A6B                     i1l2341:
  3136  0A6B  3001               	movlw	1
  3137  0A6C  00F4               	movwf	??___xxtofl
  3138  0A6D  0874               	movf	??___xxtofl,w
  3139  0A6E  07F9               	addwf	___xxtofl@exp,f
  3140  0A6F                     i1l2343:
  3141  0A6F  3001               	movlw	1
  3142  0A70  07FA               	addwf	___xxtofl@arg,f
  3143  0A71  3000               	movlw	0
  3144  0A72  1803               	skipnc
  3145  0A73  3001               	movlw	1
  3146  0A74  07FB               	addwf	___xxtofl@arg+1,f
  3147  0A75  3000               	movlw	0
  3148  0A76  1803               	skipnc
  3149  0A77  3001               	movlw	1
  3150  0A78  07FC               	addwf	___xxtofl@arg+2,f
  3151  0A79  3000               	movlw	0
  3152  0A7A  1803               	skipnc
  3153  0A7B  3001               	movlw	1
  3154  0A7C  07FD               	addwf	___xxtofl@arg+3,f
  3155  0A7D                     i1l2345:
  3156  0A7D  3001               	movlw	1
  3157  0A7E                     u303_25:
  3158  0A7E  1003               	clrc
  3159  0A7F  0CFD               	rrf	___xxtofl@arg+3,f
  3160  0A80  0CFC               	rrf	___xxtofl@arg+2,f
  3161  0A81  0CFB               	rrf	___xxtofl@arg+1,f
  3162  0A82  0CFA               	rrf	___xxtofl@arg,f
  3163  0A83  3EFF               	addlw	-1
  3164  0A84  1D03               	skipz
  3165  0A85  2A7E               	goto	u303_25
  3166  0A86                     i1l734:
  3167  0A86  30FF               	movlw	255
  3168  0A87  057D               	andwf	___xxtofl@arg+3,w
  3169  0A88  1D03               	btfss	3,2
  3170  0A89  2A8B               	goto	u304_21
  3171  0A8A  2A8C               	goto	u304_20
  3172  0A8B                     u304_21:
  3173  0A8B  2A6B               	goto	i1l2341
  3174  0A8C                     u304_20:
  3175  0A8C  2A98               	goto	i1l2349
  3176  0A8D                     i1l2347:
  3177  0A8D  3001               	movlw	1
  3178  0A8E  02F9               	subwf	___xxtofl@exp,f
  3179  0A8F  3001               	movlw	1
  3180  0A90  00F4               	movwf	??___xxtofl
  3181  0A91                     u305_25:
  3182  0A91  1003               	clrc
  3183  0A92  0DFA               	rlf	___xxtofl@arg,f
  3184  0A93  0DFB               	rlf	___xxtofl@arg+1,f
  3185  0A94  0DFC               	rlf	___xxtofl@arg+2,f
  3186  0A95  0DFD               	rlf	___xxtofl@arg+3,f
  3187  0A96  0BF4               	decfsz	??___xxtofl,f
  3188  0A97  2A91               	goto	u305_25
  3189  0A98                     i1l2349:
  3190  0A98  1BFC               	btfsc	___xxtofl@arg+2,7
  3191  0A99  2A9B               	goto	u306_21
  3192  0A9A  2A9C               	goto	u306_20
  3193  0A9B                     u306_21:
  3194  0A9B  2AA2               	goto	i1l741
  3195  0A9C                     u306_20:
  3196  0A9C                     i1l2351:
  3197  0A9C  3002               	movlw	2
  3198  0A9D  0279               	subwf	___xxtofl@exp,w
  3199  0A9E  1803               	skipnc
  3200  0A9F  2AA1               	goto	u307_21
  3201  0AA0  2AA2               	goto	u307_20
  3202  0AA1                     u307_21:
  3203  0AA1  2A8D               	goto	i1l2347
  3204  0AA2                     u307_20:
  3205  0AA2                     i1l741:
  3206  0AA2  1879               	btfsc	___xxtofl@exp,0
  3207  0AA3  2AA5               	goto	u308_21
  3208  0AA4  2AA6               	goto	u308_20
  3209  0AA5                     u308_21:
  3210  0AA5  2AAE               	goto	i1l742
  3211  0AA6                     u308_20:
  3212  0AA6                     i1l2353:
  3213  0AA6  30FF               	movlw	255
  3214  0AA7  05FA               	andwf	___xxtofl@arg,f
  3215  0AA8  30FF               	movlw	255
  3216  0AA9  05FB               	andwf	___xxtofl@arg+1,f
  3217  0AAA  307F               	movlw	127
  3218  0AAB  05FC               	andwf	___xxtofl@arg+2,f
  3219  0AAC  30FF               	movlw	255
  3220  0AAD  05FD               	andwf	___xxtofl@arg+3,f
  3221  0AAE                     i1l742:
  3222  0AAE  1003               	clrc
  3223  0AAF  0CF9               	rrf	___xxtofl@exp,f
  3224  0AB0                     i1l2355:
  3225  0AB0  0879               	movf	___xxtofl@exp,w
  3226  0AB1  00F4               	movwf	??___xxtofl
  3227  0AB2  01F5               	clrf	??___xxtofl+1
  3228  0AB3  01F6               	clrf	??___xxtofl+2
  3229  0AB4  01F7               	clrf	??___xxtofl+3
  3230  0AB5  3018               	movlw	24
  3231  0AB6                     u309_25:
  3232  0AB6  1003               	clrc
  3233  0AB7  0DF4               	rlf	??___xxtofl,f
  3234  0AB8  0DF5               	rlf	??___xxtofl+1,f
  3235  0AB9  0DF6               	rlf	??___xxtofl+2,f
  3236  0ABA  0DF7               	rlf	??___xxtofl+3,f
  3237  0ABB                     u309_20:
  3238  0ABB  3EFF               	addlw	-1
  3239  0ABC  1D03               	skipz
  3240  0ABD  2AB6               	goto	u309_25
  3241  0ABE  0874               	movf	??___xxtofl,w
  3242  0ABF  04FA               	iorwf	___xxtofl@arg,f
  3243  0AC0  0875               	movf	??___xxtofl+1,w
  3244  0AC1  04FB               	iorwf	___xxtofl@arg+1,f
  3245  0AC2  0876               	movf	??___xxtofl+2,w
  3246  0AC3  04FC               	iorwf	___xxtofl@arg+2,f
  3247  0AC4  0877               	movf	??___xxtofl+3,w
  3248  0AC5  04FD               	iorwf	___xxtofl@arg+3,f
  3249  0AC6                     i1l2357:
  3250  0AC6  0878               	movf	___xxtofl@sign,w
  3251  0AC7  1903               	btfsc	3,2
  3252  0AC8  2ACA               	goto	u310_21
  3253  0AC9  2ACB               	goto	u310_20
  3254  0ACA                     u310_21:
  3255  0ACA  2AD0               	goto	i1l2363
  3256  0ACB                     u310_20:
  3257  0ACB                     i1l2359:
  3258  0ACB  1FF3               	btfss	___xxtofl@val+3,7
  3259  0ACC  2ACE               	goto	u311_21
  3260  0ACD  2ACF               	goto	u311_20
  3261  0ACE                     u311_21:
  3262  0ACE  2AD0               	goto	i1l2363
  3263  0ACF                     u311_20:
  3264  0ACF                     i1l2361:
  3265  0ACF  17FD               	bsf	___xxtofl@arg+3,7
  3266  0AD0                     i1l2363:
  3267  0AD0  087D               	movf	___xxtofl@arg+3,w
  3268  0AD1  00F3               	movwf	?___xxtofl+3
  3269  0AD2  087C               	movf	___xxtofl@arg+2,w
  3270  0AD3  00F2               	movwf	?___xxtofl+2
  3271  0AD4  087B               	movf	___xxtofl@arg+1,w
  3272  0AD5  00F1               	movwf	?___xxtofl+1
  3273  0AD6  087A               	movf	___xxtofl@arg,w
  3274  0AD7  00F0               	movwf	?___xxtofl
  3275  0AD8                     i1l730:
  3276  0AD8  0008               	return
  3277  0AD9                     __end_of___xxtofl:
  3278                           
  3279                           	psect	text5
  3280  08D1                     __ptext5:	
  3281 ;; *************** function ___fltol *****************
  3282 ;; Defined at:
  3283 ;;		line 43 in file "C:\Program Files\Microchip\xc8\v2.35\pic\sources\c90\common\fltol.c"
  3284 ;; Parameters:    Size  Location     Type
  3285 ;;  f1              4   72[BANK0 ] unsigned char 
  3286 ;; Auto vars:     Size  Location     Type
  3287 ;;  exp1            1   77[BANK0 ] unsigned char 
  3288 ;;  sign1           1   76[BANK0 ] unsigned char 
  3289 ;; Return value:  Size  Location     Type
  3290 ;;                  4   72[BANK0 ] long 
  3291 ;; Registers used:
  3292 ;;		wreg, status,2, status,0
  3293 ;; Tracked objects:
  3294 ;;		On entry : 0/0
  3295 ;;		On exit  : 0/0
  3296 ;;		Unchanged: 0/0
  3297 ;; Data sizes:     COMMON   BANK0   BANK1   BANK3   BANK2
  3298 ;;      Params:         0       4       0       0       0
  3299 ;;      Locals:         0       2       0       0       0
  3300 ;;      Temps:          0       0       5       0       0
  3301 ;;      Totals:         0       6       5       0       0
  3302 ;;Total ram usage:       11 bytes
  3303 ;; Hardware stack levels used: 1
  3304 ;; This function calls:
  3305 ;;		Nothing
  3306 ;; This function is called by:
  3307 ;;		_map
  3308 ;; This function uses a non-reentrant model
  3309 ;;
  3310                           
  3311  08D1                     ___fltol:	
  3312                           ;psect for function ___fltol
  3313                           
  3314  08D1                     i1l1811:	
  3315                           ;incstack = 0
  3316                           ; Regs used in ___fltol: [wreg+status,2+status,0]
  3317                           
  3318  08D1  1003               	clrc
  3319  08D2  1283               	bcf	3,5	;RP0=0, select bank0
  3320  08D3  1303               	bcf	3,6	;RP1=0, select bank0
  3321  08D4  0D6A               	rlf	___fltol@f1+2,w
  3322  08D5  0D6B               	rlf	___fltol@f1+3,w
  3323  08D6  1683               	bsf	3,5	;RP0=1, select bank1
  3324  08D7  1303               	bcf	3,6	;RP1=0, select bank1
  3325  08D8  00A0               	movwf	??___fltol^(0+128)
  3326  08D9  0820               	movf	??___fltol^(0+128),w
  3327  08DA  1283               	bcf	3,5	;RP0=0, select bank0
  3328  08DB  1303               	bcf	3,6	;RP1=0, select bank0
  3329  08DC  00ED               	movwf	___fltol@exp1
  3330  08DD  086D               	movf	___fltol@exp1,w
  3331  08DE  1D03               	btfss	3,2
  3332  08DF  28E1               	goto	u176_21
  3333  08E0  28E2               	goto	u176_20
  3334  08E1                     u176_21:
  3335  08E1  28EB               	goto	i1l1817
  3336  08E2                     u176_20:
  3337  08E2                     i1l1813:
  3338  08E2  3000               	movlw	0
  3339  08E3  00EB               	movwf	?___fltol+3
  3340  08E4  3000               	movlw	0
  3341  08E5  00EA               	movwf	?___fltol+2
  3342  08E6  3000               	movlw	0
  3343  08E7  00E9               	movwf	?___fltol+1
  3344  08E8  3000               	movlw	0
  3345  08E9  00E8               	movwf	?___fltol
  3346  08EA  296C               	goto	i1l481
  3347  08EB                     i1l1817:
  3348  08EB  0868               	movf	___fltol@f1,w
  3349  08EC  1683               	bsf	3,5	;RP0=1, select bank1
  3350  08ED  1303               	bcf	3,6	;RP1=0, select bank1
  3351  08EE  00A0               	movwf	??___fltol^(0+128)
  3352  08EF  1283               	bcf	3,5	;RP0=0, select bank0
  3353  08F0  1303               	bcf	3,6	;RP1=0, select bank0
  3354  08F1  0869               	movf	___fltol@f1+1,w
  3355  08F2  1683               	bsf	3,5	;RP0=1, select bank1
  3356  08F3  1303               	bcf	3,6	;RP1=0, select bank1
  3357  08F4  00A1               	movwf	(??___fltol^(0+128)+1)
  3358  08F5  1283               	bcf	3,5	;RP0=0, select bank0
  3359  08F6  1303               	bcf	3,6	;RP1=0, select bank0
  3360  08F7  086A               	movf	___fltol@f1+2,w
  3361  08F8  1683               	bsf	3,5	;RP0=1, select bank1
  3362  08F9  1303               	bcf	3,6	;RP1=0, select bank1
  3363  08FA  00A2               	movwf	(??___fltol^(0+128)+2)
  3364  08FB  1283               	bcf	3,5	;RP0=0, select bank0
  3365  08FC  1303               	bcf	3,6	;RP1=0, select bank0
  3366  08FD  086B               	movf	___fltol@f1+3,w
  3367  08FE  1683               	bsf	3,5	;RP0=1, select bank1
  3368  08FF  1303               	bcf	3,6	;RP1=0, select bank1
  3369  0900  00A3               	movwf	(??___fltol^(0+128)+3)
  3370  0901  301F               	movlw	31
  3371  0902                     u177_25:
  3372  0902  1003               	clrc
  3373  0903  0CA3               	rrf	(??___fltol^(0+128)+3),f
  3374  0904  0CA2               	rrf	(??___fltol^(0+128)+2),f
  3375  0905  0CA1               	rrf	(??___fltol^(0+128)+1),f
  3376  0906  0CA0               	rrf	??___fltol^(0+128),f
  3377  0907                     u177_20:
  3378  0907  3EFF               	addlw	-1
  3379  0908  1D03               	skipz
  3380  0909  2902               	goto	u177_25
  3381  090A  0820               	movf	??___fltol^(0+128),w
  3382  090B  00A4               	movwf	(??___fltol+4)^(0+128)
  3383  090C  0824               	movf	(??___fltol+4)^(0+128),w
  3384  090D  1283               	bcf	3,5	;RP0=0, select bank0
  3385  090E  1303               	bcf	3,6	;RP1=0, select bank0
  3386  090F  00EC               	movwf	___fltol@sign1
  3387  0910                     i1l1819:
  3388  0910  17EA               	bsf	___fltol@f1+2,7
  3389  0911                     i1l1821:
  3390  0911  30FF               	movlw	255
  3391  0912  05E8               	andwf	___fltol@f1,f
  3392  0913  30FF               	movlw	255
  3393  0914  05E9               	andwf	___fltol@f1+1,f
  3394  0915  30FF               	movlw	255
  3395  0916  05EA               	andwf	___fltol@f1+2,f
  3396  0917  3000               	movlw	0
  3397  0918  05EB               	andwf	___fltol@f1+3,f
  3398  0919                     i1l1823:
  3399  0919  3096               	movlw	150
  3400  091A  02ED               	subwf	___fltol@exp1,f
  3401  091B                     i1l1825:
  3402  091B  1FED               	btfss	___fltol@exp1,7
  3403  091C  291E               	goto	u178_21
  3404  091D  291F               	goto	u178_20
  3405  091E                     u178_21:
  3406  091E  293D               	goto	i1l1835
  3407  091F                     u178_20:
  3408  091F                     i1l1827:
  3409  091F  086D               	movf	___fltol@exp1,w
  3410  0920  3A80               	xorlw	128
  3411  0921  3E97               	addlw	151
  3412  0922  1803               	skipnc
  3413  0923  2925               	goto	u179_21
  3414  0924  2926               	goto	u179_20
  3415  0925                     u179_21:
  3416  0925  2927               	goto	i1l1833
  3417  0926                     u179_20:
  3418  0926  28E2               	goto	i1l1813
  3419  0927                     i1l1833:
  3420  0927  3001               	movlw	1
  3421  0928                     u180_25:
  3422  0928  1003               	clrc
  3423  0929  0CEB               	rrf	___fltol@f1+3,f
  3424  092A  0CEA               	rrf	___fltol@f1+2,f
  3425  092B  0CE9               	rrf	___fltol@f1+1,f
  3426  092C  0CE8               	rrf	___fltol@f1,f
  3427  092D  3EFF               	addlw	-1
  3428  092E  1D03               	skipz
  3429  092F  2928               	goto	u180_25
  3430  0930  3001               	movlw	1
  3431  0931  1683               	bsf	3,5	;RP0=1, select bank1
  3432  0932  1303               	bcf	3,6	;RP1=0, select bank1
  3433  0933  00A0               	movwf	??___fltol^(0+128)
  3434  0934  0820               	movf	??___fltol^(0+128),w
  3435  0935  1283               	bcf	3,5	;RP0=0, select bank0
  3436  0936  1303               	bcf	3,6	;RP1=0, select bank0
  3437  0937  07ED               	addwf	___fltol@exp1,f
  3438  0938  1D03               	btfss	3,2
  3439  0939  293B               	goto	u181_21
  3440  093A  293C               	goto	u181_20
  3441  093B                     u181_21:
  3442  093B  2927               	goto	i1l1833
  3443  093C                     u181_20:
  3444  093C  295C               	goto	i1l1843
  3445  093D                     i1l1835:
  3446  093D  3020               	movlw	32
  3447  093E  026D               	subwf	___fltol@exp1,w
  3448  093F  1C03               	skipc
  3449  0940  2942               	goto	u182_21
  3450  0941  2943               	goto	u182_20
  3451  0942                     u182_21:
  3452  0942  2957               	goto	i1l488
  3453  0943                     u182_20:
  3454  0943  28E2               	goto	i1l1813
  3455  0944                     i1l1841:
  3456  0944  3001               	movlw	1
  3457  0945  1683               	bsf	3,5	;RP0=1, select bank1
  3458  0946  1303               	bcf	3,6	;RP1=0, select bank1
  3459  0947  00A0               	movwf	??___fltol^(0+128)
  3460  0948                     u183_25:
  3461  0948  1003               	clrc
  3462  0949  1283               	bcf	3,5	;RP0=0, select bank0
  3463  094A  1303               	bcf	3,6	;RP1=0, select bank0
  3464  094B  0DE8               	rlf	___fltol@f1,f
  3465  094C  0DE9               	rlf	___fltol@f1+1,f
  3466  094D  0DEA               	rlf	___fltol@f1+2,f
  3467  094E  0DEB               	rlf	___fltol@f1+3,f
  3468  094F  1683               	bsf	3,5	;RP0=1, select bank1
  3469  0950  1303               	bcf	3,6	;RP1=0, select bank1
  3470  0951  0BA0               	decfsz	??___fltol^(0+128),f
  3471  0952  2948               	goto	u183_25
  3472  0953  3001               	movlw	1
  3473  0954  1283               	bcf	3,5	;RP0=0, select bank0
  3474  0955  1303               	bcf	3,6	;RP1=0, select bank0
  3475  0956  02ED               	subwf	___fltol@exp1,f
  3476  0957                     i1l488:
  3477  0957  086D               	movf	___fltol@exp1,w
  3478  0958  1D03               	btfss	3,2
  3479  0959  295B               	goto	u184_21
  3480  095A  295C               	goto	u184_20
  3481  095B                     u184_21:
  3482  095B  2944               	goto	i1l1841
  3483  095C                     u184_20:
  3484  095C                     i1l1843:
  3485  095C  086C               	movf	___fltol@sign1,w
  3486  095D  1903               	btfsc	3,2
  3487  095E  2960               	goto	u185_21
  3488  095F  2961               	goto	u185_20
  3489  0960                     u185_21:
  3490  0960  296C               	goto	i1l491
  3491  0961                     u185_20:
  3492  0961                     i1l1845:
  3493  0961  09E8               	comf	___fltol@f1,f
  3494  0962  09E9               	comf	___fltol@f1+1,f
  3495  0963  09EA               	comf	___fltol@f1+2,f
  3496  0964  09EB               	comf	___fltol@f1+3,f
  3497  0965  0AE8               	incf	___fltol@f1,f
  3498  0966  1903               	skipnz
  3499  0967  0AE9               	incf	___fltol@f1+1,f
  3500  0968  1903               	skipnz
  3501  0969  0AEA               	incf	___fltol@f1+2,f
  3502  096A  1903               	skipnz
  3503  096B  0AEB               	incf	___fltol@f1+3,f
  3504  096C                     i1l491:
  3505  096C                     i1l481:
  3506  096C  0008               	return
  3507  096D                     __end_of___fltol:
  3508                           
  3509                           	psect	text6
  3510  045F                     __ptext6:	
  3511 ;; *************** function ___flmul *****************
  3512 ;; Defined at:
  3513 ;;		line 8 in file "C:\Program Files\Microchip\xc8\v2.35\pic\sources\c90\common\sprcmul.c"
  3514 ;; Parameters:    Size  Location     Type
  3515 ;;  b               4   26[BANK0 ] long 
  3516 ;;  a               4   30[BANK0 ] long 
  3517 ;; Auto vars:     Size  Location     Type
  3518 ;;  prod            4   46[BANK0 ] struct .
  3519 ;;  grs             4   40[BANK0 ] unsigned long 
  3520 ;;  temp            2   50[BANK0 ] struct .
  3521 ;;  bexp            1   45[BANK0 ] unsigned char 
  3522 ;;  aexp            1   44[BANK0 ] unsigned char 
  3523 ;;  sign            1   39[BANK0 ] unsigned char 
  3524 ;; Return value:  Size  Location     Type
  3525 ;;                  4   26[BANK0 ] unsigned char 
  3526 ;; Registers used:
  3527 ;;		wreg, status,2, status,0, btemp+1, pclath, cstack
  3528 ;; Tracked objects:
  3529 ;;		On entry : 0/0
  3530 ;;		On exit  : 0/0
  3531 ;;		Unchanged: 0/0
  3532 ;; Data sizes:     COMMON   BANK0   BANK1   BANK3   BANK2
  3533 ;;      Params:         0       8       0       0       0
  3534 ;;      Locals:         0      13       0       0       0
  3535 ;;      Temps:          0       5       0       0       0
  3536 ;;      Totals:         0      26       0       0       0
  3537 ;;Total ram usage:       26 bytes
  3538 ;; Hardware stack levels used: 1
  3539 ;; Hardware stack levels required when called: 1
  3540 ;; This function calls:
  3541 ;;		__Umul8_16
  3542 ;; This function is called by:
  3543 ;;		_map
  3544 ;; This function uses a non-reentrant model
  3545 ;;
  3546                           
  3547  045F                     ___flmul:	
  3548                           ;psect for function ___flmul
  3549                           
  3550  045F                     i1l2183:	
  3551                           ;incstack = 0
  3552                           ; Regs used in ___flmul: [wreg+status,2+status,0+btemp+1+pclath+cstack]
  3553                           
  3554  045F  1283               	bcf	3,5	;RP0=0, select bank0
  3555  0460  1303               	bcf	3,6	;RP1=0, select bank0
  3556  0461  083D               	movf	___flmul@b+3,w
  3557  0462  3980               	andlw	128
  3558  0463  00C2               	movwf	??___flmul
  3559  0464  0842               	movf	??___flmul,w
  3560  0465  00C7               	movwf	___flmul@sign
  3561  0466                     i1l2185:
  3562  0466  083D               	movf	___flmul@b+3,w
  3563  0467  00C2               	movwf	??___flmul
  3564  0468  0742               	addwf	??___flmul,w
  3565  0469  00C3               	movwf	??___flmul+1
  3566  046A  0843               	movf	??___flmul+1,w
  3567  046B  00CD               	movwf	___flmul@bexp
  3568  046C                     i1l2187:
  3569  046C  1FBC               	btfss	___flmul@b+2,7
  3570  046D  2C6F               	goto	u261_21
  3571  046E  2C70               	goto	u261_20
  3572  046F                     u261_21:
  3573  046F  2C71               	goto	i1l2191
  3574  0470                     u261_20:
  3575  0470                     i1l2189:
  3576  0470  144D               	bsf	___flmul@bexp,0
  3577  0471                     i1l2191:
  3578  0471  084D               	movf	___flmul@bexp,w
  3579  0472  1903               	btfsc	3,2
  3580  0473  2C75               	goto	u262_21
  3581  0474  2C76               	goto	u262_20
  3582  0475                     u262_21:
  3583  0475  2C85               	goto	i1l2199
  3584  0476                     u262_20:
  3585  0476                     i1l2193:
  3586  0476  0A4D               	incf	___flmul@bexp,w
  3587  0477  1D03               	btfss	3,2
  3588  0478  2C7A               	goto	u263_21
  3589  0479  2C7B               	goto	u263_20
  3590  047A                     u263_21:
  3591  047A  2C83               	goto	i1l2197
  3592  047B                     u263_20:
  3593  047B                     i1l2195:
  3594  047B  3000               	movlw	0
  3595  047C  00BD               	movwf	___flmul@b+3
  3596  047D  3000               	movlw	0
  3597  047E  00BC               	movwf	___flmul@b+2
  3598  047F  3000               	movlw	0
  3599  0480  00BB               	movwf	___flmul@b+1
  3600  0481  3000               	movlw	0
  3601  0482  00BA               	movwf	___flmul@b
  3602  0483                     i1l2197:
  3603  0483  17BC               	bsf	___flmul@b+2,7
  3604  0484  2C8D               	goto	i1l2201
  3605  0485                     i1l2199:
  3606  0485  3000               	movlw	0
  3607  0486  00BD               	movwf	___flmul@b+3
  3608  0487  3000               	movlw	0
  3609  0488  00BC               	movwf	___flmul@b+2
  3610  0489  3000               	movlw	0
  3611  048A  00BB               	movwf	___flmul@b+1
  3612  048B  3000               	movlw	0
  3613  048C  00BA               	movwf	___flmul@b
  3614  048D                     i1l2201:
  3615  048D  0841               	movf	___flmul@a+3,w
  3616  048E  3980               	andlw	128
  3617  048F  00C2               	movwf	??___flmul
  3618  0490  0842               	movf	??___flmul,w
  3619  0491  06C7               	xorwf	___flmul@sign,f
  3620  0492                     i1l2203:
  3621  0492  0841               	movf	___flmul@a+3,w
  3622  0493  00C2               	movwf	??___flmul
  3623  0494  0742               	addwf	??___flmul,w
  3624  0495  00C3               	movwf	??___flmul+1
  3625  0496  0843               	movf	??___flmul+1,w
  3626  0497  00CC               	movwf	___flmul@aexp
  3627  0498                     i1l2205:
  3628  0498  1FC0               	btfss	___flmul@a+2,7
  3629  0499  2C9B               	goto	u264_21
  3630  049A  2C9C               	goto	u264_20
  3631  049B                     u264_21:
  3632  049B  2C9D               	goto	i1l2209
  3633  049C                     u264_20:
  3634  049C                     i1l2207:
  3635  049C  144C               	bsf	___flmul@aexp,0
  3636  049D                     i1l2209:
  3637  049D  084C               	movf	___flmul@aexp,w
  3638  049E  1903               	btfsc	3,2
  3639  049F  2CA1               	goto	u265_21
  3640  04A0  2CA2               	goto	u265_20
  3641  04A1                     u265_21:
  3642  04A1  2CB1               	goto	i1l2217
  3643  04A2                     u265_20:
  3644  04A2                     i1l2211:
  3645  04A2  0A4C               	incf	___flmul@aexp,w
  3646  04A3  1D03               	btfss	3,2
  3647  04A4  2CA6               	goto	u266_21
  3648  04A5  2CA7               	goto	u266_20
  3649  04A6                     u266_21:
  3650  04A6  2CAF               	goto	i1l2215
  3651  04A7                     u266_20:
  3652  04A7                     i1l2213:
  3653  04A7  3000               	movlw	0
  3654  04A8  00C1               	movwf	___flmul@a+3
  3655  04A9  3000               	movlw	0
  3656  04AA  00C0               	movwf	___flmul@a+2
  3657  04AB  3000               	movlw	0
  3658  04AC  00BF               	movwf	___flmul@a+1
  3659  04AD  3000               	movlw	0
  3660  04AE  00BE               	movwf	___flmul@a
  3661  04AF                     i1l2215:
  3662  04AF  17C0               	bsf	___flmul@a+2,7
  3663  04B0  2CB9               	goto	i1l2219
  3664  04B1                     i1l2217:
  3665  04B1  3000               	movlw	0
  3666  04B2  00C1               	movwf	___flmul@a+3
  3667  04B3  3000               	movlw	0
  3668  04B4  00C0               	movwf	___flmul@a+2
  3669  04B5  3000               	movlw	0
  3670  04B6  00BF               	movwf	___flmul@a+1
  3671  04B7  3000               	movlw	0
  3672  04B8  00BE               	movwf	___flmul@a
  3673  04B9                     i1l2219:
  3674  04B9  084C               	movf	___flmul@aexp,w
  3675  04BA  1903               	btfsc	3,2
  3676  04BB  2CBD               	goto	u267_21
  3677  04BC  2CBE               	goto	u267_20
  3678  04BD                     u267_21:
  3679  04BD  2CC3               	goto	i1l2223
  3680  04BE                     u267_20:
  3681  04BE                     i1l2221:
  3682  04BE  084D               	movf	___flmul@bexp,w
  3683  04BF  1D03               	btfss	3,2
  3684  04C0  2CC2               	goto	u268_21
  3685  04C1  2CC3               	goto	u268_20
  3686  04C2                     u268_21:
  3687  04C2  2CCC               	goto	i1l2227
  3688  04C3                     u268_20:
  3689  04C3                     i1l2223:
  3690  04C3  3000               	movlw	0
  3691  04C4  00BD               	movwf	?___flmul+3
  3692  04C5  3000               	movlw	0
  3693  04C6  00BC               	movwf	?___flmul+2
  3694  04C7  3000               	movlw	0
  3695  04C8  00BB               	movwf	?___flmul+1
  3696  04C9  3000               	movlw	0
  3697  04CA  00BA               	movwf	?___flmul
  3698  04CB  2FBF               	goto	i1l684
  3699  04CC                     i1l2227:
  3700  04CC  083A               	movf	___flmul@b,w
  3701  04CD  00C2               	movwf	??___flmul
  3702  04CE  0842               	movf	??___flmul,w
  3703  04CF  00F0               	movwf	__Umul8_16@multiplicand
  3704  04D0  0840               	movf	___flmul@a+2,w
  3705  04D1  120A  118A  27C0  120A  118A  	fcall	__Umul8_16
  3706  04D6  0871               	movf	?__Umul8_16+1,w
  3707  04D7  1283               	bcf	3,5	;RP0=0, select bank0
  3708  04D8  1303               	bcf	3,6	;RP1=0, select bank0
  3709  04D9  00D3               	movwf	___flmul@temp+1
  3710  04DA  0870               	movf	?__Umul8_16,w
  3711  04DB  00D2               	movwf	___flmul@temp
  3712  04DC                     i1l2229:
  3713  04DC  0852               	movf	___flmul@temp,w
  3714  04DD  00C2               	movwf	??___flmul
  3715  04DE  01C3               	clrf	??___flmul+1
  3716  04DF  01C4               	clrf	??___flmul+2
  3717  04E0  01C5               	clrf	??___flmul+3
  3718  04E1  0845               	movf	??___flmul+3,w
  3719  04E2  00CB               	movwf	___flmul@grs+3
  3720  04E3  0844               	movf	??___flmul+2,w
  3721  04E4  00CA               	movwf	___flmul@grs+2
  3722  04E5  0843               	movf	??___flmul+1,w
  3723  04E6  00C9               	movwf	___flmul@grs+1
  3724  04E7  0842               	movf	??___flmul,w
  3725  04E8  00C8               	movwf	___flmul@grs
  3726  04E9                     i1l2231:
  3727  04E9  0853               	movf	___flmul@temp+1,w
  3728  04EA  00C2               	movwf	??___flmul
  3729  04EB  01C3               	clrf	??___flmul+1
  3730  04EC  01C4               	clrf	??___flmul+2
  3731  04ED  01C5               	clrf	??___flmul+3
  3732  04EE  0845               	movf	??___flmul+3,w
  3733  04EF  00D1               	movwf	___flmul@prod+3
  3734  04F0  0844               	movf	??___flmul+2,w
  3735  04F1  00D0               	movwf	___flmul@prod+2
  3736  04F2  0843               	movf	??___flmul+1,w
  3737  04F3  00CF               	movwf	___flmul@prod+1
  3738  04F4  0842               	movf	??___flmul,w
  3739  04F5  00CE               	movwf	___flmul@prod
  3740  04F6  083B               	movf	___flmul@b+1,w
  3741  04F7  00C2               	movwf	??___flmul
  3742  04F8  0842               	movf	??___flmul,w
  3743  04F9  00F0               	movwf	__Umul8_16@multiplicand
  3744  04FA  083F               	movf	___flmul@a+1,w
  3745  04FB  120A  118A  27C0  120A  118A  	fcall	__Umul8_16
  3746  0500  0871               	movf	?__Umul8_16+1,w
  3747  0501  1283               	bcf	3,5	;RP0=0, select bank0
  3748  0502  1303               	bcf	3,6	;RP1=0, select bank0
  3749  0503  00D3               	movwf	___flmul@temp+1
  3750  0504  0870               	movf	?__Umul8_16,w
  3751  0505  00D2               	movwf	___flmul@temp
  3752  0506                     i1l2233:
  3753  0506  0852               	movf	___flmul@temp,w
  3754  0507  00C2               	movwf	??___flmul
  3755  0508  01C3               	clrf	??___flmul+1
  3756  0509  01C4               	clrf	??___flmul+2
  3757  050A  01C5               	clrf	??___flmul+3
  3758  050B  0842               	movf	??___flmul,w
  3759  050C  07C8               	addwf	___flmul@grs,f
  3760  050D  0843               	movf	??___flmul+1,w
  3761  050E  1103               	clrz
  3762  050F  1803               	skipnc
  3763  0510  3E01               	addlw	1
  3764  0511  1903               	skipnz
  3765  0512  2D14               	goto	u269_21
  3766  0513  07C9               	addwf	___flmul@grs+1,f
  3767  0514                     u269_21:
  3768  0514  0844               	movf	??___flmul+2,w
  3769  0515  1103               	clrz
  3770  0516  1803               	skipnc
  3771  0517  3E01               	addlw	1
  3772  0518  1903               	skipnz
  3773  0519  2D1B               	goto	u269_22
  3774  051A  07CA               	addwf	___flmul@grs+2,f
  3775  051B                     u269_22:
  3776  051B  0845               	movf	??___flmul+3,w
  3777  051C  1103               	clrz
  3778  051D  1803               	skipnc
  3779  051E  3E01               	addlw	1
  3780  051F  1903               	skipnz
  3781  0520  2D22               	goto	u269_23
  3782  0521  07CB               	addwf	___flmul@grs+3,f
  3783  0522                     u269_23:
  3784  0522                     i1l2235:
  3785  0522  0853               	movf	___flmul@temp+1,w
  3786  0523  00C2               	movwf	??___flmul
  3787  0524  01C3               	clrf	??___flmul+1
  3788  0525  01C4               	clrf	??___flmul+2
  3789  0526  01C5               	clrf	??___flmul+3
  3790  0527  0842               	movf	??___flmul,w
  3791  0528  07CE               	addwf	___flmul@prod,f
  3792  0529  0843               	movf	??___flmul+1,w
  3793  052A  1103               	clrz
  3794  052B  1803               	skipnc
  3795  052C  3E01               	addlw	1
  3796  052D  1903               	skipnz
  3797  052E  2D30               	goto	u270_21
  3798  052F  07CF               	addwf	___flmul@prod+1,f
  3799  0530                     u270_21:
  3800  0530  0844               	movf	??___flmul+2,w
  3801  0531  1103               	clrz
  3802  0532  1803               	skipnc
  3803  0533  3E01               	addlw	1
  3804  0534  1903               	skipnz
  3805  0535  2D37               	goto	u270_22
  3806  0536  07D0               	addwf	___flmul@prod+2,f
  3807  0537                     u270_22:
  3808  0537  0845               	movf	??___flmul+3,w
  3809  0538  1103               	clrz
  3810  0539  1803               	skipnc
  3811  053A  3E01               	addlw	1
  3812  053B  1903               	skipnz
  3813  053C  2D3E               	goto	u270_23
  3814  053D  07D1               	addwf	___flmul@prod+3,f
  3815  053E                     u270_23:
  3816  053E  083C               	movf	___flmul@b+2,w
  3817  053F  00C2               	movwf	??___flmul
  3818  0540  0842               	movf	??___flmul,w
  3819  0541  00F0               	movwf	__Umul8_16@multiplicand
  3820  0542  083E               	movf	___flmul@a,w
  3821  0543  120A  118A  27C0  120A  118A  	fcall	__Umul8_16
  3822  0548  0871               	movf	?__Umul8_16+1,w
  3823  0549  1283               	bcf	3,5	;RP0=0, select bank0
  3824  054A  1303               	bcf	3,6	;RP1=0, select bank0
  3825  054B  00D3               	movwf	___flmul@temp+1
  3826  054C  0870               	movf	?__Umul8_16,w
  3827  054D  00D2               	movwf	___flmul@temp
  3828  054E                     i1l2237:
  3829  054E  0852               	movf	___flmul@temp,w
  3830  054F  00C2               	movwf	??___flmul
  3831  0550  01C3               	clrf	??___flmul+1
  3832  0551  01C4               	clrf	??___flmul+2
  3833  0552  01C5               	clrf	??___flmul+3
  3834  0553  0842               	movf	??___flmul,w
  3835  0554  07C8               	addwf	___flmul@grs,f
  3836  0555  0843               	movf	??___flmul+1,w
  3837  0556  1103               	clrz
  3838  0557  1803               	skipnc
  3839  0558  3E01               	addlw	1
  3840  0559  1903               	skipnz
  3841  055A  2D5C               	goto	u271_21
  3842  055B  07C9               	addwf	___flmul@grs+1,f
  3843  055C                     u271_21:
  3844  055C  0844               	movf	??___flmul+2,w
  3845  055D  1103               	clrz
  3846  055E  1803               	skipnc
  3847  055F  3E01               	addlw	1
  3848  0560  1903               	skipnz
  3849  0561  2D63               	goto	u271_22
  3850  0562  07CA               	addwf	___flmul@grs+2,f
  3851  0563                     u271_22:
  3852  0563  0845               	movf	??___flmul+3,w
  3853  0564  1103               	clrz
  3854  0565  1803               	skipnc
  3855  0566  3E01               	addlw	1
  3856  0567  1903               	skipnz
  3857  0568  2D6A               	goto	u271_23
  3858  0569  07CB               	addwf	___flmul@grs+3,f
  3859  056A                     u271_23:
  3860  056A                     i1l2239:
  3861  056A  0853               	movf	___flmul@temp+1,w
  3862  056B  00C2               	movwf	??___flmul
  3863  056C  01C3               	clrf	??___flmul+1
  3864  056D  01C4               	clrf	??___flmul+2
  3865  056E  01C5               	clrf	??___flmul+3
  3866  056F  0842               	movf	??___flmul,w
  3867  0570  07CE               	addwf	___flmul@prod,f
  3868  0571  0843               	movf	??___flmul+1,w
  3869  0572  1103               	clrz
  3870  0573  1803               	skipnc
  3871  0574  3E01               	addlw	1
  3872  0575  1903               	skipnz
  3873  0576  2D78               	goto	u272_21
  3874  0577  07CF               	addwf	___flmul@prod+1,f
  3875  0578                     u272_21:
  3876  0578  0844               	movf	??___flmul+2,w
  3877  0579  1103               	clrz
  3878  057A  1803               	skipnc
  3879  057B  3E01               	addlw	1
  3880  057C  1903               	skipnz
  3881  057D  2D7F               	goto	u272_22
  3882  057E  07D0               	addwf	___flmul@prod+2,f
  3883  057F                     u272_22:
  3884  057F  0845               	movf	??___flmul+3,w
  3885  0580  1103               	clrz
  3886  0581  1803               	skipnc
  3887  0582  3E01               	addlw	1
  3888  0583  1903               	skipnz
  3889  0584  2D86               	goto	u272_23
  3890  0585  07D1               	addwf	___flmul@prod+3,f
  3891  0586                     u272_23:
  3892  0586                     i1l2241:
  3893  0586  3008               	movlw	8
  3894  0587  00C2               	movwf	??___flmul
  3895  0588                     u273_25:
  3896  0588  1003               	clrc
  3897  0589  0DC8               	rlf	___flmul@grs,f
  3898  058A  0DC9               	rlf	___flmul@grs+1,f
  3899  058B  0DCA               	rlf	___flmul@grs+2,f
  3900  058C  0DCB               	rlf	___flmul@grs+3,f
  3901  058D  0BC2               	decfsz	??___flmul,f
  3902  058E  2D88               	goto	u273_25
  3903  058F                     i1l2243:
  3904  058F  083B               	movf	___flmul@b+1,w
  3905  0590  00C2               	movwf	??___flmul
  3906  0591  0842               	movf	??___flmul,w
  3907  0592  00F0               	movwf	__Umul8_16@multiplicand
  3908  0593  083E               	movf	___flmul@a,w
  3909  0594  120A  118A  27C0  120A  118A  	fcall	__Umul8_16
  3910  0599  0871               	movf	?__Umul8_16+1,w
  3911  059A  1283               	bcf	3,5	;RP0=0, select bank0
  3912  059B  1303               	bcf	3,6	;RP1=0, select bank0
  3913  059C  00D3               	movwf	___flmul@temp+1
  3914  059D  0870               	movf	?__Umul8_16,w
  3915  059E  00D2               	movwf	___flmul@temp
  3916  059F                     i1l2245:
  3917  059F  0852               	movf	___flmul@temp,w
  3918  05A0  00C2               	movwf	??___flmul
  3919  05A1  0853               	movf	___flmul@temp+1,w
  3920  05A2  00C3               	movwf	??___flmul+1
  3921  05A3  01C4               	clrf	??___flmul+2
  3922  05A4  01C5               	clrf	??___flmul+3
  3923  05A5  0842               	movf	??___flmul,w
  3924  05A6  07C8               	addwf	___flmul@grs,f
  3925  05A7  0843               	movf	??___flmul+1,w
  3926  05A8  1103               	clrz
  3927  05A9  1803               	skipnc
  3928  05AA  3E01               	addlw	1
  3929  05AB  1903               	skipnz
  3930  05AC  2DAE               	goto	u274_21
  3931  05AD  07C9               	addwf	___flmul@grs+1,f
  3932  05AE                     u274_21:
  3933  05AE  0844               	movf	??___flmul+2,w
  3934  05AF  1103               	clrz
  3935  05B0  1803               	skipnc
  3936  05B1  3E01               	addlw	1
  3937  05B2  1903               	skipnz
  3938  05B3  2DB5               	goto	u274_22
  3939  05B4  07CA               	addwf	___flmul@grs+2,f
  3940  05B5                     u274_22:
  3941  05B5  0845               	movf	??___flmul+3,w
  3942  05B6  1103               	clrz
  3943  05B7  1803               	skipnc
  3944  05B8  3E01               	addlw	1
  3945  05B9  1903               	skipnz
  3946  05BA  2DBC               	goto	u274_23
  3947  05BB  07CB               	addwf	___flmul@grs+3,f
  3948  05BC                     u274_23:
  3949  05BC                     i1l2247:
  3950  05BC  083A               	movf	___flmul@b,w
  3951  05BD  00C2               	movwf	??___flmul
  3952  05BE  0842               	movf	??___flmul,w
  3953  05BF  00F0               	movwf	__Umul8_16@multiplicand
  3954  05C0  083F               	movf	___flmul@a+1,w
  3955  05C1  120A  118A  27C0  120A  118A  	fcall	__Umul8_16
  3956  05C6  0871               	movf	?__Umul8_16+1,w
  3957  05C7  1283               	bcf	3,5	;RP0=0, select bank0
  3958  05C8  1303               	bcf	3,6	;RP1=0, select bank0
  3959  05C9  00D3               	movwf	___flmul@temp+1
  3960  05CA  0870               	movf	?__Umul8_16,w
  3961  05CB  00D2               	movwf	___flmul@temp
  3962  05CC                     i1l2249:
  3963  05CC  0852               	movf	___flmul@temp,w
  3964  05CD  00C2               	movwf	??___flmul
  3965  05CE  0853               	movf	___flmul@temp+1,w
  3966  05CF  00C3               	movwf	??___flmul+1
  3967  05D0  01C4               	clrf	??___flmul+2
  3968  05D1  01C5               	clrf	??___flmul+3
  3969  05D2  0842               	movf	??___flmul,w
  3970  05D3  07C8               	addwf	___flmul@grs,f
  3971  05D4  0843               	movf	??___flmul+1,w
  3972  05D5  1103               	clrz
  3973  05D6  1803               	skipnc
  3974  05D7  3E01               	addlw	1
  3975  05D8  1903               	skipnz
  3976  05D9  2DDB               	goto	u275_21
  3977  05DA  07C9               	addwf	___flmul@grs+1,f
  3978  05DB                     u275_21:
  3979  05DB  0844               	movf	??___flmul+2,w
  3980  05DC  1103               	clrz
  3981  05DD  1803               	skipnc
  3982  05DE  3E01               	addlw	1
  3983  05DF  1903               	skipnz
  3984  05E0  2DE2               	goto	u275_22
  3985  05E1  07CA               	addwf	___flmul@grs+2,f
  3986  05E2                     u275_22:
  3987  05E2  0845               	movf	??___flmul+3,w
  3988  05E3  1103               	clrz
  3989  05E4  1803               	skipnc
  3990  05E5  3E01               	addlw	1
  3991  05E6  1903               	skipnz
  3992  05E7  2DE9               	goto	u275_23
  3993  05E8  07CB               	addwf	___flmul@grs+3,f
  3994  05E9                     u275_23:
  3995  05E9                     i1l2251:
  3996  05E9  3008               	movlw	8
  3997  05EA  00C2               	movwf	??___flmul
  3998  05EB                     u276_25:
  3999  05EB  1003               	clrc
  4000  05EC  0DC8               	rlf	___flmul@grs,f
  4001  05ED  0DC9               	rlf	___flmul@grs+1,f
  4002  05EE  0DCA               	rlf	___flmul@grs+2,f
  4003  05EF  0DCB               	rlf	___flmul@grs+3,f
  4004  05F0  0BC2               	decfsz	??___flmul,f
  4005  05F1  2DEB               	goto	u276_25
  4006  05F2  083A               	movf	___flmul@b,w
  4007  05F3  00C2               	movwf	??___flmul
  4008  05F4  0842               	movf	??___flmul,w
  4009  05F5  00F0               	movwf	__Umul8_16@multiplicand
  4010  05F6  083E               	movf	___flmul@a,w
  4011  05F7  120A  118A  27C0  120A  118A  	fcall	__Umul8_16
  4012  05FC  0871               	movf	?__Umul8_16+1,w
  4013  05FD  1283               	bcf	3,5	;RP0=0, select bank0
  4014  05FE  1303               	bcf	3,6	;RP1=0, select bank0
  4015  05FF  00D3               	movwf	___flmul@temp+1
  4016  0600  0870               	movf	?__Umul8_16,w
  4017  0601  00D2               	movwf	___flmul@temp
  4018  0602                     i1l2253:
  4019  0602  0852               	movf	___flmul@temp,w
  4020  0603  00C2               	movwf	??___flmul
  4021  0604  0853               	movf	___flmul@temp+1,w
  4022  0605  00C3               	movwf	??___flmul+1
  4023  0606  01C4               	clrf	??___flmul+2
  4024  0607  01C5               	clrf	??___flmul+3
  4025  0608  0842               	movf	??___flmul,w
  4026  0609  07C8               	addwf	___flmul@grs,f
  4027  060A  0843               	movf	??___flmul+1,w
  4028  060B  1103               	clrz
  4029  060C  1803               	skipnc
  4030  060D  3E01               	addlw	1
  4031  060E  1903               	skipnz
  4032  060F  2E11               	goto	u277_21
  4033  0610  07C9               	addwf	___flmul@grs+1,f
  4034  0611                     u277_21:
  4035  0611  0844               	movf	??___flmul+2,w
  4036  0612  1103               	clrz
  4037  0613  1803               	skipnc
  4038  0614  3E01               	addlw	1
  4039  0615  1903               	skipnz
  4040  0616  2E18               	goto	u277_22
  4041  0617  07CA               	addwf	___flmul@grs+2,f
  4042  0618                     u277_22:
  4043  0618  0845               	movf	??___flmul+3,w
  4044  0619  1103               	clrz
  4045  061A  1803               	skipnc
  4046  061B  3E01               	addlw	1
  4047  061C  1903               	skipnz
  4048  061D  2E1F               	goto	u277_23
  4049  061E  07CB               	addwf	___flmul@grs+3,f
  4050  061F                     u277_23:
  4051  061F                     i1l2255:
  4052  061F  083B               	movf	___flmul@b+1,w
  4053  0620  00C2               	movwf	??___flmul
  4054  0621  0842               	movf	??___flmul,w
  4055  0622  00F0               	movwf	__Umul8_16@multiplicand
  4056  0623  0840               	movf	___flmul@a+2,w
  4057  0624  120A  118A  27C0  120A  118A  	fcall	__Umul8_16
  4058  0629  0871               	movf	?__Umul8_16+1,w
  4059  062A  1283               	bcf	3,5	;RP0=0, select bank0
  4060  062B  1303               	bcf	3,6	;RP1=0, select bank0
  4061  062C  00D3               	movwf	___flmul@temp+1
  4062  062D  0870               	movf	?__Umul8_16,w
  4063  062E  00D2               	movwf	___flmul@temp
  4064  062F  0852               	movf	___flmul@temp,w
  4065  0630  00C2               	movwf	??___flmul
  4066  0631  0853               	movf	___flmul@temp+1,w
  4067  0632  00C3               	movwf	??___flmul+1
  4068  0633  01C4               	clrf	??___flmul+2
  4069  0634  01C5               	clrf	??___flmul+3
  4070  0635  0842               	movf	??___flmul,w
  4071  0636  07CE               	addwf	___flmul@prod,f
  4072  0637  0843               	movf	??___flmul+1,w
  4073  0638  1103               	clrz
  4074  0639  1803               	skipnc
  4075  063A  3E01               	addlw	1
  4076  063B  1903               	skipnz
  4077  063C  2E3E               	goto	u278_21
  4078  063D  07CF               	addwf	___flmul@prod+1,f
  4079  063E                     u278_21:
  4080  063E  0844               	movf	??___flmul+2,w
  4081  063F  1103               	clrz
  4082  0640  1803               	skipnc
  4083  0641  3E01               	addlw	1
  4084  0642  1903               	skipnz
  4085  0643  2E45               	goto	u278_22
  4086  0644  07D0               	addwf	___flmul@prod+2,f
  4087  0645                     u278_22:
  4088  0645  0845               	movf	??___flmul+3,w
  4089  0646  1103               	clrz
  4090  0647  1803               	skipnc
  4091  0648  3E01               	addlw	1
  4092  0649  1903               	skipnz
  4093  064A  2E4C               	goto	u278_23
  4094  064B  07D1               	addwf	___flmul@prod+3,f
  4095  064C                     u278_23:
  4096  064C                     i1l2257:
  4097  064C  083C               	movf	___flmul@b+2,w
  4098  064D  00C2               	movwf	??___flmul
  4099  064E  0842               	movf	??___flmul,w
  4100  064F  00F0               	movwf	__Umul8_16@multiplicand
  4101  0650  083F               	movf	___flmul@a+1,w
  4102  0651  120A  118A  27C0  120A  118A  	fcall	__Umul8_16
  4103  0656  0871               	movf	?__Umul8_16+1,w
  4104  0657  1283               	bcf	3,5	;RP0=0, select bank0
  4105  0658  1303               	bcf	3,6	;RP1=0, select bank0
  4106  0659  00D3               	movwf	___flmul@temp+1
  4107  065A  0870               	movf	?__Umul8_16,w
  4108  065B  00D2               	movwf	___flmul@temp
  4109  065C                     i1l2259:
  4110  065C  0852               	movf	___flmul@temp,w
  4111  065D  00C2               	movwf	??___flmul
  4112  065E  0853               	movf	___flmul@temp+1,w
  4113  065F  00C3               	movwf	??___flmul+1
  4114  0660  01C4               	clrf	??___flmul+2
  4115  0661  01C5               	clrf	??___flmul+3
  4116  0662  0842               	movf	??___flmul,w
  4117  0663  07CE               	addwf	___flmul@prod,f
  4118  0664  0843               	movf	??___flmul+1,w
  4119  0665  1103               	clrz
  4120  0666  1803               	skipnc
  4121  0667  3E01               	addlw	1
  4122  0668  1903               	skipnz
  4123  0669  2E6B               	goto	u279_21
  4124  066A  07CF               	addwf	___flmul@prod+1,f
  4125  066B                     u279_21:
  4126  066B  0844               	movf	??___flmul+2,w
  4127  066C  1103               	clrz
  4128  066D  1803               	skipnc
  4129  066E  3E01               	addlw	1
  4130  066F  1903               	skipnz
  4131  0670  2E72               	goto	u279_22
  4132  0671  07D0               	addwf	___flmul@prod+2,f
  4133  0672                     u279_22:
  4134  0672  0845               	movf	??___flmul+3,w
  4135  0673  1103               	clrz
  4136  0674  1803               	skipnc
  4137  0675  3E01               	addlw	1
  4138  0676  1903               	skipnz
  4139  0677  2E79               	goto	u279_23
  4140  0678  07D1               	addwf	___flmul@prod+3,f
  4141  0679                     u279_23:
  4142  0679  083C               	movf	___flmul@b+2,w
  4143  067A  00C2               	movwf	??___flmul
  4144  067B  0842               	movf	??___flmul,w
  4145  067C  00F0               	movwf	__Umul8_16@multiplicand
  4146  067D  0840               	movf	___flmul@a+2,w
  4147  067E  120A  118A  27C0  120A  118A  	fcall	__Umul8_16
  4148  0683  0871               	movf	?__Umul8_16+1,w
  4149  0684  1283               	bcf	3,5	;RP0=0, select bank0
  4150  0685  1303               	bcf	3,6	;RP1=0, select bank0
  4151  0686  00D3               	movwf	___flmul@temp+1
  4152  0687  0870               	movf	?__Umul8_16,w
  4153  0688  00D2               	movwf	___flmul@temp
  4154  0689                     i1l2261:
  4155  0689  0852               	movf	___flmul@temp,w
  4156  068A  00C2               	movwf	??___flmul
  4157  068B  0853               	movf	___flmul@temp+1,w
  4158  068C  00C3               	movwf	??___flmul+1
  4159  068D  01C4               	clrf	??___flmul+2
  4160  068E  01C5               	clrf	??___flmul+3
  4161  068F  3008               	movlw	8
  4162  0690                     u280_25:
  4163  0690  1003               	clrc
  4164  0691  0DC2               	rlf	??___flmul,f
  4165  0692  0DC3               	rlf	??___flmul+1,f
  4166  0693  0DC4               	rlf	??___flmul+2,f
  4167  0694  0DC5               	rlf	??___flmul+3,f
  4168  0695                     u280_20:
  4169  0695  3EFF               	addlw	-1
  4170  0696  1D03               	skipz
  4171  0697  2E90               	goto	u280_25
  4172  0698  0842               	movf	??___flmul,w
  4173  0699  07CE               	addwf	___flmul@prod,f
  4174  069A  0843               	movf	??___flmul+1,w
  4175  069B  1103               	clrz
  4176  069C  1803               	skipnc
  4177  069D  3E01               	addlw	1
  4178  069E  1903               	skipnz
  4179  069F  2EA1               	goto	u281_21
  4180  06A0  07CF               	addwf	___flmul@prod+1,f
  4181  06A1                     u281_21:
  4182  06A1  0844               	movf	??___flmul+2,w
  4183  06A2  1103               	clrz
  4184  06A3  1803               	skipnc
  4185  06A4  3E01               	addlw	1
  4186  06A5  1903               	skipnz
  4187  06A6  2EA8               	goto	u281_22
  4188  06A7  07D0               	addwf	___flmul@prod+2,f
  4189  06A8                     u281_22:
  4190  06A8  0845               	movf	??___flmul+3,w
  4191  06A9  1103               	clrz
  4192  06AA  1803               	skipnc
  4193  06AB  3E01               	addlw	1
  4194  06AC  1903               	skipnz
  4195  06AD  2EAF               	goto	u281_23
  4196  06AE  07D1               	addwf	___flmul@prod+3,f
  4197  06AF                     u281_23:
  4198  06AF                     i1l2263:
  4199  06AF  0848               	movf	___flmul@grs,w
  4200  06B0  00C2               	movwf	??___flmul
  4201  06B1  0849               	movf	___flmul@grs+1,w
  4202  06B2  00C3               	movwf	??___flmul+1
  4203  06B3  084A               	movf	___flmul@grs+2,w
  4204  06B4  00C4               	movwf	??___flmul+2
  4205  06B5  084B               	movf	___flmul@grs+3,w
  4206  06B6  00C5               	movwf	??___flmul+3
  4207  06B7  3018               	movlw	24
  4208  06B8                     u282_25:
  4209  06B8  1003               	clrc
  4210  06B9  0CC5               	rrf	??___flmul+3,f
  4211  06BA  0CC4               	rrf	??___flmul+2,f
  4212  06BB  0CC3               	rrf	??___flmul+1,f
  4213  06BC  0CC2               	rrf	??___flmul,f
  4214  06BD                     u282_20:
  4215  06BD  3EFF               	addlw	-1
  4216  06BE  1D03               	skipz
  4217  06BF  2EB8               	goto	u282_25
  4218  06C0  0842               	movf	??___flmul,w
  4219  06C1  07CE               	addwf	___flmul@prod,f
  4220  06C2  0843               	movf	??___flmul+1,w
  4221  06C3  1103               	clrz
  4222  06C4  1803               	skipnc
  4223  06C5  3E01               	addlw	1
  4224  06C6  1903               	skipnz
  4225  06C7  2EC9               	goto	u283_21
  4226  06C8  07CF               	addwf	___flmul@prod+1,f
  4227  06C9                     u283_21:
  4228  06C9  0844               	movf	??___flmul+2,w
  4229  06CA  1103               	clrz
  4230  06CB  1803               	skipnc
  4231  06CC  3E01               	addlw	1
  4232  06CD  1903               	skipnz
  4233  06CE  2ED0               	goto	u283_22
  4234  06CF  07D0               	addwf	___flmul@prod+2,f
  4235  06D0                     u283_22:
  4236  06D0  0845               	movf	??___flmul+3,w
  4237  06D1  1103               	clrz
  4238  06D2  1803               	skipnc
  4239  06D3  3E01               	addlw	1
  4240  06D4  1903               	skipnz
  4241  06D5  2ED7               	goto	u283_23
  4242  06D6  07D1               	addwf	___flmul@prod+3,f
  4243  06D7                     u283_23:
  4244  06D7                     i1l2265:
  4245  06D7  3008               	movlw	8
  4246  06D8  00C2               	movwf	??___flmul
  4247  06D9                     u284_25:
  4248  06D9  1003               	clrc
  4249  06DA  0DC8               	rlf	___flmul@grs,f
  4250  06DB  0DC9               	rlf	___flmul@grs+1,f
  4251  06DC  0DCA               	rlf	___flmul@grs+2,f
  4252  06DD  0DCB               	rlf	___flmul@grs+3,f
  4253  06DE  0BC2               	decfsz	??___flmul,f
  4254  06DF  2ED9               	goto	u284_25
  4255  06E0                     i1l2267:
  4256  06E0  084D               	movf	___flmul@bexp,w
  4257  06E1  074C               	addwf	___flmul@aexp,w
  4258  06E2  00C2               	movwf	??___flmul
  4259  06E3  01C3               	clrf	??___flmul+1
  4260  06E4  0DC3               	rlf	??___flmul+1,f
  4261  06E5  0842               	movf	??___flmul,w
  4262  06E6  3E82               	addlw	130
  4263  06E7  00D2               	movwf	___flmul@temp
  4264  06E8  0843               	movf	??___flmul+1,w
  4265  06E9  1803               	skipnc
  4266  06EA  3E01               	addlw	1
  4267  06EB  3EFF               	addlw	255
  4268  06EC  00D3               	movwf	___flmul@temp+1
  4269  06ED  2F0B               	goto	i1l2279
  4270  06EE                     i1l2269:
  4271  06EE  3001               	movlw	1
  4272  06EF  00C2               	movwf	??___flmul
  4273  06F0                     u285_25:
  4274  06F0  1003               	clrc
  4275  06F1  0DCE               	rlf	___flmul@prod,f
  4276  06F2  0DCF               	rlf	___flmul@prod+1,f
  4277  06F3  0DD0               	rlf	___flmul@prod+2,f
  4278  06F4  0DD1               	rlf	___flmul@prod+3,f
  4279  06F5  0BC2               	decfsz	??___flmul,f
  4280  06F6  2EF0               	goto	u285_25
  4281  06F7                     i1l2271:
  4282  06F7  1FCB               	btfss	___flmul@grs+3,7
  4283  06F8  2EFA               	goto	u286_21
  4284  06F9  2EFB               	goto	u286_20
  4285  06FA                     u286_21:
  4286  06FA  2EFC               	goto	i1l2275
  4287  06FB                     u286_20:
  4288  06FB                     i1l2273:
  4289  06FB  144E               	bsf	___flmul@prod,0
  4290  06FC                     i1l2275:
  4291  06FC  3001               	movlw	1
  4292  06FD  00C2               	movwf	??___flmul
  4293  06FE                     u287_25:
  4294  06FE  1003               	clrc
  4295  06FF  0DC8               	rlf	___flmul@grs,f
  4296  0700  0DC9               	rlf	___flmul@grs+1,f
  4297  0701  0DCA               	rlf	___flmul@grs+2,f
  4298  0702  0DCB               	rlf	___flmul@grs+3,f
  4299  0703  0BC2               	decfsz	??___flmul,f
  4300  0704  2EFE               	goto	u287_25
  4301  0705                     i1l2277:
  4302  0705  30FF               	movlw	255
  4303  0706  07D2               	addwf	___flmul@temp,f
  4304  0707  1803               	skipnc
  4305  0708  0AD3               	incf	___flmul@temp+1,f
  4306  0709  30FF               	movlw	255
  4307  070A  07D3               	addwf	___flmul@temp+1,f
  4308  070B                     i1l2279:
  4309  070B  1FD0               	btfss	___flmul@prod+2,7
  4310  070C  2F0E               	goto	u288_21
  4311  070D  2F0F               	goto	u288_20
  4312  070E                     u288_21:
  4313  070E  2EEE               	goto	i1l2269
  4314  070F                     u288_20:
  4315  070F                     i1l2281:
  4316  070F  01CC               	clrf	___flmul@aexp
  4317  0710                     i1l2283:
  4318  0710  1FCB               	btfss	___flmul@grs+3,7
  4319  0711  2F13               	goto	u289_21
  4320  0712  2F14               	goto	u289_20
  4321  0713                     u289_21:
  4322  0713  2F30               	goto	i1l2291
  4323  0714                     u289_20:
  4324  0714                     i1l2285:
  4325  0714  30FF               	movlw	255
  4326  0715  0548               	andwf	___flmul@grs,w
  4327  0716  00C2               	movwf	??___flmul
  4328  0717  30FF               	movlw	255
  4329  0718  0549               	andwf	___flmul@grs+1,w
  4330  0719  00C3               	movwf	??___flmul+1
  4331  071A  30FF               	movlw	255
  4332  071B  054A               	andwf	___flmul@grs+2,w
  4333  071C  00C4               	movwf	??___flmul+2
  4334  071D  307F               	movlw	127
  4335  071E  054B               	andwf	___flmul@grs+3,w
  4336  071F  00C5               	movwf	??___flmul+3
  4337  0720  0845               	movf	??___flmul+3,w
  4338  0721  0444               	iorwf	??___flmul+2,w
  4339  0722  0443               	iorwf	??___flmul+1,w
  4340  0723  0442               	iorwf	??___flmul,w
  4341  0724  1903               	skipnz
  4342  0725  2F27               	goto	u290_21
  4343  0726  2F28               	goto	u290_20
  4344  0727                     u290_21:
  4345  0727  2F2B               	goto	i1l690
  4346  0728                     u290_20:
  4347  0728                     i1l2287:
  4348  0728  01CC               	clrf	___flmul@aexp
  4349  0729  0ACC               	incf	___flmul@aexp,f
  4350  072A  2F30               	goto	i1l2291
  4351  072B                     i1l690:
  4352  072B  1C4E               	btfss	___flmul@prod,0
  4353  072C  2F2E               	goto	u291_21
  4354  072D  2F2F               	goto	u291_20
  4355  072E                     u291_21:
  4356  072E  2F30               	goto	i1l2291
  4357  072F                     u291_20:
  4358  072F  2F28               	goto	i1l2287
  4359  0730                     i1l2291:
  4360  0730  084C               	movf	___flmul@aexp,w
  4361  0731  1903               	btfsc	3,2
  4362  0732  2F34               	goto	u292_21
  4363  0733  2F35               	goto	u292_20
  4364  0734                     u292_21:
  4365  0734  2F66               	goto	i1l2301
  4366  0735                     u292_20:
  4367  0735                     i1l2293:
  4368  0735  3001               	movlw	1
  4369  0736  07CE               	addwf	___flmul@prod,f
  4370  0737  3000               	movlw	0
  4371  0738  1803               	skipnc
  4372  0739  3001               	movlw	1
  4373  073A  07CF               	addwf	___flmul@prod+1,f
  4374  073B  3000               	movlw	0
  4375  073C  1803               	skipnc
  4376  073D  3001               	movlw	1
  4377  073E  07D0               	addwf	___flmul@prod+2,f
  4378  073F  3000               	movlw	0
  4379  0740  1803               	skipnc
  4380  0741  3001               	movlw	1
  4381  0742  07D1               	addwf	___flmul@prod+3,f
  4382  0743                     i1l2295:
  4383  0743  1C51               	btfss	___flmul@prod+3,0
  4384  0744  2F46               	goto	u293_21
  4385  0745  2F47               	goto	u293_20
  4386  0746                     u293_21:
  4387  0746  2F66               	goto	i1l2301
  4388  0747                     u293_20:
  4389  0747                     i1l2297:
  4390  0747  084E               	movf	___flmul@prod,w
  4391  0748  00C2               	movwf	??___flmul
  4392  0749  084F               	movf	___flmul@prod+1,w
  4393  074A  00C3               	movwf	??___flmul+1
  4394  074B  0850               	movf	___flmul@prod+2,w
  4395  074C  00C4               	movwf	??___flmul+2
  4396  074D  0851               	movf	___flmul@prod+3,w
  4397  074E  00C5               	movwf	??___flmul+3
  4398  074F  3001               	movlw	1
  4399  0750  00C6               	movwf	??___flmul+4
  4400  0751                     u294_25:
  4401  0751  0D45               	rlf	??___flmul+3,w
  4402  0752  0CC5               	rrf	??___flmul+3,f
  4403  0753  0CC4               	rrf	??___flmul+2,f
  4404  0754  0CC3               	rrf	??___flmul+1,f
  4405  0755  0CC2               	rrf	??___flmul,f
  4406  0756                     u294_20:
  4407  0756  0BC6               	decfsz	??___flmul+4,f
  4408  0757  2F51               	goto	u294_25
  4409  0758  0845               	movf	??___flmul+3,w
  4410  0759  00D1               	movwf	___flmul@prod+3
  4411  075A  0844               	movf	??___flmul+2,w
  4412  075B  00D0               	movwf	___flmul@prod+2
  4413  075C  0843               	movf	??___flmul+1,w
  4414  075D  00CF               	movwf	___flmul@prod+1
  4415  075E  0842               	movf	??___flmul,w
  4416  075F  00CE               	movwf	___flmul@prod
  4417  0760                     i1l2299:
  4418  0760  3001               	movlw	1
  4419  0761  07D2               	addwf	___flmul@temp,f
  4420  0762  1803               	skipnc
  4421  0763  0AD3               	incf	___flmul@temp+1,f
  4422  0764  3000               	movlw	0
  4423  0765  07D3               	addwf	___flmul@temp+1,f
  4424  0766                     i1l2301:
  4425  0766  0853               	movf	___flmul@temp+1,w
  4426  0767  3A80               	xorlw	128
  4427  0768  00FF               	movwf	btemp+1
  4428  0769  3080               	movlw	128
  4429  076A  027F               	subwf	btemp+1,w
  4430  076B  1D03               	skipz
  4431  076C  2F6F               	goto	u295_25
  4432  076D  30FF               	movlw	255
  4433  076E  0252               	subwf	___flmul@temp,w
  4434  076F                     u295_25:
  4435  076F  1C03               	skipc
  4436  0770  2F72               	goto	u295_21
  4437  0771  2F73               	goto	u295_20
  4438  0772                     u295_21:
  4439  0772  2F7E               	goto	i1l2305
  4440  0773                     u295_20:
  4441  0773                     i1l2303:
  4442  0773  307F               	movlw	127
  4443  0774  1283               	bcf	3,5	;RP0=0, select bank0
  4444  0775  1303               	bcf	3,6	;RP1=0, select bank0
  4445  0776  00D1               	movwf	___flmul@prod+3
  4446  0777  3080               	movlw	128
  4447  0778  00D0               	movwf	___flmul@prod+2
  4448  0779  3000               	movlw	0
  4449  077A  00CF               	movwf	___flmul@prod+1
  4450  077B  3000               	movlw	0
  4451  077C  00CE               	movwf	___flmul@prod
  4452  077D  2FB3               	goto	i1l696
  4453  077E                     i1l2305:
  4454  077E  1283               	bcf	3,5	;RP0=0, select bank0
  4455  077F  1303               	bcf	3,6	;RP1=0, select bank0
  4456  0780  0853               	movf	___flmul@temp+1,w
  4457  0781  3A80               	xorlw	128
  4458  0782  00FF               	movwf	btemp+1
  4459  0783  3080               	movlw	128
  4460  0784  027F               	subwf	btemp+1,w
  4461  0785  1D03               	skipz
  4462  0786  2F89               	goto	u296_25
  4463  0787  3001               	movlw	1
  4464  0788  0252               	subwf	___flmul@temp,w
  4465  0789                     u296_25:
  4466  0789  1803               	skipnc
  4467  078A  2F8C               	goto	u296_21
  4468  078B  2F8D               	goto	u296_20
  4469  078C                     u296_21:
  4470  078C  2F99               	goto	i1l2311
  4471  078D                     u296_20:
  4472  078D                     i1l2307:
  4473  078D  3000               	movlw	0
  4474  078E  1283               	bcf	3,5	;RP0=0, select bank0
  4475  078F  1303               	bcf	3,6	;RP1=0, select bank0
  4476  0790  00D1               	movwf	___flmul@prod+3
  4477  0791  3000               	movlw	0
  4478  0792  00D0               	movwf	___flmul@prod+2
  4479  0793  3000               	movlw	0
  4480  0794  00CF               	movwf	___flmul@prod+1
  4481  0795  3000               	movlw	0
  4482  0796  00CE               	movwf	___flmul@prod
  4483  0797                     i1l2309:
  4484  0797  01C7               	clrf	___flmul@sign
  4485  0798  2FB3               	goto	i1l696
  4486  0799                     i1l2311:
  4487  0799  1283               	bcf	3,5	;RP0=0, select bank0
  4488  079A  1303               	bcf	3,6	;RP1=0, select bank0
  4489  079B  0852               	movf	___flmul@temp,w
  4490  079C  00C2               	movwf	??___flmul
  4491  079D  0842               	movf	??___flmul,w
  4492  079E  00CD               	movwf	___flmul@bexp
  4493  079F  30FF               	movlw	255
  4494  07A0  05CE               	andwf	___flmul@prod,f
  4495  07A1  30FF               	movlw	255
  4496  07A2  05CF               	andwf	___flmul@prod+1,f
  4497  07A3  307F               	movlw	127
  4498  07A4  05D0               	andwf	___flmul@prod+2,f
  4499  07A5  3000               	movlw	0
  4500  07A6  05D1               	andwf	___flmul@prod+3,f
  4501  07A7                     i1l2313:
  4502  07A7  1C4D               	btfss	___flmul@bexp,0
  4503  07A8  2FAA               	goto	u297_21
  4504  07A9  2FAB               	goto	u297_20
  4505  07AA                     u297_21:
  4506  07AA  2FAC               	goto	i1l2317
  4507  07AB                     u297_20:
  4508  07AB                     i1l2315:
  4509  07AB  17D0               	bsf	___flmul@prod+2,7
  4510  07AC                     i1l2317:
  4511  07AC  084D               	movf	___flmul@bexp,w
  4512  07AD  00C2               	movwf	??___flmul
  4513  07AE  1003               	clrc
  4514  07AF  0C42               	rrf	??___flmul,w
  4515  07B0  00C3               	movwf	??___flmul+1
  4516  07B1  0843               	movf	??___flmul+1,w
  4517  07B2  00D1               	movwf	___flmul@prod+3
  4518  07B3                     i1l696:
  4519  07B3  0847               	movf	___flmul@sign,w
  4520  07B4  00C2               	movwf	??___flmul
  4521  07B5  0842               	movf	??___flmul,w
  4522  07B6  04D1               	iorwf	___flmul@prod+3,f
  4523  07B7                     i1l2319:
  4524  07B7  0851               	movf	___flmul@prod+3,w
  4525  07B8  00BD               	movwf	?___flmul+3
  4526  07B9  0850               	movf	___flmul@prod+2,w
  4527  07BA  00BC               	movwf	?___flmul+2
  4528  07BB  084F               	movf	___flmul@prod+1,w
  4529  07BC  00BB               	movwf	?___flmul+1
  4530  07BD  084E               	movf	___flmul@prod,w
  4531  07BE  00BA               	movwf	?___flmul
  4532  07BF                     i1l684:
  4533  07BF  0008               	return
  4534  07C0                     __end_of___flmul:
  4535                           
  4536                           	psect	text7
  4537  07C0                     __ptext7:	
  4538 ;; *************** function __Umul8_16 *****************
  4539 ;; Defined at:
  4540 ;;		line 4 in file "C:\Program Files\Microchip\xc8\v2.35\pic\sources\c90\common\Umul8_16.c"
  4541 ;; Parameters:    Size  Location     Type
  4542 ;;  multiplier      1    wreg     unsigned char 
  4543 ;;  multiplicand    1    0[COMMON] unsigned char 
  4544 ;; Auto vars:     Size  Location     Type
  4545 ;;  multiplier      1    8[COMMON] unsigned char 
  4546 ;;  word_mpld       2    6[COMMON] unsigned int 
  4547 ;;  product         2    4[COMMON] unsigned int 
  4548 ;; Return value:  Size  Location     Type
  4549 ;;                  2    0[COMMON] unsigned int 
  4550 ;; Registers used:
  4551 ;;		wreg, status,2, status,0
  4552 ;; Tracked objects:
  4553 ;;		On entry : 0/0
  4554 ;;		On exit  : 0/0
  4555 ;;		Unchanged: 0/0
  4556 ;; Data sizes:     COMMON   BANK0   BANK1   BANK3   BANK2
  4557 ;;      Params:         2       0       0       0       0
  4558 ;;      Locals:         5       0       0       0       0
  4559 ;;      Temps:          2       0       0       0       0
  4560 ;;      Totals:         9       0       0       0       0
  4561 ;;Total ram usage:        9 bytes
  4562 ;; Hardware stack levels used: 1
  4563 ;; This function calls:
  4564 ;;		Nothing
  4565 ;; This function is called by:
  4566 ;;		___flmul
  4567 ;; This function uses a non-reentrant model
  4568 ;;
  4569                           
  4570  07C0                     __Umul8_16:	
  4571                           ;psect for function __Umul8_16
  4572                           
  4573                           
  4574                           ;incstack = 0
  4575                           ; Regs used in __Umul8_16: [wreg+status,2+status,0]
  4576                           ;__Umul8_16@multiplier stored from wreg
  4577  07C0  00F8               	movwf	__Umul8_16@multiplier
  4578  07C1                     i1l1781:
  4579  07C1  01F4               	clrf	__Umul8_16@product
  4580  07C2  01F5               	clrf	__Umul8_16@product+1
  4581  07C3                     i1l1783:
  4582  07C3  0870               	movf	__Umul8_16@multiplicand,w
  4583  07C4  00F2               	movwf	??__Umul8_16
  4584  07C5  01F3               	clrf	??__Umul8_16+1
  4585  07C6  0872               	movf	??__Umul8_16,w
  4586  07C7  00F6               	movwf	__Umul8_16@word_mpld
  4587  07C8  0873               	movf	??__Umul8_16+1,w
  4588  07C9  00F7               	movwf	__Umul8_16@word_mpld+1
  4589  07CA                     i1l1785:
  4590  07CA  1C78               	btfss	__Umul8_16@multiplier,0
  4591  07CB  2FCD               	goto	u173_21
  4592  07CC  2FCE               	goto	u173_20
  4593  07CD                     u173_21:
  4594  07CD  2FD4               	goto	i1l703
  4595  07CE                     u173_20:
  4596  07CE                     i1l1787:
  4597  07CE  0876               	movf	__Umul8_16@word_mpld,w
  4598  07CF  07F4               	addwf	__Umul8_16@product,f
  4599  07D0  1803               	skipnc
  4600  07D1  0AF5               	incf	__Umul8_16@product+1,f
  4601  07D2  0877               	movf	__Umul8_16@word_mpld+1,w
  4602  07D3  07F5               	addwf	__Umul8_16@product+1,f
  4603  07D4                     i1l703:
  4604  07D4  3001               	movlw	1
  4605  07D5                     u174_25:
  4606  07D5  1003               	clrc
  4607  07D6  0DF6               	rlf	__Umul8_16@word_mpld,f
  4608  07D7  0DF7               	rlf	__Umul8_16@word_mpld+1,f
  4609  07D8  3EFF               	addlw	-1
  4610  07D9  1D03               	skipz
  4611  07DA  2FD5               	goto	u174_25
  4612  07DB  1003               	clrc
  4613  07DC  0CF8               	rrf	__Umul8_16@multiplier,f
  4614  07DD                     i1l1789:
  4615  07DD  0878               	movf	__Umul8_16@multiplier,w
  4616  07DE  1D03               	btfss	3,2
  4617  07DF  2FE1               	goto	u175_21
  4618  07E0  2FE2               	goto	u175_20
  4619  07E1                     u175_21:
  4620  07E1  2FCA               	goto	i1l1785
  4621  07E2                     u175_20:
  4622  07E2                     i1l1791:
  4623  07E2  0875               	movf	__Umul8_16@product+1,w
  4624  07E3  00F1               	movwf	?__Umul8_16+1
  4625  07E4  0874               	movf	__Umul8_16@product,w
  4626  07E5  00F0               	movwf	?__Umul8_16
  4627  07E6                     i1l705:
  4628  07E6  0008               	return
  4629  07E7                     __end_of__Umul8_16:
  4630                           
  4631                           	psect	text8
  4632  0B9B                     __ptext8:	
  4633 ;; *************** function ___fldiv *****************
  4634 ;; Defined at:
  4635 ;;		line 8 in file "C:\Program Files\Microchip\xc8\v2.35\pic\sources\c90\common\sprcdiv.c"
  4636 ;; Parameters:    Size  Location     Type
  4637 ;;  a               4    0[BANK0 ] unsigned int 
  4638 ;;  b               4    4[BANK0 ] unsigned int 
  4639 ;; Auto vars:     Size  Location     Type
  4640 ;;  grs             4   20[BANK0 ] unsigned long 
  4641 ;;  rem             4   13[BANK0 ] unsigned long 
  4642 ;;  new_exp         2   18[BANK0 ] int 
  4643 ;;  aexp            1   25[BANK0 ] unsigned char 
  4644 ;;  bexp            1   24[BANK0 ] unsigned char 
  4645 ;;  sign            1   17[BANK0 ] unsigned char 
  4646 ;; Return value:  Size  Location     Type
  4647 ;;                  4    0[BANK0 ] unsigned char 
  4648 ;; Registers used:
  4649 ;;		wreg, status,2, status,0, btemp+1
  4650 ;; Tracked objects:
  4651 ;;		On entry : 0/0
  4652 ;;		On exit  : 0/0
  4653 ;;		Unchanged: 0/0
  4654 ;; Data sizes:     COMMON   BANK0   BANK1   BANK3   BANK2
  4655 ;;      Params:         0       8       0       0       0
  4656 ;;      Locals:         0      13       0       0       0
  4657 ;;      Temps:          0       5       0       0       0
  4658 ;;      Totals:         0      26       0       0       0
  4659 ;;Total ram usage:       26 bytes
  4660 ;; Hardware stack levels used: 1
  4661 ;; This function calls:
  4662 ;;		Nothing
  4663 ;; This function is called by:
  4664 ;;		_map
  4665 ;; This function uses a non-reentrant model
  4666 ;;
  4667                           
  4668  0B9B                     ___fldiv:	
  4669                           ;psect for function ___fldiv
  4670                           
  4671  0B9B                     i1l2041:	
  4672                           ;incstack = 0
  4673                           ; Regs used in ___fldiv: [wreg+status,2+status,0+btemp+1]
  4674                           
  4675  0B9B  1283               	bcf	3,5	;RP0=0, select bank0
  4676  0B9C  1303               	bcf	3,6	;RP1=0, select bank0
  4677  0B9D  0827               	movf	___fldiv@b+3,w
  4678  0B9E  3980               	andlw	128
  4679  0B9F  00A8               	movwf	??___fldiv
  4680  0BA0  0828               	movf	??___fldiv,w
  4681  0BA1  00B1               	movwf	___fldiv@sign
  4682  0BA2                     i1l2043:
  4683  0BA2  0827               	movf	___fldiv@b+3,w
  4684  0BA3  00A8               	movwf	??___fldiv
  4685  0BA4  0728               	addwf	??___fldiv,w
  4686  0BA5  00A9               	movwf	??___fldiv+1
  4687  0BA6  0829               	movf	??___fldiv+1,w
  4688  0BA7  00B8               	movwf	___fldiv@bexp
  4689  0BA8                     i1l2045:
  4690  0BA8  1FA6               	btfss	___fldiv@b+2,7
  4691  0BA9  2BAB               	goto	u232_21
  4692  0BAA  2BAC               	goto	u232_20
  4693  0BAB                     u232_21:
  4694  0BAB  2BAD               	goto	i1l2049
  4695  0BAC                     u232_20:
  4696  0BAC                     i1l2047:
  4697  0BAC  1438               	bsf	___fldiv@bexp,0
  4698  0BAD                     i1l2049:
  4699  0BAD  0838               	movf	___fldiv@bexp,w
  4700  0BAE  1903               	btfsc	3,2
  4701  0BAF  2BB1               	goto	u233_21
  4702  0BB0  2BB2               	goto	u233_20
  4703  0BB1                     u233_21:
  4704  0BB1  2BC2               	goto	i1l2059
  4705  0BB2                     u233_20:
  4706  0BB2                     i1l2051:
  4707  0BB2  0A38               	incf	___fldiv@bexp,w
  4708  0BB3  1D03               	btfss	3,2
  4709  0BB4  2BB6               	goto	u234_21
  4710  0BB5  2BB7               	goto	u234_20
  4711  0BB6                     u234_21:
  4712  0BB6  2BBF               	goto	i1l2055
  4713  0BB7                     u234_20:
  4714  0BB7                     i1l2053:
  4715  0BB7  3000               	movlw	0
  4716  0BB8  00A7               	movwf	___fldiv@b+3
  4717  0BB9  3000               	movlw	0
  4718  0BBA  00A6               	movwf	___fldiv@b+2
  4719  0BBB  3000               	movlw	0
  4720  0BBC  00A5               	movwf	___fldiv@b+1
  4721  0BBD  3000               	movlw	0
  4722  0BBE  00A4               	movwf	___fldiv@b
  4723  0BBF                     i1l2055:
  4724  0BBF  17A6               	bsf	___fldiv@b+2,7
  4725  0BC0                     i1l2057:
  4726  0BC0  01A7               	clrf	___fldiv@b+3
  4727  0BC1  2BCA               	goto	i1l2061
  4728  0BC2                     i1l2059:
  4729  0BC2  3000               	movlw	0
  4730  0BC3  00A7               	movwf	___fldiv@b+3
  4731  0BC4  3000               	movlw	0
  4732  0BC5  00A6               	movwf	___fldiv@b+2
  4733  0BC6  3000               	movlw	0
  4734  0BC7  00A5               	movwf	___fldiv@b+1
  4735  0BC8  3000               	movlw	0
  4736  0BC9  00A4               	movwf	___fldiv@b
  4737  0BCA                     i1l2061:
  4738  0BCA  0823               	movf	___fldiv@a+3,w
  4739  0BCB  3980               	andlw	128
  4740  0BCC  00A8               	movwf	??___fldiv
  4741  0BCD  0828               	movf	??___fldiv,w
  4742  0BCE  06B1               	xorwf	___fldiv@sign,f
  4743  0BCF                     i1l2063:
  4744  0BCF  0823               	movf	___fldiv@a+3,w
  4745  0BD0  00A8               	movwf	??___fldiv
  4746  0BD1  0728               	addwf	??___fldiv,w
  4747  0BD2  00A9               	movwf	??___fldiv+1
  4748  0BD3  0829               	movf	??___fldiv+1,w
  4749  0BD4  00B9               	movwf	___fldiv@aexp
  4750  0BD5                     i1l2065:
  4751  0BD5  1FA2               	btfss	___fldiv@a+2,7
  4752  0BD6  2BD8               	goto	u235_21
  4753  0BD7  2BD9               	goto	u235_20
  4754  0BD8                     u235_21:
  4755  0BD8  2BDA               	goto	i1l2069
  4756  0BD9                     u235_20:
  4757  0BD9                     i1l2067:
  4758  0BD9  1439               	bsf	___fldiv@aexp,0
  4759  0BDA                     i1l2069:
  4760  0BDA  0839               	movf	___fldiv@aexp,w
  4761  0BDB  1903               	btfsc	3,2
  4762  0BDC  2BDE               	goto	u236_21
  4763  0BDD  2BDF               	goto	u236_20
  4764  0BDE                     u236_21:
  4765  0BDE  2BEF               	goto	i1l2079
  4766  0BDF                     u236_20:
  4767  0BDF                     i1l2071:
  4768  0BDF  0A39               	incf	___fldiv@aexp,w
  4769  0BE0  1D03               	btfss	3,2
  4770  0BE1  2BE3               	goto	u237_21
  4771  0BE2  2BE4               	goto	u237_20
  4772  0BE3                     u237_21:
  4773  0BE3  2BEC               	goto	i1l2075
  4774  0BE4                     u237_20:
  4775  0BE4                     i1l2073:
  4776  0BE4  3000               	movlw	0
  4777  0BE5  00A3               	movwf	___fldiv@a+3
  4778  0BE6  3000               	movlw	0
  4779  0BE7  00A2               	movwf	___fldiv@a+2
  4780  0BE8  3000               	movlw	0
  4781  0BE9  00A1               	movwf	___fldiv@a+1
  4782  0BEA  3000               	movlw	0
  4783  0BEB  00A0               	movwf	___fldiv@a
  4784  0BEC                     i1l2075:
  4785  0BEC  17A2               	bsf	___fldiv@a+2,7
  4786  0BED                     i1l2077:
  4787  0BED  01A3               	clrf	___fldiv@a+3
  4788  0BEE  2BF7               	goto	i1l644
  4789  0BEF                     i1l2079:
  4790  0BEF  3000               	movlw	0
  4791  0BF0  00A3               	movwf	___fldiv@a+3
  4792  0BF1  3000               	movlw	0
  4793  0BF2  00A2               	movwf	___fldiv@a+2
  4794  0BF3  3000               	movlw	0
  4795  0BF4  00A1               	movwf	___fldiv@a+1
  4796  0BF5  3000               	movlw	0
  4797  0BF6  00A0               	movwf	___fldiv@a
  4798  0BF7                     i1l644:
  4799  0BF7  0823               	movf	___fldiv@a+3,w
  4800  0BF8  0422               	iorwf	___fldiv@a+2,w
  4801  0BF9  0421               	iorwf	___fldiv@a+1,w
  4802  0BFA  0420               	iorwf	___fldiv@a,w
  4803  0BFB  1D03               	skipz
  4804  0BFC  2BFE               	goto	u238_21
  4805  0BFD  2BFF               	goto	u238_20
  4806  0BFE                     u238_21:
  4807  0BFE  2C18               	goto	i1l2089
  4808  0BFF                     u238_20:
  4809  0BFF                     i1l2081:
  4810  0BFF  3000               	movlw	0
  4811  0C00  00A7               	movwf	___fldiv@b+3
  4812  0C01  3000               	movlw	0
  4813  0C02  00A6               	movwf	___fldiv@b+2
  4814  0C03  3000               	movlw	0
  4815  0C04  00A5               	movwf	___fldiv@b+1
  4816  0C05  3000               	movlw	0
  4817  0C06  00A4               	movwf	___fldiv@b
  4818  0C07  3080               	movlw	128
  4819  0C08  04A6               	iorwf	___fldiv@b+2,f
  4820  0C09  307F               	movlw	127
  4821  0C0A  04A7               	iorwf	___fldiv@b+3,f
  4822  0C0B                     i1l2083:
  4823  0C0B  0831               	movf	___fldiv@sign,w
  4824  0C0C  00A8               	movwf	??___fldiv
  4825  0C0D  0828               	movf	??___fldiv,w
  4826  0C0E  04A7               	iorwf	___fldiv@b+3,f
  4827  0C0F                     i1l2085:
  4828  0C0F  0827               	movf	___fldiv@b+3,w
  4829  0C10  00A3               	movwf	?___fldiv+3
  4830  0C11  0826               	movf	___fldiv@b+2,w
  4831  0C12  00A2               	movwf	?___fldiv+2
  4832  0C13  0825               	movf	___fldiv@b+1,w
  4833  0C14  00A1               	movwf	?___fldiv+1
  4834  0C15  0824               	movf	___fldiv@b,w
  4835  0C16  00A0               	movwf	?___fldiv
  4836  0C17  2D77               	goto	i1l646
  4837  0C18                     i1l2089:
  4838  0C18  0838               	movf	___fldiv@bexp,w
  4839  0C19  1D03               	btfss	3,2
  4840  0C1A  2C1C               	goto	u239_21
  4841  0C1B  2C1D               	goto	u239_20
  4842  0C1C                     u239_21:
  4843  0C1C  2C26               	goto	i1l2095
  4844  0C1D                     u239_20:
  4845  0C1D                     i1l2091:
  4846  0C1D  3000               	movlw	0
  4847  0C1E  00A3               	movwf	?___fldiv+3
  4848  0C1F  3000               	movlw	0
  4849  0C20  00A2               	movwf	?___fldiv+2
  4850  0C21  3000               	movlw	0
  4851  0C22  00A1               	movwf	?___fldiv+1
  4852  0C23  3000               	movlw	0
  4853  0C24  00A0               	movwf	?___fldiv
  4854  0C25  2D77               	goto	i1l646
  4855  0C26                     i1l2095:
  4856  0C26  0838               	movf	___fldiv@bexp,w
  4857  0C27  00A8               	movwf	??___fldiv
  4858  0C28  01A9               	clrf	??___fldiv+1
  4859  0C29  0829               	movf	??___fldiv+1,w
  4860  0C2A  00AB               	movwf	??___fldiv+3
  4861  0C2B  0839               	movf	___fldiv@aexp,w
  4862  0C2C  0228               	subwf	??___fldiv,w
  4863  0C2D  00AA               	movwf	??___fldiv+2
  4864  0C2E  1C03               	skipc
  4865  0C2F  03AB               	decf	??___fldiv+3,f
  4866  0C30  082A               	movf	??___fldiv+2,w
  4867  0C31  3E7F               	addlw	127
  4868  0C32  00B2               	movwf	___fldiv@new_exp
  4869  0C33  082B               	movf	??___fldiv+3,w
  4870  0C34  1803               	skipnc
  4871  0C35  3E01               	addlw	1
  4872  0C36  3E00               	addlw	0
  4873  0C37  00B3               	movwf	___fldiv@new_exp+1
  4874  0C38                     i1l2097:
  4875  0C38  0827               	movf	___fldiv@b+3,w
  4876  0C39  00B0               	movwf	___fldiv@rem+3
  4877  0C3A  0826               	movf	___fldiv@b+2,w
  4878  0C3B  00AF               	movwf	___fldiv@rem+2
  4879  0C3C  0825               	movf	___fldiv@b+1,w
  4880  0C3D  00AE               	movwf	___fldiv@rem+1
  4881  0C3E  0824               	movf	___fldiv@b,w
  4882  0C3F  00AD               	movwf	___fldiv@rem
  4883  0C40                     i1l2099:
  4884  0C40  3000               	movlw	0
  4885  0C41  00A7               	movwf	___fldiv@b+3
  4886  0C42  3000               	movlw	0
  4887  0C43  00A6               	movwf	___fldiv@b+2
  4888  0C44  3000               	movlw	0
  4889  0C45  00A5               	movwf	___fldiv@b+1
  4890  0C46  3000               	movlw	0
  4891  0C47  00A4               	movwf	___fldiv@b
  4892  0C48                     i1l2101:
  4893  0C48  3000               	movlw	0
  4894  0C49  00B7               	movwf	___fldiv@grs+3
  4895  0C4A  3000               	movlw	0
  4896  0C4B  00B6               	movwf	___fldiv@grs+2
  4897  0C4C  3000               	movlw	0
  4898  0C4D  00B5               	movwf	___fldiv@grs+1
  4899  0C4E  3000               	movlw	0
  4900  0C4F  00B4               	movwf	___fldiv@grs
  4901  0C50                     i1l2103:
  4902  0C50  01B9               	clrf	___fldiv@aexp
  4903  0C51  2C9C               	goto	i1l2123
  4904  0C52                     i1l2105:
  4905  0C52  0839               	movf	___fldiv@aexp,w
  4906  0C53  1903               	btfsc	3,2
  4907  0C54  2C56               	goto	u240_21
  4908  0C55  2C57               	goto	u240_20
  4909  0C56                     u240_21:
  4910  0C56  2C77               	goto	i1l2115
  4911  0C57                     u240_20:
  4912  0C57                     i1l2107:
  4913  0C57  3001               	movlw	1
  4914  0C58  00A8               	movwf	??___fldiv
  4915  0C59                     u241_25:
  4916  0C59  1003               	clrc
  4917  0C5A  0DAD               	rlf	___fldiv@rem,f
  4918  0C5B  0DAE               	rlf	___fldiv@rem+1,f
  4919  0C5C  0DAF               	rlf	___fldiv@rem+2,f
  4920  0C5D  0DB0               	rlf	___fldiv@rem+3,f
  4921  0C5E  0BA8               	decfsz	??___fldiv,f
  4922  0C5F  2C59               	goto	u241_25
  4923  0C60  3001               	movlw	1
  4924  0C61  00A8               	movwf	??___fldiv
  4925  0C62                     u242_25:
  4926  0C62  1003               	clrc
  4927  0C63  0DA4               	rlf	___fldiv@b,f
  4928  0C64  0DA5               	rlf	___fldiv@b+1,f
  4929  0C65  0DA6               	rlf	___fldiv@b+2,f
  4930  0C66  0DA7               	rlf	___fldiv@b+3,f
  4931  0C67  0BA8               	decfsz	??___fldiv,f
  4932  0C68  2C62               	goto	u242_25
  4933  0C69                     i1l2109:
  4934  0C69  1FB7               	btfss	___fldiv@grs+3,7
  4935  0C6A  2C6C               	goto	u243_21
  4936  0C6B  2C6D               	goto	u243_20
  4937  0C6C                     u243_21:
  4938  0C6C  2C6E               	goto	i1l2113
  4939  0C6D                     u243_20:
  4940  0C6D                     i1l2111:
  4941  0C6D  1424               	bsf	___fldiv@b,0
  4942  0C6E                     i1l2113:
  4943  0C6E  3001               	movlw	1
  4944  0C6F  00A8               	movwf	??___fldiv
  4945  0C70                     u244_25:
  4946  0C70  1003               	clrc
  4947  0C71  0DB4               	rlf	___fldiv@grs,f
  4948  0C72  0DB5               	rlf	___fldiv@grs+1,f
  4949  0C73  0DB6               	rlf	___fldiv@grs+2,f
  4950  0C74  0DB7               	rlf	___fldiv@grs+3,f
  4951  0C75  0BA8               	decfsz	??___fldiv,f
  4952  0C76  2C70               	goto	u244_25
  4953  0C77                     i1l2115:
  4954  0C77  0823               	movf	___fldiv@a+3,w
  4955  0C78  0230               	subwf	___fldiv@rem+3,w
  4956  0C79  1D03               	skipz
  4957  0C7A  2C85               	goto	u245_25
  4958  0C7B  0822               	movf	___fldiv@a+2,w
  4959  0C7C  022F               	subwf	___fldiv@rem+2,w
  4960  0C7D  1D03               	skipz
  4961  0C7E  2C85               	goto	u245_25
  4962  0C7F  0821               	movf	___fldiv@a+1,w
  4963  0C80  022E               	subwf	___fldiv@rem+1,w
  4964  0C81  1D03               	skipz
  4965  0C82  2C85               	goto	u245_25
  4966  0C83  0820               	movf	___fldiv@a,w
  4967  0C84  022D               	subwf	___fldiv@rem,w
  4968  0C85                     u245_25:
  4969  0C85  1C03               	skipc
  4970  0C86  2C88               	goto	u245_21
  4971  0C87  2C89               	goto	u245_20
  4972  0C88                     u245_21:
  4973  0C88  2C98               	goto	i1l2121
  4974  0C89                     u245_20:
  4975  0C89                     i1l2117:
  4976  0C89  1737               	bsf	___fldiv@grs+3,6
  4977  0C8A                     i1l2119:
  4978  0C8A  0820               	movf	___fldiv@a,w
  4979  0C8B  02AD               	subwf	___fldiv@rem,f
  4980  0C8C  0821               	movf	___fldiv@a+1,w
  4981  0C8D  1C03               	skipc
  4982  0C8E  0F21               	incfsz	___fldiv@a+1,w
  4983  0C8F  02AE               	subwf	___fldiv@rem+1,f
  4984  0C90  0822               	movf	___fldiv@a+2,w
  4985  0C91  1C03               	skipc
  4986  0C92  0F22               	incfsz	___fldiv@a+2,w
  4987  0C93  02AF               	subwf	___fldiv@rem+2,f
  4988  0C94  0823               	movf	___fldiv@a+3,w
  4989  0C95  1C03               	skipc
  4990  0C96  0F23               	incfsz	___fldiv@a+3,w
  4991  0C97  02B0               	subwf	___fldiv@rem+3,f
  4992  0C98                     i1l2121:
  4993  0C98  3001               	movlw	1
  4994  0C99  00A8               	movwf	??___fldiv
  4995  0C9A  0828               	movf	??___fldiv,w
  4996  0C9B  07B9               	addwf	___fldiv@aexp,f
  4997  0C9C                     i1l2123:
  4998  0C9C  301A               	movlw	26
  4999  0C9D  0239               	subwf	___fldiv@aexp,w
  5000  0C9E  1C03               	skipc
  5001  0C9F  2CA1               	goto	u246_21
  5002  0CA0  2CA2               	goto	u246_20
  5003  0CA1                     u246_21:
  5004  0CA1  2C52               	goto	i1l2105
  5005  0CA2                     u246_20:
  5006  0CA2                     i1l2125:
  5007  0CA2  0830               	movf	___fldiv@rem+3,w
  5008  0CA3  042F               	iorwf	___fldiv@rem+2,w
  5009  0CA4  042E               	iorwf	___fldiv@rem+1,w
  5010  0CA5  042D               	iorwf	___fldiv@rem,w
  5011  0CA6  1903               	skipnz
  5012  0CA7  2CA9               	goto	u247_21
  5013  0CA8  2CAA               	goto	u247_20
  5014  0CA9                     u247_21:
  5015  0CA9  2CC9               	goto	i1l2139
  5016  0CAA                     u247_20:
  5017  0CAA                     i1l2127:
  5018  0CAA  1434               	bsf	___fldiv@grs,0
  5019  0CAB  2CC9               	goto	i1l2139
  5020  0CAC                     i1l2129:
  5021  0CAC  3001               	movlw	1
  5022  0CAD  00A8               	movwf	??___fldiv
  5023  0CAE                     u248_25:
  5024  0CAE  1003               	clrc
  5025  0CAF  0DA4               	rlf	___fldiv@b,f
  5026  0CB0  0DA5               	rlf	___fldiv@b+1,f
  5027  0CB1  0DA6               	rlf	___fldiv@b+2,f
  5028  0CB2  0DA7               	rlf	___fldiv@b+3,f
  5029  0CB3  0BA8               	decfsz	??___fldiv,f
  5030  0CB4  2CAE               	goto	u248_25
  5031  0CB5                     i1l2131:
  5032  0CB5  1FB7               	btfss	___fldiv@grs+3,7
  5033  0CB6  2CB8               	goto	u249_21
  5034  0CB7  2CB9               	goto	u249_20
  5035  0CB8                     u249_21:
  5036  0CB8  2CBA               	goto	i1l2135
  5037  0CB9                     u249_20:
  5038  0CB9                     i1l2133:
  5039  0CB9  1424               	bsf	___fldiv@b,0
  5040  0CBA                     i1l2135:
  5041  0CBA  3001               	movlw	1
  5042  0CBB  00A8               	movwf	??___fldiv
  5043  0CBC                     u250_25:
  5044  0CBC  1003               	clrc
  5045  0CBD  0DB4               	rlf	___fldiv@grs,f
  5046  0CBE  0DB5               	rlf	___fldiv@grs+1,f
  5047  0CBF  0DB6               	rlf	___fldiv@grs+2,f
  5048  0CC0  0DB7               	rlf	___fldiv@grs+3,f
  5049  0CC1  0BA8               	decfsz	??___fldiv,f
  5050  0CC2  2CBC               	goto	u250_25
  5051  0CC3                     i1l2137:
  5052  0CC3  30FF               	movlw	255
  5053  0CC4  07B2               	addwf	___fldiv@new_exp,f
  5054  0CC5  1803               	skipnc
  5055  0CC6  0AB3               	incf	___fldiv@new_exp+1,f
  5056  0CC7  30FF               	movlw	255
  5057  0CC8  07B3               	addwf	___fldiv@new_exp+1,f
  5058  0CC9                     i1l2139:
  5059  0CC9  1FA6               	btfss	___fldiv@b+2,7
  5060  0CCA  2CCC               	goto	u251_21
  5061  0CCB  2CCD               	goto	u251_20
  5062  0CCC                     u251_21:
  5063  0CCC  2CAC               	goto	i1l2129
  5064  0CCD                     u251_20:
  5065  0CCD                     i1l2141:
  5066  0CCD  01B9               	clrf	___fldiv@aexp
  5067  0CCE                     i1l2143:
  5068  0CCE  1FB7               	btfss	___fldiv@grs+3,7
  5069  0CCF  2CD1               	goto	u252_21
  5070  0CD0  2CD2               	goto	u252_20
  5071  0CD1                     u252_21:
  5072  0CD1  2CEE               	goto	i1l2151
  5073  0CD2                     u252_20:
  5074  0CD2                     i1l2145:
  5075  0CD2  30FF               	movlw	255
  5076  0CD3  0534               	andwf	___fldiv@grs,w
  5077  0CD4  00A8               	movwf	??___fldiv
  5078  0CD5  30FF               	movlw	255
  5079  0CD6  0535               	andwf	___fldiv@grs+1,w
  5080  0CD7  00A9               	movwf	??___fldiv+1
  5081  0CD8  30FF               	movlw	255
  5082  0CD9  0536               	andwf	___fldiv@grs+2,w
  5083  0CDA  00AA               	movwf	??___fldiv+2
  5084  0CDB  307F               	movlw	127
  5085  0CDC  0537               	andwf	___fldiv@grs+3,w
  5086  0CDD  00AB               	movwf	??___fldiv+3
  5087  0CDE  082B               	movf	??___fldiv+3,w
  5088  0CDF  042A               	iorwf	??___fldiv+2,w
  5089  0CE0  0429               	iorwf	??___fldiv+1,w
  5090  0CE1  0428               	iorwf	??___fldiv,w
  5091  0CE2  1903               	skipnz
  5092  0CE3  2CE5               	goto	u253_21
  5093  0CE4  2CE6               	goto	u253_20
  5094  0CE5                     u253_21:
  5095  0CE5  2CE9               	goto	i1l660
  5096  0CE6                     u253_20:
  5097  0CE6                     i1l2147:
  5098  0CE6  01B9               	clrf	___fldiv@aexp
  5099  0CE7  0AB9               	incf	___fldiv@aexp,f
  5100  0CE8  2CEE               	goto	i1l2151
  5101  0CE9                     i1l660:
  5102  0CE9  1C24               	btfss	___fldiv@b,0
  5103  0CEA  2CEC               	goto	u254_21
  5104  0CEB  2CED               	goto	u254_20
  5105  0CEC                     u254_21:
  5106  0CEC  2CEE               	goto	i1l2151
  5107  0CED                     u254_20:
  5108  0CED  2CE6               	goto	i1l2147
  5109  0CEE                     i1l2151:
  5110  0CEE  0839               	movf	___fldiv@aexp,w
  5111  0CEF  1903               	btfsc	3,2
  5112  0CF0  2CF2               	goto	u255_21
  5113  0CF1  2CF3               	goto	u255_20
  5114  0CF2                     u255_21:
  5115  0CF2  2D24               	goto	i1l2161
  5116  0CF3                     u255_20:
  5117  0CF3                     i1l2153:
  5118  0CF3  3001               	movlw	1
  5119  0CF4  07A4               	addwf	___fldiv@b,f
  5120  0CF5  3000               	movlw	0
  5121  0CF6  1803               	skipnc
  5122  0CF7  3001               	movlw	1
  5123  0CF8  07A5               	addwf	___fldiv@b+1,f
  5124  0CF9  3000               	movlw	0
  5125  0CFA  1803               	skipnc
  5126  0CFB  3001               	movlw	1
  5127  0CFC  07A6               	addwf	___fldiv@b+2,f
  5128  0CFD  3000               	movlw	0
  5129  0CFE  1803               	skipnc
  5130  0CFF  3001               	movlw	1
  5131  0D00  07A7               	addwf	___fldiv@b+3,f
  5132  0D01                     i1l2155:
  5133  0D01  1C27               	btfss	___fldiv@b+3,0
  5134  0D02  2D04               	goto	u256_21
  5135  0D03  2D05               	goto	u256_20
  5136  0D04                     u256_21:
  5137  0D04  2D24               	goto	i1l2161
  5138  0D05                     u256_20:
  5139  0D05                     i1l2157:
  5140  0D05  0824               	movf	___fldiv@b,w
  5141  0D06  00A8               	movwf	??___fldiv
  5142  0D07  0825               	movf	___fldiv@b+1,w
  5143  0D08  00A9               	movwf	??___fldiv+1
  5144  0D09  0826               	movf	___fldiv@b+2,w
  5145  0D0A  00AA               	movwf	??___fldiv+2
  5146  0D0B  0827               	movf	___fldiv@b+3,w
  5147  0D0C  00AB               	movwf	??___fldiv+3
  5148  0D0D  3001               	movlw	1
  5149  0D0E  00AC               	movwf	??___fldiv+4
  5150  0D0F                     u257_25:
  5151  0D0F  0D2B               	rlf	??___fldiv+3,w
  5152  0D10  0CAB               	rrf	??___fldiv+3,f
  5153  0D11  0CAA               	rrf	??___fldiv+2,f
  5154  0D12  0CA9               	rrf	??___fldiv+1,f
  5155  0D13  0CA8               	rrf	??___fldiv,f
  5156  0D14                     u257_20:
  5157  0D14  0BAC               	decfsz	??___fldiv+4,f
  5158  0D15  2D0F               	goto	u257_25
  5159  0D16  082B               	movf	??___fldiv+3,w
  5160  0D17  00A7               	movwf	___fldiv@b+3
  5161  0D18  082A               	movf	??___fldiv+2,w
  5162  0D19  00A6               	movwf	___fldiv@b+2
  5163  0D1A  0829               	movf	??___fldiv+1,w
  5164  0D1B  00A5               	movwf	___fldiv@b+1
  5165  0D1C  0828               	movf	??___fldiv,w
  5166  0D1D  00A4               	movwf	___fldiv@b
  5167  0D1E                     i1l2159:
  5168  0D1E  3001               	movlw	1
  5169  0D1F  07B2               	addwf	___fldiv@new_exp,f
  5170  0D20  1803               	skipnc
  5171  0D21  0AB3               	incf	___fldiv@new_exp+1,f
  5172  0D22  3000               	movlw	0
  5173  0D23  07B3               	addwf	___fldiv@new_exp+1,f
  5174  0D24                     i1l2161:
  5175  0D24  0833               	movf	___fldiv@new_exp+1,w
  5176  0D25  3A80               	xorlw	128
  5177  0D26  00FF               	movwf	btemp+1
  5178  0D27  3080               	movlw	128
  5179  0D28  027F               	subwf	btemp+1,w
  5180  0D29  1D03               	skipz
  5181  0D2A  2D2D               	goto	u258_25
  5182  0D2B  30FF               	movlw	255
  5183  0D2C  0232               	subwf	___fldiv@new_exp,w
  5184  0D2D                     u258_25:
  5185  0D2D  1C03               	skipc
  5186  0D2E  2D30               	goto	u258_21
  5187  0D2F  2D31               	goto	u258_20
  5188  0D30                     u258_21:
  5189  0D30  2D3F               	goto	i1l2165
  5190  0D31                     u258_20:
  5191  0D31                     i1l2163:
  5192  0D31  30FF               	movlw	255
  5193  0D32  1283               	bcf	3,5	;RP0=0, select bank0
  5194  0D33  1303               	bcf	3,6	;RP1=0, select bank0
  5195  0D34  00B2               	movwf	___fldiv@new_exp
  5196  0D35  3000               	movlw	0
  5197  0D36  00B3               	movwf	___fldiv@new_exp+1
  5198  0D37  3000               	movlw	0
  5199  0D38  00A7               	movwf	___fldiv@b+3
  5200  0D39  3000               	movlw	0
  5201  0D3A  00A6               	movwf	___fldiv@b+2
  5202  0D3B  3000               	movlw	0
  5203  0D3C  00A5               	movwf	___fldiv@b+1
  5204  0D3D  3000               	movlw	0
  5205  0D3E  00A4               	movwf	___fldiv@b
  5206  0D3F                     i1l2165:
  5207  0D3F  1283               	bcf	3,5	;RP0=0, select bank0
  5208  0D40  1303               	bcf	3,6	;RP1=0, select bank0
  5209  0D41  0833               	movf	___fldiv@new_exp+1,w
  5210  0D42  3A80               	xorlw	128
  5211  0D43  00FF               	movwf	btemp+1
  5212  0D44  3080               	movlw	128
  5213  0D45  027F               	subwf	btemp+1,w
  5214  0D46  1D03               	skipz
  5215  0D47  2D4A               	goto	u259_25
  5216  0D48  3001               	movlw	1
  5217  0D49  0232               	subwf	___fldiv@new_exp,w
  5218  0D4A                     u259_25:
  5219  0D4A  1803               	skipnc
  5220  0D4B  2D4D               	goto	u259_21
  5221  0D4C  2D4E               	goto	u259_20
  5222  0D4D                     u259_21:
  5223  0D4D  2D5B               	goto	i1l666
  5224  0D4E                     u259_20:
  5225  0D4E                     i1l2167:
  5226  0D4E  1283               	bcf	3,5	;RP0=0, select bank0
  5227  0D4F  1303               	bcf	3,6	;RP1=0, select bank0
  5228  0D50  01B2               	clrf	___fldiv@new_exp
  5229  0D51  01B3               	clrf	___fldiv@new_exp+1
  5230  0D52                     i1l2169:
  5231  0D52  3000               	movlw	0
  5232  0D53  00A7               	movwf	___fldiv@b+3
  5233  0D54  3000               	movlw	0
  5234  0D55  00A6               	movwf	___fldiv@b+2
  5235  0D56  3000               	movlw	0
  5236  0D57  00A5               	movwf	___fldiv@b+1
  5237  0D58  3000               	movlw	0
  5238  0D59  00A4               	movwf	___fldiv@b
  5239  0D5A                     i1l2171:
  5240  0D5A  01B1               	clrf	___fldiv@sign
  5241  0D5B                     i1l666:
  5242  0D5B  1283               	bcf	3,5	;RP0=0, select bank0
  5243  0D5C  1303               	bcf	3,6	;RP1=0, select bank0
  5244  0D5D  0832               	movf	___fldiv@new_exp,w
  5245  0D5E  00A8               	movwf	??___fldiv
  5246  0D5F  0828               	movf	??___fldiv,w
  5247  0D60  00B8               	movwf	___fldiv@bexp
  5248  0D61                     i1l2173:
  5249  0D61  1C38               	btfss	___fldiv@bexp,0
  5250  0D62  2D64               	goto	u260_21
  5251  0D63  2D65               	goto	u260_20
  5252  0D64                     u260_21:
  5253  0D64  2D67               	goto	i1l2177
  5254  0D65                     u260_20:
  5255  0D65                     i1l2175:
  5256  0D65  17A6               	bsf	___fldiv@b+2,7
  5257  0D66  2D6B               	goto	i1l668
  5258  0D67                     i1l2177:
  5259  0D67  307F               	movlw	127
  5260  0D68  00A8               	movwf	??___fldiv
  5261  0D69  0828               	movf	??___fldiv,w
  5262  0D6A  05A6               	andwf	___fldiv@b+2,f
  5263  0D6B                     i1l668:
  5264  0D6B  0838               	movf	___fldiv@bexp,w
  5265  0D6C  00A8               	movwf	??___fldiv
  5266  0D6D  1003               	clrc
  5267  0D6E  0C28               	rrf	??___fldiv,w
  5268  0D6F  00A9               	movwf	??___fldiv+1
  5269  0D70  0829               	movf	??___fldiv+1,w
  5270  0D71  00A7               	movwf	___fldiv@b+3
  5271  0D72  0831               	movf	___fldiv@sign,w
  5272  0D73  00A8               	movwf	??___fldiv
  5273  0D74  0828               	movf	??___fldiv,w
  5274  0D75  04A7               	iorwf	___fldiv@b+3,f
  5275  0D76  2C0F               	goto	i1l2085
  5276  0D77                     i1l646:
  5277  0D77  0008               	return
  5278  0D78                     __end_of___fldiv:
  5279                           
  5280                           	psect	text9
  5281  0D78                     __ptext9:	
  5282 ;; *************** function ___fladd *****************
  5283 ;; Defined at:
  5284 ;;		line 10 in file "C:\Program Files\Microchip\xc8\v2.35\pic\sources\c90\common\sprcadd.c"
  5285 ;; Parameters:    Size  Location     Type
  5286 ;;  b               4   52[BANK0 ] unsigned char 
  5287 ;;  a               4   56[BANK0 ] unsigned char 
  5288 ;; Auto vars:     Size  Location     Type
  5289 ;;  grs             1   71[BANK0 ] unsigned char 
  5290 ;;  bexp            1   70[BANK0 ] unsigned char 
  5291 ;;  aexp            1   69[BANK0 ] unsigned char 
  5292 ;;  signs           1   68[BANK0 ] unsigned char 
  5293 ;; Return value:  Size  Location     Type
  5294 ;;                  4   52[BANK0 ] unsigned char 
  5295 ;; Registers used:
  5296 ;;		wreg, status,2, status,0, btemp+1
  5297 ;; Tracked objects:
  5298 ;;		On entry : 0/0
  5299 ;;		On exit  : 0/0
  5300 ;;		Unchanged: 0/0
  5301 ;; Data sizes:     COMMON   BANK0   BANK1   BANK3   BANK2
  5302 ;;      Params:         0       8       0       0       0
  5303 ;;      Locals:         0       4       0       0       0
  5304 ;;      Temps:          0       8       0       0       0
  5305 ;;      Totals:         0      20       0       0       0
  5306 ;;Total ram usage:       20 bytes
  5307 ;; Hardware stack levels used: 1
  5308 ;; This function calls:
  5309 ;;		Nothing
  5310 ;; This function is called by:
  5311 ;;		_map
  5312 ;; This function uses a non-reentrant model
  5313 ;;
  5314                           
  5315  0D78                     ___fladd:	
  5316                           ;psect for function ___fladd
  5317                           
  5318  0D78                     i1l1847:	
  5319                           ;incstack = 0
  5320                           ; Regs used in ___fladd: [wreg+status,2+status,0+btemp+1]
  5321                           
  5322  0D78  1283               	bcf	3,5	;RP0=0, select bank0
  5323  0D79  1303               	bcf	3,6	;RP1=0, select bank0
  5324  0D7A  0857               	movf	___fladd@b+3,w
  5325  0D7B  3980               	andlw	128
  5326  0D7C  00DC               	movwf	??___fladd
  5327  0D7D  085C               	movf	??___fladd,w
  5328  0D7E  00E4               	movwf	___fladd@signs
  5329  0D7F                     i1l1849:
  5330  0D7F  0857               	movf	___fladd@b+3,w
  5331  0D80  00DC               	movwf	??___fladd
  5332  0D81  075C               	addwf	??___fladd,w
  5333  0D82  00DD               	movwf	??___fladd+1
  5334  0D83  085D               	movf	??___fladd+1,w
  5335  0D84  00E6               	movwf	___fladd@bexp
  5336  0D85                     i1l1851:
  5337  0D85  1FD6               	btfss	___fladd@b+2,7
  5338  0D86  2D88               	goto	u186_21
  5339  0D87  2D89               	goto	u186_20
  5340  0D88                     u186_21:
  5341  0D88  2D8A               	goto	i1l1855
  5342  0D89                     u186_20:
  5343  0D89                     i1l1853:
  5344  0D89  1466               	bsf	___fladd@bexp,0
  5345  0D8A                     i1l1855:
  5346  0D8A  0866               	movf	___fladd@bexp,w
  5347  0D8B  1903               	btfsc	3,2
  5348  0D8C  2D8E               	goto	u187_21
  5349  0D8D  2D8F               	goto	u187_20
  5350  0D8E                     u187_21:
  5351  0D8E  2D9F               	goto	i1l1865
  5352  0D8F                     u187_20:
  5353  0D8F                     i1l1857:
  5354  0D8F  0A66               	incf	___fladd@bexp,w
  5355  0D90  1D03               	btfss	3,2
  5356  0D91  2D93               	goto	u188_21
  5357  0D92  2D94               	goto	u188_20
  5358  0D93                     u188_21:
  5359  0D93  2D9C               	goto	i1l1861
  5360  0D94                     u188_20:
  5361  0D94                     i1l1859:
  5362  0D94  3000               	movlw	0
  5363  0D95  00D7               	movwf	___fladd@b+3
  5364  0D96  3000               	movlw	0
  5365  0D97  00D6               	movwf	___fladd@b+2
  5366  0D98  3000               	movlw	0
  5367  0D99  00D5               	movwf	___fladd@b+1
  5368  0D9A  3000               	movlw	0
  5369  0D9B  00D4               	movwf	___fladd@b
  5370  0D9C                     i1l1861:
  5371  0D9C  17D6               	bsf	___fladd@b+2,7
  5372  0D9D                     i1l1863:
  5373  0D9D  01D7               	clrf	___fladd@b+3
  5374  0D9E  2DA7               	goto	i1l1867
  5375  0D9F                     i1l1865:
  5376  0D9F  3000               	movlw	0
  5377  0DA0  00D7               	movwf	___fladd@b+3
  5378  0DA1  3000               	movlw	0
  5379  0DA2  00D6               	movwf	___fladd@b+2
  5380  0DA3  3000               	movlw	0
  5381  0DA4  00D5               	movwf	___fladd@b+1
  5382  0DA5  3000               	movlw	0
  5383  0DA6  00D4               	movwf	___fladd@b
  5384  0DA7                     i1l1867:
  5385  0DA7  085B               	movf	___fladd@a+3,w
  5386  0DA8  3980               	andlw	128
  5387  0DA9  00DC               	movwf	??___fladd
  5388  0DAA  085C               	movf	??___fladd,w
  5389  0DAB  00E5               	movwf	___fladd@aexp
  5390  0DAC                     i1l1869:
  5391  0DAC  0865               	movf	___fladd@aexp,w
  5392  0DAD  0664               	xorwf	___fladd@signs,w
  5393  0DAE  1903               	skipnz
  5394  0DAF  2DB1               	goto	u189_21
  5395  0DB0  2DB2               	goto	u189_20
  5396  0DB1                     u189_21:
  5397  0DB1  2DB3               	goto	i1l1873
  5398  0DB2                     u189_20:
  5399  0DB2                     i1l1871:
  5400  0DB2  1764               	bsf	___fladd@signs,6
  5401  0DB3                     i1l1873:
  5402  0DB3  085B               	movf	___fladd@a+3,w
  5403  0DB4  00DC               	movwf	??___fladd
  5404  0DB5  075C               	addwf	??___fladd,w
  5405  0DB6  00DD               	movwf	??___fladd+1
  5406  0DB7  085D               	movf	??___fladd+1,w
  5407  0DB8  00E5               	movwf	___fladd@aexp
  5408  0DB9                     i1l1875:
  5409  0DB9  1FDA               	btfss	___fladd@a+2,7
  5410  0DBA  2DBC               	goto	u190_21
  5411  0DBB  2DBD               	goto	u190_20
  5412  0DBC                     u190_21:
  5413  0DBC  2DBE               	goto	i1l1879
  5414  0DBD                     u190_20:
  5415  0DBD                     i1l1877:
  5416  0DBD  1465               	bsf	___fladd@aexp,0
  5417  0DBE                     i1l1879:
  5418  0DBE  0865               	movf	___fladd@aexp,w
  5419  0DBF  1903               	btfsc	3,2
  5420  0DC0  2DC2               	goto	u191_21
  5421  0DC1  2DC3               	goto	u191_20
  5422  0DC2                     u191_21:
  5423  0DC2  2DD3               	goto	i1l1889
  5424  0DC3                     u191_20:
  5425  0DC3                     i1l1881:
  5426  0DC3  0A65               	incf	___fladd@aexp,w
  5427  0DC4  1D03               	btfss	3,2
  5428  0DC5  2DC7               	goto	u192_21
  5429  0DC6  2DC8               	goto	u192_20
  5430  0DC7                     u192_21:
  5431  0DC7  2DD0               	goto	i1l1885
  5432  0DC8                     u192_20:
  5433  0DC8                     i1l1883:
  5434  0DC8  3000               	movlw	0
  5435  0DC9  00DB               	movwf	___fladd@a+3
  5436  0DCA  3000               	movlw	0
  5437  0DCB  00DA               	movwf	___fladd@a+2
  5438  0DCC  3000               	movlw	0
  5439  0DCD  00D9               	movwf	___fladd@a+1
  5440  0DCE  3000               	movlw	0
  5441  0DCF  00D8               	movwf	___fladd@a
  5442  0DD0                     i1l1885:
  5443  0DD0  17DA               	bsf	___fladd@a+2,7
  5444  0DD1                     i1l1887:
  5445  0DD1  01DB               	clrf	___fladd@a+3
  5446  0DD2  2DDB               	goto	i1l588
  5447  0DD3                     i1l1889:
  5448  0DD3  3000               	movlw	0
  5449  0DD4  00DB               	movwf	___fladd@a+3
  5450  0DD5  3000               	movlw	0
  5451  0DD6  00DA               	movwf	___fladd@a+2
  5452  0DD7  3000               	movlw	0
  5453  0DD8  00D9               	movwf	___fladd@a+1
  5454  0DD9  3000               	movlw	0
  5455  0DDA  00D8               	movwf	___fladd@a
  5456  0DDB                     i1l588:
  5457  0DDB  0866               	movf	___fladd@bexp,w
  5458  0DDC  0265               	subwf	___fladd@aexp,w
  5459  0DDD  1803               	skipnc
  5460  0DDE  2DE0               	goto	u193_21
  5461  0DDF  2DE1               	goto	u193_20
  5462  0DE0                     u193_21:
  5463  0DE0  2E25               	goto	i1l1925
  5464  0DE1                     u193_20:
  5465  0DE1                     i1l1891:
  5466  0DE1  1F64               	btfss	___fladd@signs,6
  5467  0DE2  2DE4               	goto	u194_21
  5468  0DE3  2DE5               	goto	u194_20
  5469  0DE4                     u194_21:
  5470  0DE4  2DE9               	goto	i1l1895
  5471  0DE5                     u194_20:
  5472  0DE5                     i1l1893:
  5473  0DE5  3080               	movlw	128
  5474  0DE6  00DC               	movwf	??___fladd
  5475  0DE7  085C               	movf	??___fladd,w
  5476  0DE8  06E4               	xorwf	___fladd@signs,f
  5477  0DE9                     i1l1895:
  5478  0DE9  0866               	movf	___fladd@bexp,w
  5479  0DEA  00DC               	movwf	??___fladd
  5480  0DEB  085C               	movf	??___fladd,w
  5481  0DEC  00E7               	movwf	___fladd@grs
  5482  0DED                     i1l1897:
  5483  0DED  0865               	movf	___fladd@aexp,w
  5484  0DEE  00DC               	movwf	??___fladd
  5485  0DEF  085C               	movf	??___fladd,w
  5486  0DF0  00E6               	movwf	___fladd@bexp
  5487  0DF1                     i1l1899:
  5488  0DF1  0867               	movf	___fladd@grs,w
  5489  0DF2  00DC               	movwf	??___fladd
  5490  0DF3  085C               	movf	??___fladd,w
  5491  0DF4  00E5               	movwf	___fladd@aexp
  5492  0DF5                     i1l1901:
  5493  0DF5  0854               	movf	___fladd@b,w
  5494  0DF6  00DC               	movwf	??___fladd
  5495  0DF7  085C               	movf	??___fladd,w
  5496  0DF8  00E7               	movwf	___fladd@grs
  5497  0DF9                     i1l1903:
  5498  0DF9  0858               	movf	___fladd@a,w
  5499  0DFA  00DC               	movwf	??___fladd
  5500  0DFB  085C               	movf	??___fladd,w
  5501  0DFC  00D4               	movwf	___fladd@b
  5502  0DFD                     i1l1905:
  5503  0DFD  0867               	movf	___fladd@grs,w
  5504  0DFE  00DC               	movwf	??___fladd
  5505  0DFF  085C               	movf	??___fladd,w
  5506  0E00  00D8               	movwf	___fladd@a
  5507  0E01                     i1l1907:
  5508  0E01  0855               	movf	___fladd@b+1,w
  5509  0E02  00DC               	movwf	??___fladd
  5510  0E03  085C               	movf	??___fladd,w
  5511  0E04  00E7               	movwf	___fladd@grs
  5512  0E05                     i1l1909:
  5513  0E05  0859               	movf	___fladd@a+1,w
  5514  0E06  00DC               	movwf	??___fladd
  5515  0E07  085C               	movf	??___fladd,w
  5516  0E08  00D5               	movwf	___fladd@b+1
  5517  0E09                     i1l1911:
  5518  0E09  0867               	movf	___fladd@grs,w
  5519  0E0A  00DC               	movwf	??___fladd
  5520  0E0B  085C               	movf	??___fladd,w
  5521  0E0C  00D9               	movwf	___fladd@a+1
  5522  0E0D                     i1l1913:
  5523  0E0D  0856               	movf	___fladd@b+2,w
  5524  0E0E  00DC               	movwf	??___fladd
  5525  0E0F  085C               	movf	??___fladd,w
  5526  0E10  00E7               	movwf	___fladd@grs
  5527  0E11                     i1l1915:
  5528  0E11  085A               	movf	___fladd@a+2,w
  5529  0E12  00DC               	movwf	??___fladd
  5530  0E13  085C               	movf	??___fladd,w
  5531  0E14  00D6               	movwf	___fladd@b+2
  5532  0E15                     i1l1917:
  5533  0E15  0867               	movf	___fladd@grs,w
  5534  0E16  00DC               	movwf	??___fladd
  5535  0E17  085C               	movf	??___fladd,w
  5536  0E18  00DA               	movwf	___fladd@a+2
  5537  0E19                     i1l1919:
  5538  0E19  0857               	movf	___fladd@b+3,w
  5539  0E1A  00DC               	movwf	??___fladd
  5540  0E1B  085C               	movf	??___fladd,w
  5541  0E1C  00E7               	movwf	___fladd@grs
  5542  0E1D                     i1l1921:
  5543  0E1D  085B               	movf	___fladd@a+3,w
  5544  0E1E  00DC               	movwf	??___fladd
  5545  0E1F  085C               	movf	??___fladd,w
  5546  0E20  00D7               	movwf	___fladd@b+3
  5547  0E21                     i1l1923:
  5548  0E21  0867               	movf	___fladd@grs,w
  5549  0E22  00DC               	movwf	??___fladd
  5550  0E23  085C               	movf	??___fladd,w
  5551  0E24  00DB               	movwf	___fladd@a+3
  5552  0E25                     i1l1925:
  5553  0E25  01E7               	clrf	___fladd@grs
  5554  0E26                     i1l1927:
  5555  0E26  0865               	movf	___fladd@aexp,w
  5556  0E27  00DC               	movwf	??___fladd
  5557  0E28  01DD               	clrf	??___fladd+1
  5558  0E29  085D               	movf	??___fladd+1,w
  5559  0E2A  00DF               	movwf	??___fladd+3
  5560  0E2B  0866               	movf	___fladd@bexp,w
  5561  0E2C  025C               	subwf	??___fladd,w
  5562  0E2D  00DE               	movwf	??___fladd+2
  5563  0E2E  1C03               	skipc
  5564  0E2F  03DF               	decf	??___fladd+3,f
  5565  0E30  085F               	movf	??___fladd+3,w
  5566  0E31  3A80               	xorlw	128
  5567  0E32  00FF               	movwf	btemp+1
  5568  0E33  3080               	movlw	128
  5569  0E34  027F               	subwf	btemp+1,w
  5570  0E35  1D03               	skipz
  5571  0E36  2E39               	goto	u195_25
  5572  0E37  301A               	movlw	26
  5573  0E38  025E               	subwf	??___fladd+2,w
  5574  0E39                     u195_25:
  5575  0E39  1C03               	skipc
  5576  0E3A  2E3C               	goto	u195_21
  5577  0E3B  2E3D               	goto	u195_20
  5578  0E3C                     u195_21:
  5579  0E3C  2E7A               	goto	i1l1943
  5580  0E3D                     u195_20:
  5581  0E3D                     i1l1929:
  5582  0E3D  1283               	bcf	3,5	;RP0=0, select bank0
  5583  0E3E  1303               	bcf	3,6	;RP1=0, select bank0
  5584  0E3F  0857               	movf	___fladd@b+3,w
  5585  0E40  0456               	iorwf	___fladd@b+2,w
  5586  0E41  0455               	iorwf	___fladd@b+1,w
  5587  0E42  0454               	iorwf	___fladd@b,w
  5588  0E43  1D03               	skipz
  5589  0E44  2E46               	goto	u196_21
  5590  0E45  2E48               	goto	u196_20
  5591  0E46                     u196_21:
  5592  0E46  3001               	movlw	1
  5593  0E47  2E49               	goto	u197_20
  5594  0E48                     u196_20:
  5595  0E48  3000               	movlw	0
  5596  0E49                     u197_20:
  5597  0E49  00DC               	movwf	??___fladd
  5598  0E4A  085C               	movf	??___fladd,w
  5599  0E4B  00E7               	movwf	___fladd@grs
  5600  0E4C  3000               	movlw	0
  5601  0E4D  00D7               	movwf	___fladd@b+3
  5602  0E4E  3000               	movlw	0
  5603  0E4F  00D6               	movwf	___fladd@b+2
  5604  0E50  3000               	movlw	0
  5605  0E51  00D5               	movwf	___fladd@b+1
  5606  0E52  3000               	movlw	0
  5607  0E53  00D4               	movwf	___fladd@b
  5608  0E54  0865               	movf	___fladd@aexp,w
  5609  0E55  00DC               	movwf	??___fladd
  5610  0E56  085C               	movf	??___fladd,w
  5611  0E57  00E6               	movwf	___fladd@bexp
  5612  0E58  2E82               	goto	i1l592
  5613  0E59                     i1l594:
  5614  0E59  1C67               	btfss	___fladd@grs,0
  5615  0E5A  2E5C               	goto	u198_21
  5616  0E5B  2E5D               	goto	u198_20
  5617  0E5C                     u198_21:
  5618  0E5C  2E66               	goto	i1l1933
  5619  0E5D                     u198_20:
  5620  0E5D                     i1l1931:
  5621  0E5D  0867               	movf	___fladd@grs,w
  5622  0E5E  00DC               	movwf	??___fladd
  5623  0E5F  1003               	clrc
  5624  0E60  0C5C               	rrf	??___fladd,w
  5625  0E61  3801               	iorlw	1
  5626  0E62  00DD               	movwf	??___fladd+1
  5627  0E63  085D               	movf	??___fladd+1,w
  5628  0E64  00E7               	movwf	___fladd@grs
  5629  0E65  2E68               	goto	i1l1935
  5630  0E66                     i1l1933:
  5631  0E66  1003               	clrc
  5632  0E67  0CE7               	rrf	___fladd@grs,f
  5633  0E68                     i1l1935:
  5634  0E68  1C54               	btfss	___fladd@b,0
  5635  0E69  2E6B               	goto	u199_21
  5636  0E6A  2E6C               	goto	u199_20
  5637  0E6B                     u199_21:
  5638  0E6B  2E6D               	goto	i1l1939
  5639  0E6C                     u199_20:
  5640  0E6C                     i1l1937:
  5641  0E6C  17E7               	bsf	___fladd@grs,7
  5642  0E6D                     i1l1939:
  5643  0E6D  3001               	movlw	1
  5644  0E6E  00DC               	movwf	??___fladd
  5645  0E6F                     u200_25:
  5646  0E6F  0D57               	rlf	___fladd@b+3,w
  5647  0E70  0CD7               	rrf	___fladd@b+3,f
  5648  0E71  0CD6               	rrf	___fladd@b+2,f
  5649  0E72  0CD5               	rrf	___fladd@b+1,f
  5650  0E73  0CD4               	rrf	___fladd@b,f
  5651  0E74  0BDC               	decfsz	??___fladd& (0+127),f
  5652  0E75  2E6F               	goto	u200_25
  5653  0E76                     i1l1941:
  5654  0E76  3001               	movlw	1
  5655  0E77  00DC               	movwf	??___fladd
  5656  0E78  085C               	movf	??___fladd,w
  5657  0E79  07E6               	addwf	___fladd@bexp,f
  5658  0E7A                     i1l1943:
  5659  0E7A  1283               	bcf	3,5	;RP0=0, select bank0
  5660  0E7B  1303               	bcf	3,6	;RP1=0, select bank0
  5661  0E7C  0865               	movf	___fladd@aexp,w
  5662  0E7D  0266               	subwf	___fladd@bexp,w
  5663  0E7E  1C03               	skipc
  5664  0E7F  2E81               	goto	u201_21
  5665  0E80  2E82               	goto	u201_20
  5666  0E81                     u201_21:
  5667  0E81  2E59               	goto	i1l594
  5668  0E82                     u201_20:
  5669  0E82                     i1l592:
  5670  0E82  1B64               	btfsc	___fladd@signs,6
  5671  0E83  2E85               	goto	u202_21
  5672  0E84  2E86               	goto	u202_20
  5673  0E85                     u202_21:
  5674  0E85  2ED1               	goto	i1l1969
  5675  0E86                     u202_20:
  5676  0E86                     i1l1945:
  5677  0E86  0866               	movf	___fladd@bexp,w
  5678  0E87  1D03               	btfss	3,2
  5679  0E88  2E8A               	goto	u203_21
  5680  0E89  2E8B               	goto	u203_20
  5681  0E8A                     u203_21:
  5682  0E8A  2E94               	goto	i1l1951
  5683  0E8B                     u203_20:
  5684  0E8B                     i1l1947:
  5685  0E8B  3000               	movlw	0
  5686  0E8C  00D7               	movwf	?___fladd+3
  5687  0E8D  3000               	movlw	0
  5688  0E8E  00D6               	movwf	?___fladd+2
  5689  0E8F  3000               	movlw	0
  5690  0E90  00D5               	movwf	?___fladd+1
  5691  0E91  3000               	movlw	0
  5692  0E92  00D4               	movwf	?___fladd
  5693  0E93  2FFF               	goto	i1l601
  5694  0E94                     i1l1951:
  5695  0E94  0858               	movf	___fladd@a,w
  5696  0E95  07D4               	addwf	___fladd@b,f
  5697  0E96  0859               	movf	___fladd@a+1,w
  5698  0E97  1103               	clrz
  5699  0E98  1803               	skipnc
  5700  0E99  3E01               	addlw	1
  5701  0E9A  1903               	skipnz
  5702  0E9B  2E9D               	goto	u204_21
  5703  0E9C  07D5               	addwf	___fladd@b+1,f
  5704  0E9D                     u204_21:
  5705  0E9D  085A               	movf	___fladd@a+2,w
  5706  0E9E  1103               	clrz
  5707  0E9F  1803               	skipnc
  5708  0EA0  3E01               	addlw	1
  5709  0EA1  1903               	skipnz
  5710  0EA2  2EA4               	goto	u204_22
  5711  0EA3  07D6               	addwf	___fladd@b+2,f
  5712  0EA4                     u204_22:
  5713  0EA4  085B               	movf	___fladd@a+3,w
  5714  0EA5  1103               	clrz
  5715  0EA6  1803               	skipnc
  5716  0EA7  3E01               	addlw	1
  5717  0EA8  1903               	skipnz
  5718  0EA9  2EAB               	goto	u204_23
  5719  0EAA  07D7               	addwf	___fladd@b+3,f
  5720  0EAB                     u204_23:
  5721  0EAB                     i1l1953:
  5722  0EAB  1C57               	btfss	___fladd@b+3,0
  5723  0EAC  2EAE               	goto	u205_21
  5724  0EAD  2EAF               	goto	u205_20
  5725  0EAE                     u205_21:
  5726  0EAE  2F85               	goto	i1l2003
  5727  0EAF                     u205_20:
  5728  0EAF                     i1l1955:
  5729  0EAF  1C67               	btfss	___fladd@grs,0
  5730  0EB0  2EB2               	goto	u206_21
  5731  0EB1  2EB3               	goto	u206_20
  5732  0EB2                     u206_21:
  5733  0EB2  2EBC               	goto	i1l1959
  5734  0EB3                     u206_20:
  5735  0EB3                     i1l1957:
  5736  0EB3  0867               	movf	___fladd@grs,w
  5737  0EB4  00DC               	movwf	??___fladd
  5738  0EB5  1003               	clrc
  5739  0EB6  0C5C               	rrf	??___fladd,w
  5740  0EB7  3801               	iorlw	1
  5741  0EB8  00DD               	movwf	??___fladd+1
  5742  0EB9  085D               	movf	??___fladd+1,w
  5743  0EBA  00E7               	movwf	___fladd@grs
  5744  0EBB  2EBE               	goto	i1l1961
  5745  0EBC                     i1l1959:
  5746  0EBC  1003               	clrc
  5747  0EBD  0CE7               	rrf	___fladd@grs,f
  5748  0EBE                     i1l1961:
  5749  0EBE  1C54               	btfss	___fladd@b,0
  5750  0EBF  2EC1               	goto	u207_21
  5751  0EC0  2EC2               	goto	u207_20
  5752  0EC1                     u207_21:
  5753  0EC1  2EC3               	goto	i1l1965
  5754  0EC2                     u207_20:
  5755  0EC2                     i1l1963:
  5756  0EC2  17E7               	bsf	___fladd@grs,7
  5757  0EC3                     i1l1965:
  5758  0EC3  3001               	movlw	1
  5759  0EC4  00DC               	movwf	??___fladd
  5760  0EC5                     u208_25:
  5761  0EC5  0D57               	rlf	___fladd@b+3,w
  5762  0EC6  0CD7               	rrf	___fladd@b+3,f
  5763  0EC7  0CD6               	rrf	___fladd@b+2,f
  5764  0EC8  0CD5               	rrf	___fladd@b+1,f
  5765  0EC9  0CD4               	rrf	___fladd@b,f
  5766  0ECA  0BDC               	decfsz	??___fladd& (0+127),f
  5767  0ECB  2EC5               	goto	u208_25
  5768  0ECC                     i1l1967:
  5769  0ECC  3001               	movlw	1
  5770  0ECD  00DC               	movwf	??___fladd
  5771  0ECE  085C               	movf	??___fladd,w
  5772  0ECF  07E6               	addwf	___fladd@bexp,f
  5773  0ED0  2F85               	goto	i1l2003
  5774  0ED1                     i1l1969:
  5775  0ED1  0857               	movf	___fladd@b+3,w
  5776  0ED2  3A80               	xorlw	128
  5777  0ED3  00FF               	movwf	btemp+1
  5778  0ED4  085B               	movf	___fladd@a+3,w
  5779  0ED5  3A80               	xorlw	128
  5780  0ED6  027F               	subwf	btemp+1,w
  5781  0ED7  1D03               	skipz
  5782  0ED8  2EE3               	goto	u209_23
  5783  0ED9  085A               	movf	___fladd@a+2,w
  5784  0EDA  0256               	subwf	___fladd@b+2,w
  5785  0EDB  1D03               	skipz
  5786  0EDC  2EE3               	goto	u209_23
  5787  0EDD  0859               	movf	___fladd@a+1,w
  5788  0EDE  0255               	subwf	___fladd@b+1,w
  5789  0EDF  1D03               	skipz
  5790  0EE0  2EE3               	goto	u209_23
  5791  0EE1  0858               	movf	___fladd@a,w
  5792  0EE2  0254               	subwf	___fladd@b,w
  5793  0EE3                     u209_23:
  5794  0EE3  1803               	skipnc
  5795  0EE4  2EE6               	goto	u209_21
  5796  0EE5  2EE7               	goto	u209_20
  5797  0EE6                     u209_21:
  5798  0EE6  2F3F               	goto	i1l1979
  5799  0EE7                     u209_20:
  5800  0EE7                     i1l1971:
  5801  0EE7  30FF               	movlw	255
  5802  0EE8  00DC               	movwf	??___fladd
  5803  0EE9  30FF               	movlw	255
  5804  0EEA  00DD               	movwf	??___fladd+1
  5805  0EEB  30FF               	movlw	255
  5806  0EEC  00DE               	movwf	??___fladd+2
  5807  0EED  30FF               	movlw	255
  5808  0EEE  00DF               	movwf	??___fladd+3
  5809  0EEF  0858               	movf	___fladd@a,w
  5810  0EF0  00E0               	movwf	??___fladd+4
  5811  0EF1  0859               	movf	___fladd@a+1,w
  5812  0EF2  00E1               	movwf	??___fladd+5
  5813  0EF3  085A               	movf	___fladd@a+2,w
  5814  0EF4  00E2               	movwf	??___fladd+6
  5815  0EF5  085B               	movf	___fladd@a+3,w
  5816  0EF6  00E3               	movwf	??___fladd+7
  5817  0EF7  0854               	movf	___fladd@b,w
  5818  0EF8  02E0               	subwf	??___fladd+4,f
  5819  0EF9  0855               	movf	___fladd@b+1,w
  5820  0EFA  1C03               	skipc
  5821  0EFB  0F55               	incfsz	___fladd@b+1,w
  5822  0EFC  2EFE               	goto	u210_21
  5823  0EFD  2EFF               	goto	u210_22
  5824  0EFE                     u210_21:
  5825  0EFE  02E1               	subwf	??___fladd+5,f
  5826  0EFF                     u210_22:
  5827  0EFF  0856               	movf	___fladd@b+2,w
  5828  0F00  1C03               	skipc
  5829  0F01  0F56               	incfsz	___fladd@b+2,w
  5830  0F02  2F04               	goto	u210_23
  5831  0F03  2F05               	goto	u210_24
  5832  0F04                     u210_23:
  5833  0F04  02E2               	subwf	??___fladd+6,f
  5834  0F05                     u210_24:
  5835  0F05  0857               	movf	___fladd@b+3,w
  5836  0F06  1C03               	skipc
  5837  0F07  0F57               	incfsz	___fladd@b+3,w
  5838  0F08  2F0A               	goto	u210_25
  5839  0F09  2F0B               	goto	u210_26
  5840  0F0A                     u210_25:
  5841  0F0A  02E3               	subwf	??___fladd+7,f
  5842  0F0B                     u210_26:
  5843  0F0B  0860               	movf	??___fladd+4,w
  5844  0F0C  07DC               	addwf	??___fladd,f
  5845  0F0D  0861               	movf	??___fladd+5,w
  5846  0F0E  1803               	skipnc
  5847  0F0F  0F61               	incfsz	??___fladd+5,w
  5848  0F10  2F12               	goto	u211_20
  5849  0F11  2F13               	goto	u211_21
  5850  0F12                     u211_20:
  5851  0F12  07DD               	addwf	??___fladd+1,f
  5852  0F13                     u211_21:
  5853  0F13  0862               	movf	??___fladd+6,w
  5854  0F14  1803               	skipnc
  5855  0F15  0F62               	incfsz	??___fladd+6,w
  5856  0F16  2F18               	goto	u211_22
  5857  0F17  2F19               	goto	u211_23
  5858  0F18                     u211_22:
  5859  0F18  07DE               	addwf	??___fladd+2,f
  5860  0F19                     u211_23:
  5861  0F19  0863               	movf	??___fladd+7,w
  5862  0F1A  1803               	skipnc
  5863  0F1B  0A63               	incf	??___fladd+7,w
  5864  0F1C  07DF               	addwf	??___fladd+3,f
  5865  0F1D  085F               	movf	??___fladd+3,w
  5866  0F1E  00D7               	movwf	___fladd@b+3
  5867  0F1F  085E               	movf	??___fladd+2,w
  5868  0F20  00D6               	movwf	___fladd@b+2
  5869  0F21  085D               	movf	??___fladd+1,w
  5870  0F22  00D5               	movwf	___fladd@b+1
  5871  0F23  085C               	movf	??___fladd,w
  5872  0F24  00D4               	movwf	___fladd@b
  5873  0F25                     i1l1973:
  5874  0F25  3080               	movlw	128
  5875  0F26  00DC               	movwf	??___fladd
  5876  0F27  085C               	movf	??___fladd,w
  5877  0F28  06E4               	xorwf	___fladd@signs,f
  5878  0F29  09E7               	comf	___fladd@grs,f
  5879  0F2A  0AE7               	incf	___fladd@grs,f
  5880  0F2B                     i1l1975:
  5881  0F2B  0867               	movf	___fladd@grs,w
  5882  0F2C  1D03               	btfss	3,2
  5883  0F2D  2F2F               	goto	u212_21
  5884  0F2E  2F30               	goto	u212_20
  5885  0F2F                     u212_21:
  5886  0F2F  2F4D               	goto	i1l609
  5887  0F30                     u212_20:
  5888  0F30                     i1l1977:
  5889  0F30  3001               	movlw	1
  5890  0F31  07D4               	addwf	___fladd@b,f
  5891  0F32  3000               	movlw	0
  5892  0F33  1803               	skipnc
  5893  0F34  3001               	movlw	1
  5894  0F35  07D5               	addwf	___fladd@b+1,f
  5895  0F36  3000               	movlw	0
  5896  0F37  1803               	skipnc
  5897  0F38  3001               	movlw	1
  5898  0F39  07D6               	addwf	___fladd@b+2,f
  5899  0F3A  3000               	movlw	0
  5900  0F3B  1803               	skipnc
  5901  0F3C  3001               	movlw	1
  5902  0F3D  07D7               	addwf	___fladd@b+3,f
  5903  0F3E  2F4D               	goto	i1l609
  5904  0F3F                     i1l1979:
  5905  0F3F  0858               	movf	___fladd@a,w
  5906  0F40  02D4               	subwf	___fladd@b,f
  5907  0F41  0859               	movf	___fladd@a+1,w
  5908  0F42  1C03               	skipc
  5909  0F43  0F59               	incfsz	___fladd@a+1,w
  5910  0F44  02D5               	subwf	___fladd@b+1,f
  5911  0F45  085A               	movf	___fladd@a+2,w
  5912  0F46  1C03               	skipc
  5913  0F47  0F5A               	incfsz	___fladd@a+2,w
  5914  0F48  02D6               	subwf	___fladd@b+2,f
  5915  0F49  085B               	movf	___fladd@a+3,w
  5916  0F4A  1C03               	skipc
  5917  0F4B  0F5B               	incfsz	___fladd@a+3,w
  5918  0F4C  02D7               	subwf	___fladd@b+3,f
  5919  0F4D                     i1l609:
  5920  0F4D  0857               	movf	___fladd@b+3,w
  5921  0F4E  0456               	iorwf	___fladd@b+2,w
  5922  0F4F  0455               	iorwf	___fladd@b+1,w
  5923  0F50  0454               	iorwf	___fladd@b,w
  5924  0F51  1D03               	skipz
  5925  0F52  2F54               	goto	u213_21
  5926  0F53  2F55               	goto	u213_20
  5927  0F54                     u213_21:
  5928  0F54  2F81               	goto	i1l2001
  5929  0F55                     u213_20:
  5930  0F55                     i1l1981:
  5931  0F55  0867               	movf	___fladd@grs,w
  5932  0F56  1D03               	btfss	3,2
  5933  0F57  2F59               	goto	u214_21
  5934  0F58  2F5A               	goto	u214_20
  5935  0F59                     u214_21:
  5936  0F59  2F81               	goto	i1l2001
  5937  0F5A                     u214_20:
  5938  0F5A                     i1l1983:
  5939  0F5A  3000               	movlw	0
  5940  0F5B  00D7               	movwf	?___fladd+3
  5941  0F5C  3000               	movlw	0
  5942  0F5D  00D6               	movwf	?___fladd+2
  5943  0F5E  3000               	movlw	0
  5944  0F5F  00D5               	movwf	?___fladd+1
  5945  0F60  3000               	movlw	0
  5946  0F61  00D4               	movwf	?___fladd
  5947  0F62  2FFF               	goto	i1l601
  5948  0F63                     i1l1987:
  5949  0F63  3001               	movlw	1
  5950  0F64  00DC               	movwf	??___fladd
  5951  0F65                     u215_25:
  5952  0F65  1003               	clrc
  5953  0F66  0DD4               	rlf	___fladd@b,f
  5954  0F67  0DD5               	rlf	___fladd@b+1,f
  5955  0F68  0DD6               	rlf	___fladd@b+2,f
  5956  0F69  0DD7               	rlf	___fladd@b+3,f
  5957  0F6A  0BDC               	decfsz	??___fladd,f
  5958  0F6B  2F65               	goto	u215_25
  5959  0F6C                     i1l1989:
  5960  0F6C  1FE7               	btfss	___fladd@grs,7
  5961  0F6D  2F6F               	goto	u216_21
  5962  0F6E  2F70               	goto	u216_20
  5963  0F6F                     u216_21:
  5964  0F6F  2F71               	goto	i1l613
  5965  0F70                     u216_20:
  5966  0F70                     i1l1991:
  5967  0F70  1454               	bsf	___fladd@b,0
  5968  0F71                     i1l613:
  5969  0F71  1C67               	btfss	___fladd@grs,0
  5970  0F72  2F74               	goto	u217_21
  5971  0F73  2F75               	goto	u217_20
  5972  0F74                     u217_21:
  5973  0F74  2F78               	goto	i1l1995
  5974  0F75                     u217_20:
  5975  0F75                     i1l1993:
  5976  0F75  1403               	setc
  5977  0F76  0DE7               	rlf	___fladd@grs,f
  5978  0F77  2F7A               	goto	i1l1997
  5979  0F78                     i1l1995:
  5980  0F78  1003               	clrc
  5981  0F79  0DE7               	rlf	___fladd@grs,f
  5982  0F7A                     i1l1997:
  5983  0F7A  0866               	movf	___fladd@bexp,w
  5984  0F7B  1903               	btfsc	3,2
  5985  0F7C  2F7E               	goto	u218_21
  5986  0F7D  2F7F               	goto	u218_20
  5987  0F7E                     u218_21:
  5988  0F7E  2F81               	goto	i1l2001
  5989  0F7F                     u218_20:
  5990  0F7F                     i1l1999:
  5991  0F7F  3001               	movlw	1
  5992  0F80  02E6               	subwf	___fladd@bexp,f
  5993  0F81                     i1l2001:
  5994  0F81  1FD6               	btfss	___fladd@b+2,7
  5995  0F82  2F84               	goto	u219_21
  5996  0F83  2F85               	goto	u219_20
  5997  0F84                     u219_21:
  5998  0F84  2F63               	goto	i1l1987
  5999  0F85                     u219_20:
  6000  0F85                     i1l2003:
  6001  0F85  01E5               	clrf	___fladd@aexp
  6002  0F86                     i1l2005:
  6003  0F86  1FE7               	btfss	___fladd@grs,7
  6004  0F87  2F89               	goto	u220_21
  6005  0F88  2F8A               	goto	u220_20
  6006  0F89                     u220_21:
  6007  0F89  2F98               	goto	i1l2013
  6008  0F8A                     u220_20:
  6009  0F8A                     i1l2007:
  6010  0F8A  0867               	movf	___fladd@grs,w
  6011  0F8B  397F               	andlw	127
  6012  0F8C  1903               	btfsc	3,2
  6013  0F8D  2F8F               	goto	u221_21
  6014  0F8E  2F90               	goto	u221_20
  6015  0F8F                     u221_21:
  6016  0F8F  2F93               	goto	i1l619
  6017  0F90                     u221_20:
  6018  0F90                     i1l2009:
  6019  0F90  01E5               	clrf	___fladd@aexp
  6020  0F91  0AE5               	incf	___fladd@aexp,f
  6021  0F92  2F98               	goto	i1l2013
  6022  0F93                     i1l619:
  6023  0F93  1C54               	btfss	___fladd@b,0
  6024  0F94  2F96               	goto	u222_21
  6025  0F95  2F97               	goto	u222_20
  6026  0F96                     u222_21:
  6027  0F96  2F98               	goto	i1l2013
  6028  0F97                     u222_20:
  6029  0F97  2F90               	goto	i1l2009
  6030  0F98                     i1l2013:
  6031  0F98  0865               	movf	___fladd@aexp,w
  6032  0F99  1903               	btfsc	3,2
  6033  0F9A  2F9C               	goto	u223_21
  6034  0F9B  2F9D               	goto	u223_20
  6035  0F9C                     u223_21:
  6036  0F9C  2FD1               	goto	i1l622
  6037  0F9D                     u223_20:
  6038  0F9D                     i1l2015:
  6039  0F9D  3001               	movlw	1
  6040  0F9E  07D4               	addwf	___fladd@b,f
  6041  0F9F  3000               	movlw	0
  6042  0FA0  1803               	skipnc
  6043  0FA1  3001               	movlw	1
  6044  0FA2  07D5               	addwf	___fladd@b+1,f
  6045  0FA3  3000               	movlw	0
  6046  0FA4  1803               	skipnc
  6047  0FA5  3001               	movlw	1
  6048  0FA6  07D6               	addwf	___fladd@b+2,f
  6049  0FA7  3000               	movlw	0
  6050  0FA8  1803               	skipnc
  6051  0FA9  3001               	movlw	1
  6052  0FAA  07D7               	addwf	___fladd@b+3,f
  6053  0FAB                     i1l2017:
  6054  0FAB  1C57               	btfss	___fladd@b+3,0
  6055  0FAC  2FAE               	goto	u224_21
  6056  0FAD  2FAF               	goto	u224_20
  6057  0FAE                     u224_21:
  6058  0FAE  2FD1               	goto	i1l622
  6059  0FAF                     u224_20:
  6060  0FAF                     i1l2019:
  6061  0FAF  0854               	movf	___fladd@b,w
  6062  0FB0  00DC               	movwf	??___fladd
  6063  0FB1  0855               	movf	___fladd@b+1,w
  6064  0FB2  00DD               	movwf	??___fladd+1
  6065  0FB3  0856               	movf	___fladd@b+2,w
  6066  0FB4  00DE               	movwf	??___fladd+2
  6067  0FB5  0857               	movf	___fladd@b+3,w
  6068  0FB6  00DF               	movwf	??___fladd+3
  6069  0FB7  3001               	movlw	1
  6070  0FB8  00E0               	movwf	??___fladd+4
  6071  0FB9                     u225_25:
  6072  0FB9  0D5F               	rlf	??___fladd+3,w
  6073  0FBA  0CDF               	rrf	??___fladd+3,f
  6074  0FBB  0CDE               	rrf	??___fladd+2,f
  6075  0FBC  0CDD               	rrf	??___fladd+1,f
  6076  0FBD  0CDC               	rrf	??___fladd,f
  6077  0FBE                     u225_20:
  6078  0FBE  0BE0               	decfsz	??___fladd+4,f
  6079  0FBF  2FB9               	goto	u225_25
  6080  0FC0  085F               	movf	??___fladd+3,w
  6081  0FC1  00D7               	movwf	___fladd@b+3
  6082  0FC2  085E               	movf	??___fladd+2,w
  6083  0FC3  00D6               	movwf	___fladd@b+2
  6084  0FC4  085D               	movf	??___fladd+1,w
  6085  0FC5  00D5               	movwf	___fladd@b+1
  6086  0FC6  085C               	movf	??___fladd,w
  6087  0FC7  00D4               	movwf	___fladd@b
  6088  0FC8  0A66               	incf	___fladd@bexp,w
  6089  0FC9  1903               	btfsc	3,2
  6090  0FCA  2FCC               	goto	u226_21
  6091  0FCB  2FCD               	goto	u226_20
  6092  0FCC                     u226_21:
  6093  0FCC  2FD1               	goto	i1l622
  6094  0FCD                     u226_20:
  6095  0FCD                     i1l2021:
  6096  0FCD  3001               	movlw	1
  6097  0FCE  00DC               	movwf	??___fladd
  6098  0FCF  085C               	movf	??___fladd,w
  6099  0FD0  07E6               	addwf	___fladd@bexp,f
  6100  0FD1                     i1l622:
  6101  0FD1  0A66               	incf	___fladd@bexp,w
  6102  0FD2  1903               	btfsc	3,2
  6103  0FD3  2FD5               	goto	u227_21
  6104  0FD4  2FD6               	goto	u227_20
  6105  0FD5                     u227_21:
  6106  0FD5  2FDB               	goto	i1l2025
  6107  0FD6                     u227_20:
  6108  0FD6                     i1l2023:
  6109  0FD6  0866               	movf	___fladd@bexp,w
  6110  0FD7  1D03               	btfss	3,2
  6111  0FD8  2FDA               	goto	u228_21
  6112  0FD9  2FDB               	goto	u228_20
  6113  0FDA                     u228_21:
  6114  0FDA  2FE9               	goto	i1l2031
  6115  0FDB                     u228_20:
  6116  0FDB                     i1l2025:
  6117  0FDB  3000               	movlw	0
  6118  0FDC  00D7               	movwf	___fladd@b+3
  6119  0FDD  3000               	movlw	0
  6120  0FDE  00D6               	movwf	___fladd@b+2
  6121  0FDF  3000               	movlw	0
  6122  0FE0  00D5               	movwf	___fladd@b+1
  6123  0FE1  3000               	movlw	0
  6124  0FE2  00D4               	movwf	___fladd@b
  6125  0FE3                     i1l2027:
  6126  0FE3  0866               	movf	___fladd@bexp,w
  6127  0FE4  1D03               	btfss	3,2
  6128  0FE5  2FE7               	goto	u229_21
  6129  0FE6  2FE8               	goto	u229_20
  6130  0FE7                     u229_21:
  6131  0FE7  2FE9               	goto	i1l2031
  6132  0FE8                     u229_20:
  6133  0FE8                     i1l2029:
  6134  0FE8  01E4               	clrf	___fladd@signs
  6135  0FE9                     i1l2031:
  6136  0FE9  1C66               	btfss	___fladd@bexp,0
  6137  0FEA  2FEC               	goto	u230_21
  6138  0FEB  2FED               	goto	u230_20
  6139  0FEC                     u230_21:
  6140  0FEC  2FEF               	goto	i1l2035
  6141  0FED                     u230_20:
  6142  0FED                     i1l2033:
  6143  0FED  17D6               	bsf	___fladd@b+2,7
  6144  0FEE  2FF3               	goto	i1l630
  6145  0FEF                     i1l2035:
  6146  0FEF  307F               	movlw	127
  6147  0FF0  00DC               	movwf	??___fladd
  6148  0FF1  085C               	movf	??___fladd,w
  6149  0FF2  05D6               	andwf	___fladd@b+2,f
  6150  0FF3                     i1l630:
  6151  0FF3  0866               	movf	___fladd@bexp,w
  6152  0FF4  00DC               	movwf	??___fladd
  6153  0FF5  1003               	clrc
  6154  0FF6  0C5C               	rrf	??___fladd,w
  6155  0FF7  00DD               	movwf	??___fladd+1
  6156  0FF8  085D               	movf	??___fladd+1,w
  6157  0FF9  00D7               	movwf	___fladd@b+3
  6158  0FFA                     i1l2037:
  6159  0FFA  1FE4               	btfss	___fladd@signs,7
  6160  0FFB  2FFD               	goto	u231_21
  6161  0FFC  2FFE               	goto	u231_20
  6162  0FFD                     u231_21:
  6163  0FFD  2FFF               	goto	i1l631
  6164  0FFE                     u231_20:
  6165  0FFE                     i1l2039:
  6166  0FFE  17D7               	bsf	___fladd@b+3,7
  6167  0FFF                     i1l631:
  6168  0FFF                     i1l601:
  6169  0FFF  0008               	return
  6170  1000                     __end_of___fladd:
  6171                           
  6172                           	psect	text10
  6173  17AB                     __ptext10:	
  6174 ;; *************** function _load_data_rb2 *****************
  6175 ;; Defined at:
  6176 ;;		line 395 in file "master_main_dar-alv.c"
  6177 ;; Parameters:    Size  Location     Type
  6178 ;;		None
  6179 ;; Auto vars:     Size  Location     Type
  6180 ;;		None
  6181 ;; Return value:  Size  Location     Type
  6182 ;;                  1    wreg      void 
  6183 ;; Registers used:
  6184 ;;		wreg, status,2, status,0, pclath, cstack
  6185 ;; Tracked objects:
  6186 ;;		On entry : 0/0
  6187 ;;		On exit  : 0/0
  6188 ;;		Unchanged: 0/0
  6189 ;; Data sizes:     COMMON   BANK0   BANK1   BANK3   BANK2
  6190 ;;      Params:         0       0       0       0       0
  6191 ;;      Locals:         0       0       0       0       0
  6192 ;;      Temps:          2       0       0       0       0
  6193 ;;      Totals:         2       0       0       0       0
  6194 ;;Total ram usage:        2 bytes
  6195 ;; Hardware stack levels used: 1
  6196 ;; Hardware stack levels required when called: 1
  6197 ;; This function calls:
  6198 ;;		_EEPROM_write
  6199 ;; This function is called by:
  6200 ;;		_isr
  6201 ;; This function uses a non-reentrant model
  6202 ;;
  6203                           
  6204  17AB                     _load_data_rb2:	
  6205                           ;psect for function _load_data_rb2
  6206                           
  6207  17AB                     i1l2379:	
  6208                           ;incstack = 0
  6209                           ; Regs used in _load_data_rb2: [wreg+status,2+status,0+pclath+cstack]
  6210                           
  6211                           
  6212                           ;master_main_dar-alv.c: 396:     EEPROM_write(0x04, pot1_in);
  6213  17AB  1683               	bsf	3,5	;RP0=1, select bank1
  6214  17AC  1303               	bcf	3,6	;RP1=0, select bank1
  6215  17AD  083A               	movf	_pot1_in^(0+128),w
  6216  17AE  00F2               	movwf	??_load_data_rb2
  6217  17AF  0872               	movf	??_load_data_rb2,w
  6218  17B0  00F0               	movwf	EEPROM_write@data
  6219  17B1  3004               	movlw	4
  6220  17B2  120A  118A  27E7  160A  118A  	fcall	_EEPROM_write
  6221  17B7                     i1l2381:
  6222                           
  6223                           ;master_main_dar-alv.c: 397:     _delay((unsigned long)((250)*(500000/4000.0)));
  6224  17B7  3029               	movlw	41
  6225  17B8  00F3               	movwf	??_load_data_rb2+1
  6226  17B9  3094               	movlw	148
  6227  17BA  00F2               	movwf	??_load_data_rb2
  6228  17BB                     u371_27:
  6229  17BB  0BF2               	decfsz	??_load_data_rb2,f
  6230  17BC  2FBB               	goto	u371_27
  6231  17BD  0BF3               	decfsz	??_load_data_rb2+1,f
  6232  17BE  2FBB               	goto	u371_27
  6233  17BF  0000               	nop
  6234  17C0                     i1l2383:
  6235                           
  6236                           ;master_main_dar-alv.c: 398:     EEPROM_write(0x05, pot2_in);
  6237  17C0  1683               	bsf	3,5	;RP0=1, select bank1
  6238  17C1  1303               	bcf	3,6	;RP1=0, select bank1
  6239  17C2  0839               	movf	_pot2_in^(0+128),w
  6240  17C3  00F2               	movwf	??_load_data_rb2
  6241  17C4  0872               	movf	??_load_data_rb2,w
  6242  17C5  00F0               	movwf	EEPROM_write@data
  6243  17C6  3005               	movlw	5
  6244  17C7  120A  118A  27E7  160A  118A  	fcall	_EEPROM_write
  6245                           
  6246                           ;master_main_dar-alv.c: 399:     _delay((unsigned long)((250)*(500000/4000.0)));
  6247  17CC  3029               	movlw	41
  6248  17CD  00F3               	movwf	??_load_data_rb2+1
  6249  17CE  3094               	movlw	148
  6250  17CF  00F2               	movwf	??_load_data_rb2
  6251  17D0                     u372_27:
  6252  17D0  0BF2               	decfsz	??_load_data_rb2,f
  6253  17D1  2FD0               	goto	u372_27
  6254  17D2  0BF3               	decfsz	??_load_data_rb2+1,f
  6255  17D3  2FD0               	goto	u372_27
  6256  17D4  0000               	nop
  6257  17D5                     i1l2385:
  6258                           
  6259                           ;master_main_dar-alv.c: 400:     EEPROM_write(0x06, pot3_in);
  6260  17D5  1683               	bsf	3,5	;RP0=1, select bank1
  6261  17D6  1303               	bcf	3,6	;RP1=0, select bank1
  6262  17D7  0838               	movf	_pot3_in^(0+128),w
  6263  17D8  00F2               	movwf	??_load_data_rb2
  6264  17D9  0872               	movf	??_load_data_rb2,w
  6265  17DA  00F0               	movwf	EEPROM_write@data
  6266  17DB  3006               	movlw	6
  6267  17DC  120A  118A  27E7  160A  118A  	fcall	_EEPROM_write
  6268  17E1                     i1l2387:
  6269                           
  6270                           ;master_main_dar-alv.c: 401:     _delay((unsigned long)((250)*(500000/4000.0)));
  6271  17E1  3029               	movlw	41
  6272  17E2  00F3               	movwf	??_load_data_rb2+1
  6273  17E3  3094               	movlw	148
  6274  17E4  00F2               	movwf	??_load_data_rb2
  6275  17E5                     u373_27:
  6276  17E5  0BF2               	decfsz	??_load_data_rb2,f
  6277  17E6  2FE5               	goto	u373_27
  6278  17E7  0BF3               	decfsz	??_load_data_rb2+1,f
  6279  17E8  2FE5               	goto	u373_27
  6280  17E9  0000               	nop
  6281                           
  6282                           ;master_main_dar-alv.c: 402:     EEPROM_write(0x07, pot4_in);
  6283  17EA  1683               	bsf	3,5	;RP0=1, select bank1
  6284  17EB  1303               	bcf	3,6	;RP1=0, select bank1
  6285  17EC  0837               	movf	_pot4_in^(0+128),w
  6286  17ED  00F2               	movwf	??_load_data_rb2
  6287  17EE  0872               	movf	??_load_data_rb2,w
  6288  17EF  00F0               	movwf	EEPROM_write@data
  6289  17F0  3007               	movlw	7
  6290  17F1  120A  118A  27E7  160A  118A  	fcall	_EEPROM_write
  6291  17F6                     i1l2389:
  6292                           
  6293                           ;master_main_dar-alv.c: 403:     _delay((unsigned long)((250)*(500000/4000.0)));
  6294  17F6  3029               	movlw	41
  6295  17F7  00F3               	movwf	??_load_data_rb2+1
  6296  17F8  3094               	movlw	148
  6297  17F9  00F2               	movwf	??_load_data_rb2
  6298  17FA                     u374_27:
  6299  17FA  0BF2               	decfsz	??_load_data_rb2,f
  6300  17FB  2FFA               	goto	u374_27
  6301  17FC  0BF3               	decfsz	??_load_data_rb2+1,f
  6302  17FD  2FFA               	goto	u374_27
  6303  17FE  0000               	nop
  6304  17FF                     i1l209:
  6305  17FF  0008               	return
  6306  1800                     __end_of_load_data_rb2:
  6307                           
  6308                           	psect	text11
  6309  1756                     __ptext11:	
  6310 ;; *************** function _load_data_rb1 *****************
  6311 ;; Defined at:
  6312 ;;		line 384 in file "master_main_dar-alv.c"
  6313 ;; Parameters:    Size  Location     Type
  6314 ;;		None
  6315 ;; Auto vars:     Size  Location     Type
  6316 ;;		None
  6317 ;; Return value:  Size  Location     Type
  6318 ;;                  1    wreg      void 
  6319 ;; Registers used:
  6320 ;;		wreg, status,2, status,0, pclath, cstack
  6321 ;; Tracked objects:
  6322 ;;		On entry : 0/0
  6323 ;;		On exit  : 0/0
  6324 ;;		Unchanged: 0/0
  6325 ;; Data sizes:     COMMON   BANK0   BANK1   BANK3   BANK2
  6326 ;;      Params:         0       0       0       0       0
  6327 ;;      Locals:         0       0       0       0       0
  6328 ;;      Temps:          2       0       0       0       0
  6329 ;;      Totals:         2       0       0       0       0
  6330 ;;Total ram usage:        2 bytes
  6331 ;; Hardware stack levels used: 1
  6332 ;; Hardware stack levels required when called: 1
  6333 ;; This function calls:
  6334 ;;		_EEPROM_write
  6335 ;; This function is called by:
  6336 ;;		_isr
  6337 ;; This function uses a non-reentrant model
  6338 ;;
  6339                           
  6340  1756                     _load_data_rb1:	
  6341                           ;psect for function _load_data_rb1
  6342                           
  6343  1756                     i1l2367:	
  6344                           ;incstack = 0
  6345                           ; Regs used in _load_data_rb1: [wreg+status,2+status,0+pclath+cstack]
  6346                           
  6347                           
  6348                           ;master_main_dar-alv.c: 385:     EEPROM_write(0x00, pot1_in);
  6349  1756  1683               	bsf	3,5	;RP0=1, select bank1
  6350  1757  1303               	bcf	3,6	;RP1=0, select bank1
  6351  1758  083A               	movf	_pot1_in^(0+128),w
  6352  1759  00F2               	movwf	??_load_data_rb1
  6353  175A  0872               	movf	??_load_data_rb1,w
  6354  175B  00F0               	movwf	EEPROM_write@data
  6355  175C  3000               	movlw	0
  6356  175D  120A  118A  27E7  160A  118A  	fcall	_EEPROM_write
  6357  1762                     i1l2369:
  6358                           
  6359                           ;master_main_dar-alv.c: 386:     _delay((unsigned long)((250)*(500000/4000.0)));
  6360  1762  3029               	movlw	41
  6361  1763  00F3               	movwf	??_load_data_rb1+1
  6362  1764  3094               	movlw	148
  6363  1765  00F2               	movwf	??_load_data_rb1
  6364  1766                     u375_27:
  6365  1766  0BF2               	decfsz	??_load_data_rb1,f
  6366  1767  2F66               	goto	u375_27
  6367  1768  0BF3               	decfsz	??_load_data_rb1+1,f
  6368  1769  2F66               	goto	u375_27
  6369  176A  0000               	nop
  6370  176B                     i1l2371:
  6371                           
  6372                           ;master_main_dar-alv.c: 387:     EEPROM_write(0x01, pot2_in);
  6373  176B  1683               	bsf	3,5	;RP0=1, select bank1
  6374  176C  1303               	bcf	3,6	;RP1=0, select bank1
  6375  176D  0839               	movf	_pot2_in^(0+128),w
  6376  176E  00F2               	movwf	??_load_data_rb1
  6377  176F  0872               	movf	??_load_data_rb1,w
  6378  1770  00F0               	movwf	EEPROM_write@data
  6379  1771  3001               	movlw	1
  6380  1772  120A  118A  27E7  160A  118A  	fcall	_EEPROM_write
  6381                           
  6382                           ;master_main_dar-alv.c: 388:     _delay((unsigned long)((250)*(500000/4000.0)));
  6383  1777  3029               	movlw	41
  6384  1778  00F3               	movwf	??_load_data_rb1+1
  6385  1779  3094               	movlw	148
  6386  177A  00F2               	movwf	??_load_data_rb1
  6387  177B                     u376_27:
  6388  177B  0BF2               	decfsz	??_load_data_rb1,f
  6389  177C  2F7B               	goto	u376_27
  6390  177D  0BF3               	decfsz	??_load_data_rb1+1,f
  6391  177E  2F7B               	goto	u376_27
  6392  177F  0000               	nop
  6393  1780                     i1l2373:
  6394                           
  6395                           ;master_main_dar-alv.c: 389:     EEPROM_write(0x02, pot3_in);
  6396  1780  1683               	bsf	3,5	;RP0=1, select bank1
  6397  1781  1303               	bcf	3,6	;RP1=0, select bank1
  6398  1782  0838               	movf	_pot3_in^(0+128),w
  6399  1783  00F2               	movwf	??_load_data_rb1
  6400  1784  0872               	movf	??_load_data_rb1,w
  6401  1785  00F0               	movwf	EEPROM_write@data
  6402  1786  3002               	movlw	2
  6403  1787  120A  118A  27E7  160A  118A  	fcall	_EEPROM_write
  6404  178C                     i1l2375:
  6405                           
  6406                           ;master_main_dar-alv.c: 390:     _delay((unsigned long)((250)*(500000/4000.0)));
  6407  178C  3029               	movlw	41
  6408  178D  00F3               	movwf	??_load_data_rb1+1
  6409  178E  3094               	movlw	148
  6410  178F  00F2               	movwf	??_load_data_rb1
  6411  1790                     u377_27:
  6412  1790  0BF2               	decfsz	??_load_data_rb1,f
  6413  1791  2F90               	goto	u377_27
  6414  1792  0BF3               	decfsz	??_load_data_rb1+1,f
  6415  1793  2F90               	goto	u377_27
  6416  1794  0000               	nop
  6417                           
  6418                           ;master_main_dar-alv.c: 391:     EEPROM_write(0x03, pot4_in);
  6419  1795  1683               	bsf	3,5	;RP0=1, select bank1
  6420  1796  1303               	bcf	3,6	;RP1=0, select bank1
  6421  1797  0837               	movf	_pot4_in^(0+128),w
  6422  1798  00F2               	movwf	??_load_data_rb1
  6423  1799  0872               	movf	??_load_data_rb1,w
  6424  179A  00F0               	movwf	EEPROM_write@data
  6425  179B  3003               	movlw	3
  6426  179C  120A  118A  27E7  160A  118A  	fcall	_EEPROM_write
  6427  17A1                     i1l2377:
  6428                           
  6429                           ;master_main_dar-alv.c: 392:     _delay((unsigned long)((250)*(500000/4000.0)));
  6430  17A1  3029               	movlw	41
  6431  17A2  00F3               	movwf	??_load_data_rb1+1
  6432  17A3  3094               	movlw	148
  6433  17A4  00F2               	movwf	??_load_data_rb1
  6434  17A5                     u378_27:
  6435  17A5  0BF2               	decfsz	??_load_data_rb1,f
  6436  17A6  2FA5               	goto	u378_27
  6437  17A7  0BF3               	decfsz	??_load_data_rb1+1,f
  6438  17A8  2FA5               	goto	u378_27
  6439  17A9  0000               	nop
  6440  17AA                     i1l206:
  6441  17AA  0008               	return
  6442  17AB                     __end_of_load_data_rb1:
  6443                           
  6444                           	psect	text12
  6445  07E7                     __ptext12:	
  6446 ;; *************** function _EEPROM_write *****************
  6447 ;; Defined at:
  6448 ;;		line 367 in file "master_main_dar-alv.c"
  6449 ;; Parameters:    Size  Location     Type
  6450 ;;  adress          1    wreg     unsigned char 
  6451 ;;  data            1    0[COMMON] unsigned char 
  6452 ;; Auto vars:     Size  Location     Type
  6453 ;;  adress          1    1[COMMON] unsigned char 
  6454 ;; Return value:  Size  Location     Type
  6455 ;;                  1    wreg      void 
  6456 ;; Registers used:
  6457 ;;		wreg
  6458 ;; Tracked objects:
  6459 ;;		On entry : 0/0
  6460 ;;		On exit  : 0/0
  6461 ;;		Unchanged: 0/0
  6462 ;; Data sizes:     COMMON   BANK0   BANK1   BANK3   BANK2
  6463 ;;      Params:         1       0       0       0       0
  6464 ;;      Locals:         1       0       0       0       0
  6465 ;;      Temps:          0       0       0       0       0
  6466 ;;      Totals:         2       0       0       0       0
  6467 ;;Total ram usage:        2 bytes
  6468 ;; Hardware stack levels used: 1
  6469 ;; This function calls:
  6470 ;;		Nothing
  6471 ;; This function is called by:
  6472 ;;		_load_data_rb1
  6473 ;;		_load_data_rb2
  6474 ;; This function uses a non-reentrant model
  6475 ;;
  6476                           
  6477  07E7                     _EEPROM_write:	
  6478                           ;psect for function _EEPROM_write
  6479                           
  6480                           
  6481                           ;incstack = 0
  6482                           ; Regs used in _EEPROM_write: [wreg]
  6483                           ;EEPROM_write@adress stored from wreg
  6484  07E7  00F1               	movwf	EEPROM_write@adress
  6485  07E8                     i1l1795:
  6486                           
  6487                           ;master_main_dar-alv.c: 368:     EEADR = adress;
  6488  07E8  0871               	movf	EEPROM_write@adress,w
  6489  07E9  1283               	bcf	3,5	;RP0=0, select bank2
  6490  07EA  1703               	bsf	3,6	;RP1=1, select bank2
  6491  07EB  008D               	movwf	13	;volatile
  6492                           
  6493                           ;master_main_dar-alv.c: 369:     EEDAT = data;
  6494  07EC  0870               	movf	EEPROM_write@data,w
  6495  07ED  008C               	movwf	12	;volatile
  6496  07EE                     i1l1797:
  6497                           
  6498                           ;master_main_dar-alv.c: 370:     EECON1bits.EEPGD = 0;
  6499  07EE  1683               	bsf	3,5	;RP0=1, select bank3
  6500  07EF  1703               	bsf	3,6	;RP1=1, select bank3
  6501  07F0  138C               	bcf	12,7	;volsfr
  6502  07F1                     i1l1799:
  6503                           
  6504                           ;master_main_dar-alv.c: 371:     EECON1bits.WREN = 1;
  6505  07F1  150C               	bsf	12,2	;volsfr
  6506  07F2                     i1l1801:
  6507                           
  6508                           ;master_main_dar-alv.c: 373:     INTCONbits.GIE = 0;
  6509  07F2  138B               	bcf	11,7	;volatile
  6510                           
  6511                           ;master_main_dar-alv.c: 374:     EECON2 = 0x55;
  6512  07F3  3055               	movlw	85
  6513  07F4  008D               	movwf	13	;volsfr
  6514                           
  6515                           ;master_main_dar-alv.c: 375:     EECON2 = 0xAA;
  6516  07F5  30AA               	movlw	170
  6517  07F6  008D               	movwf	13	;volsfr
  6518  07F7                     i1l1803:
  6519                           
  6520                           ;master_main_dar-alv.c: 377:     EECON1bits.WR = 1;
  6521  07F7  148C               	bsf	12,1	;volsfr
  6522  07F8                     i1l1805:
  6523                           
  6524                           ;master_main_dar-alv.c: 379:     EECON1bits.WREN = 0;
  6525  07F8  110C               	bcf	12,2	;volsfr
  6526  07F9                     i1l1807:
  6527                           
  6528                           ;master_main_dar-alv.c: 380:     INTCONbits.RBIF = 0;
  6529  07F9  100B               	bcf	11,0	;volatile
  6530  07FA                     i1l1809:
  6531                           
  6532                           ;master_main_dar-alv.c: 381:     INTCONbits.GIE = 1;
  6533  07FA  178B               	bsf	11,7	;volatile
  6534  07FB                     i1l203:
  6535  07FB  0008               	return
  6536  07FC                     __end_of_EEPROM_write:
  6537                           
  6538                           	psect	text13
  6539  0833                     __ptext13:	
  6540 ;; *************** function _EEPROM_read *****************
  6541 ;; Defined at:
  6542 ;;		line 359 in file "master_main_dar-alv.c"
  6543 ;; Parameters:    Size  Location     Type
  6544 ;;  adress          1    wreg     unsigned char 
  6545 ;; Auto vars:     Size  Location     Type
  6546 ;;  adress          1    0[COMMON] unsigned char 
  6547 ;; Return value:  Size  Location     Type
  6548 ;;                  1    wreg      unsigned char 
  6549 ;; Registers used:
  6550 ;;		wreg
  6551 ;; Tracked objects:
  6552 ;;		On entry : 0/0
  6553 ;;		On exit  : 0/0
  6554 ;;		Unchanged: 0/0
  6555 ;; Data sizes:     COMMON   BANK0   BANK1   BANK3   BANK2
  6556 ;;      Params:         0       0       0       0       0
  6557 ;;      Locals:         1       0       0       0       0
  6558 ;;      Temps:          0       0       0       0       0
  6559 ;;      Totals:         1       0       0       0       0
  6560 ;;Total ram usage:        1 bytes
  6561 ;; Hardware stack levels used: 1
  6562 ;; This function calls:
  6563 ;;		Nothing
  6564 ;; This function is called by:
  6565 ;;		_isr
  6566 ;; This function uses a non-reentrant model
  6567 ;;
  6568                           
  6569  0833                     _EEPROM_read:	
  6570                           ;psect for function _EEPROM_read
  6571                           
  6572                           
  6573                           ;incstack = 0
  6574                           ; Regs used in _EEPROM_read: [wreg]
  6575                           ;EEPROM_read@adress stored from wreg
  6576  0833  00F0               	movwf	EEPROM_read@adress
  6577  0834                     i1l2391:
  6578                           
  6579                           ;master_main_dar-alv.c: 360:     EEADR = adress;
  6580  0834  0870               	movf	EEPROM_read@adress,w
  6581  0835  1283               	bcf	3,5	;RP0=0, select bank2
  6582  0836  1703               	bsf	3,6	;RP1=1, select bank2
  6583  0837  008D               	movwf	13	;volatile
  6584  0838                     i1l2393:
  6585                           
  6586                           ;master_main_dar-alv.c: 361:     EECON1bits.EEPGD = 0;
  6587  0838  1683               	bsf	3,5	;RP0=1, select bank3
  6588  0839  1703               	bsf	3,6	;RP1=1, select bank3
  6589  083A  138C               	bcf	12,7	;volsfr
  6590  083B                     i1l2395:
  6591                           
  6592                           ;master_main_dar-alv.c: 362:     EECON1bits.RD = 1;
  6593  083B  140C               	bsf	12,0	;volsfr
  6594                           
  6595                           ;master_main_dar-alv.c: 363:     return EEDAT;
  6596  083C  1283               	bcf	3,5	;RP0=0, select bank2
  6597  083D  1703               	bsf	3,6	;RP1=1, select bank2
  6598  083E  080C               	movf	12,w	;volatile
  6599  083F                     i1l200:
  6600  083F  0008               	return
  6601  0840                     __end_of_EEPROM_read:
  6602  007E                     btemp	set	126	;btemp
  6603  007E                     wtemp0	set	126
  6604                           
  6605                           	psect	idloc
  6606                           
  6607                           ;Config register IDLOC0 @ 0x2000
  6608                           ;	unspecified, using default values
  6609  2000                     	org	8192
  6610  2000  3FFF               	dw	16383
  6611                           
  6612                           ;Config register IDLOC1 @ 0x2001
  6613                           ;	unspecified, using default values
  6614  2001                     	org	8193
  6615  2001  3FFF               	dw	16383
  6616                           
  6617                           ;Config register IDLOC2 @ 0x2002
  6618                           ;	unspecified, using default values
  6619  2002                     	org	8194
  6620  2002  3FFF               	dw	16383
  6621                           
  6622                           ;Config register IDLOC3 @ 0x2003
  6623                           ;	unspecified, using default values
  6624  2003                     	org	8195
  6625  2003  3FFF               	dw	16383
  6626                           
  6627                           	psect	config
  6628                           
  6629                           ;Config register CONFIG1 @ 0x2007
  6630                           ;	Oscillator Selection bits
  6631                           ;	FOSC = INTRC_NOCLKOUT, INTOSCIO oscillator: I/O function on RA6/OSC2/CLKOUT pin, I/O f
      +                          unction on RA7/OSC1/CLKIN
  6632                           ;	Watchdog Timer Enable bit
  6633                           ;	WDTE = OFF, WDT disabled and can be enabled by SWDTEN bit of the WDTCON register
  6634                           ;	Power-up Timer Enable bit
  6635                           ;	PWRTE = OFF, PWRT disabled
  6636                           ;	RE3/MCLR pin function select bit
  6637                           ;	MCLRE = OFF, RE3/MCLR pin function is digital input, MCLR internally tied to VDD
  6638                           ;	Code Protection bit
  6639                           ;	CP = OFF, Program memory code protection is disabled
  6640                           ;	Data Code Protection bit
  6641                           ;	CPD = OFF, Data memory code protection is disabled
  6642                           ;	Brown Out Reset Selection bits
  6643                           ;	BOREN = OFF, BOR disabled
  6644                           ;	Internal External Switchover bit
  6645                           ;	IESO = OFF, Internal/External Switchover mode is disabled
  6646                           ;	Fail-Safe Clock Monitor Enabled bit
  6647                           ;	FCMEN = OFF, Fail-Safe Clock Monitor is disabled
  6648                           ;	Low Voltage Programming Enable bit
  6649                           ;	LVP = OFF, RB3 pin has digital I/O, HV on MCLR must be used for programming
  6650                           ;	In-Circuit Debugger Mode bit
  6651                           ;	DEBUG = 0x1, unprogrammed default
  6652  2007                     	org	8199
  6653  2007  20D4               	dw	8404
  6654                           
  6655                           ;Config register CONFIG2 @ 0x2008
  6656                           ;	Brown-out Reset Selection bit
  6657                           ;	BOR4V = BOR40V, Brown-out Reset set to 4.0V
  6658                           ;	Flash Program Memory Self Write Enable bits
  6659                           ;	WRT = OFF, Write protection off
  6660  2008                     	org	8200
  6661  2008  3FFF               	dw	16383

Data Sizes:
    Strings     0
    Constant    0
    Data        7
    BSS         8
    Persistent  0
    Stack       0

Auto Spaces:
    Space          Size  Autos    Used
    COMMON           14     14      14
    BANK0            80     79      79
    BANK1            80     19      34
    BANK3            96      0       0
    BANK2            96      0       0

Pointer List with Targets:

    None.

Critical Paths under _main in COMMON

    None.

Critical Paths under _isr in COMMON

    _map->___xxtofl
    ___fltol->___xxtofl
    ___flmul->___xxtofl
    ___fldiv->___xxtofl
    ___fladd->___xxtofl
    _load_data_rb2->_EEPROM_write
    _load_data_rb1->_EEPROM_write

Critical Paths under _main in BANK0

    None.

Critical Paths under _isr in BANK0

    _isr->_map
    _map->___fltol
    ___fltol->___fladd
    ___flmul->___fldiv
    ___fladd->___flmul

Critical Paths under _main in BANK1

    _main->_setup

Critical Paths under _isr in BANK1

    _isr->_map
    _map->___fltol

Critical Paths under _main in BANK3

    None.

Critical Paths under _isr in BANK3

    None.

Critical Paths under _main in BANK2

    None.

Critical Paths under _isr in BANK2

    None.

Call Graph Tables:

 ---------------------------------------------------------------------------------
 (Depth) Function   	        Calls       Base Space   Used Autos Params    Refs
 ---------------------------------------------------------------------------------
 (0) _main                                                 2     2      0       0
                                             17 BANK1      2     2      0
                              _setup
 ---------------------------------------------------------------------------------
 (1) _setup                                                1     1      0       0
                                             16 BANK1      1     1      0
 ---------------------------------------------------------------------------------
 Estimated maximum stack depth 1
 ---------------------------------------------------------------------------------
 (Depth) Function   	        Calls       Base Space   Used Autos Params    Refs
 ---------------------------------------------------------------------------------
 (2) _isr                                                  5     5      0   10187
                                             11 BANK1      5     5      0
                        _EEPROM_read
                      _load_data_rb1
                      _load_data_rb2
                                _map
 ---------------------------------------------------------------------------------
 (3) _map                                                  7     1      6    8861
                                             78 BANK0      1     1      0
                                              5 BANK1      6     0      6
                            ___fladd
                            ___fldiv
                            ___flmul
                            ___fltol
                           ___xxtofl
 ---------------------------------------------------------------------------------
 (4) ___xxtofl                                            14    10      4     626
                                              0 COMMON    14    10      4
 ---------------------------------------------------------------------------------
 (4) ___fltol                                             11     7      4     305
                                             72 BANK0      6     2      4
                                              0 BANK1      5     5      0
                            ___fladd (ARG)
                            ___fldiv (ARG)
                            ___flmul (ARG)
                           ___xxtofl (ARG)
 ---------------------------------------------------------------------------------
 (4) ___flmul                                             26    18      8    2417
                                             26 BANK0     26    18      8
                          __Umul8_16
                            ___fldiv (ARG)
                           ___xxtofl (ARG)
 ---------------------------------------------------------------------------------
 (5) __Umul8_16                                            9     7      2     799
                                              0 COMMON     9     7      2
 ---------------------------------------------------------------------------------
 (4) ___fldiv                                             26    18      8    1273
                                              0 BANK0     26    18      8
                           ___xxtofl (ARG)
 ---------------------------------------------------------------------------------
 (4) ___fladd                                             20    12      8    2262
                                             52 BANK0     20    12      8
                            ___fldiv (ARG)
                            ___flmul (ARG)
                           ___xxtofl (ARG)
 ---------------------------------------------------------------------------------
 (3) _load_data_rb2                                        2     2      0     652
                                              2 COMMON     2     2      0
                       _EEPROM_write
 ---------------------------------------------------------------------------------
 (3) _load_data_rb1                                        2     2      0     652
                                              2 COMMON     2     2      0
                       _EEPROM_write
 ---------------------------------------------------------------------------------
 (4) _EEPROM_write                                         2     1      1     652
                                              0 COMMON     2     1      1
 ---------------------------------------------------------------------------------
 (3) _EEPROM_read                                          1     1      0      22
                                              0 COMMON     1     1      0
 ---------------------------------------------------------------------------------
 Estimated maximum stack depth 5
 ---------------------------------------------------------------------------------

 Call Graph Graphs:

 _main (ROOT)
   _setup

 _isr (ROOT)
   _EEPROM_read
   _load_data_rb1
     _EEPROM_write
   _load_data_rb2
     _EEPROM_write
   _map
     ___fladd
       ___fldiv (ARG)
         ___xxtofl (ARG)
       ___flmul (ARG)
         __Umul8_16
         ___fldiv (ARG)
         ___xxtofl (ARG)
       ___xxtofl (ARG)
     ___fldiv
     ___flmul
     ___fltol
       ___fladd (ARG)
       ___fldiv (ARG)
       ___flmul (ARG)
       ___xxtofl (ARG)
     ___xxtofl

 Address spaces:
Name               Size   Autos  Total    Cost      Usage
BANK3               60      0       0       9        0.0%
BITBANK3            60      0       0       8        0.0%
SFR3                 0      0       0       4        0.0%
BITSFR3              0      0       0       4        0.0%
BANK2               60      0       0      11        0.0%
BITBANK2            60      0       0      10        0.0%
SFR2                 0      0       0       5        0.0%
BITSFR2              0      0       0       5        0.0%
BANK1               50     13      22       7       42.5%
BITBANK1            50      0       0       6        0.0%
SFR1                 0      0       0       2        0.0%
BITSFR1              0      0       0       2        0.0%
BANK0               50     4F      4F       5       98.8%
BITBANK0            50      0       0       4        0.0%
SFR0                 0      0       0       1        0.0%
BITSFR0              0      0       0       1        0.0%
COMMON               E      E       E       1      100.0%
BITCOMMON            E      0       0       0        0.0%
CODE                 0      0       0       0        0.0%
DATA                 0      0      7F      12        0.0%
ABS                  0      0      7F       3        0.0%
NULL                 0      0       0       0        0.0%
STACK                0      0       0       2        0.0%
EEDATA             100      0       0       0        0.0%


Microchip Technology PIC Macro Assembler V2.35 build 20211206165544 
Symbol Table                                                                                   Fri Jun 03 12:20:13 2022

                      _A 00C1                        _B 00C0                        _C 00BF  
                      _D 00BE                        _E 00BD                        _F 00BC  
           ___fldiv@aexp 0039             ___fldiv@bexp 0038                        pc 0002  
           ___fldiv@sign 0031              _SSPSTATbits 0094                       fsr 0004  
    __Umul8_16@word_mpld 0076                      l180 0B5E                      l182 0B64  
                    l191 08C7                      l183 0B86                      l175 0B33  
                    l193 08CB                      l194 08D0                      _PR2 0092  
                    _map 096D                      _isr 002F                      indf 0000  
           ___flmul@aexp 004C             ___flmul@bexp 004D             ___flmul@sign 0047  
           ___flmul@temp 0052             ___flmul@prod 004E             ___fltol@exp1 006D  
                   l2411 0869                     l2403 0853                     l2501 08C3  
                   l2421 0873                     l2413 086C                     l2405 0857  
                   l2503 08C5                     l2431 087A                     l2423 0874  
                   l2415 086E                     l2407 0858                     l2505 08C6  
                   l2441 0881                     l2433 087D                     l2425 0877  
                   l2417 086F                     l2409 0865                     l2451 0886  
                   l2443 0882                     l2435 087E                     l2427 0878  
                   l2419 0870                     l2461 088E                     l2453 0887  
                   l2445 0883                     l2437 087F                     l2429 0879  
                   l2471 089D                     l2463 0892                     l2455 0888  
                   l2447 0884                     l2439 0880                     l2481 08AD  
                   l2473 08A0                     l2465 0895                     l2457 0889  
                   l2449 0885                     l2721 0AF5                     l2713 0AD9  
                   l2491 08BB                     l2483 08B0                     l2475 08A7  
                   l2467 0896                     l2459 088D                     l2731 0B1A  
                   l2723 0AF9                     l2715 0ADE                     l2493 08BD  
                   l2485 08B1                     l2477 08AA                     l2469 089A  
                   l2725 0B06                     l2741 0B33                     l2717 0AE4  
                   l2495 08BF                     l2487 08B3                     l2479 08AB  
                   l2751 0B3F                     l2743 0B36                     l2735 0B21  
                   l2719 0AEF                     l2497 08C1                     l2489 08B7  
                   l2753 0B4A                     l2737 0B2E                     l2729 0B0D  
                   l2745 0B39                     l2499 08C2                     l2755 0B67  
                   l2747 0B3A                     l2757 0B72                     l2749 0B3E  
                   ?_map 00A5                     l2759 0B8C                     ?_isr 0070  
                   _CCPR 00B5                     u3120 08CB                     u3121 08CA  
                   u3400 0B1A                     u3401 0B19                     u3410 0B2E  
                   u3411 0B2D                     u3420 0B3E                     u3421 0B3D  
                   u3430 0B64                     u3431 0B63                     u3440 0B8C  
                   u3441 0B8B                     u3370 0AE4                     u3507 08A4  
                   u3371 0AE3                     u3380 0AEF                     u3381 0AEE  
                   u3390 0B06                     u3391 0B05                     u3457 0B45  
                   u3467 0B53                     u3477 0B6D                     u3487 0B7B  
                   u3497 0B92                     _main 0AD9                     map@x 006E  
                   btemp 007E                     start 0010          ___fldiv@new_exp 0032  
                  ??_map 007E                    ??_isr 00AB     __end_of_EEPROM_write 07FC  
          ___fltol@sign1 006C          __end_of___fladd 1000                    ?_main 0070  
        __end_of___fldiv 0D78                    _EEADR 010D                    _EEDAT 010C  
        __end_of___flmul 07C0          __end_of___fltol 096D                    _ANSEL 0188  
                  _CCPRx 00B3                    i1l200 083F                    i1l203 07FB  
                  i1l140 0204                    i1l141 01BF                    i1l133 008D  
                  i1l206 17AA                    i1l150 031D                    i1l144 01FD  
                  i1l209 17FF                    i1l161 0452                    i1l153 0366  
                  i1l137 036C                    i1l165 0454                    i1l601 0FFF  
                  i1l613 0F71                    i1l197 0A1E                    i1l630 0FF3  
                  i1l622 0FD1                    i1l631 0FFF                    i1l703 07D4  
                  i1l609 0F4D                    i1l705 07E6                    i1l481 096C  
                  i1l730 0AD8                    i1l619 0F93                    i1l491 096C  
                  i1l660 0CE9                    i1l644 0BF7                    i1l741 0AA2  
                  i1l646 0D77                    i1l742 0AAE                    i1l734 0A86  
                  i1l592 0E82                    i1l488 0957                    i1l728 0A41  
                  i1l594 0E59                    i1l666 0D5B                    i1l690 072B  
                  i1l588 0DDB                    i1l668 0D6B                    i1l684 07BF  
                  i1l696 07B3                    _PORTA 0005                    _PORTB 0006  
                  _PORTC 0007                    _PORTD 0008                    _PORTE 0009  
                  _TRISA 0085                    _TRISB 0086                    _TRISC 0087  
                  _TRISD 0088                    _TRISE 0089                    map@x0 00A5  
                  map@x1 00A6                    map@y0 00A7                    map@y1 00A9  
                  _setup 0853                    pclath 000A                    status 0003  
                  wtemp0 007E          __initialization 0013             __end_of_main 0B9B  
                 ??_main 00B1                   _ADRESH 001E                   _CCPR1L 0015  
                 _CCPR2L 001B                   _EECON2 018D                   ?_setup 0070  
                 _ANSELH 0189                   i1l2001 0F81                   i1l2003 0F85  
                 i1l2021 0FCD                   i1l2013 0F98                   i1l2005 0F86  
                 i1l2101 0C48                   i1l2031 0FE9                   i1l2023 0FD6  
                 i1l2015 0F9D                   i1l2007 0F8A                   i1l2111 0C6D  
                 i1l2103 0C50                   i1l2033 0FED                   i1l2025 0FDB  
                 i1l2017 0FAB                   i1l2009 0F90                   i1l2121 0C98  
                 i1l2113 0C6E                   i1l2105 0C52                   i1l2041 0B9B  
                 i1l2201 048D                   i1l2035 0FEF                   i1l2027 0FE3  
                 i1l2019 0FAF                   i1l2131 0CB5                   i1l2107 0C57  
                 i1l2115 0C77                   i1l2123 0C9C                   i1l2051 0BB2  
                 i1l2043 0BA2                   i1l2211 04A2                   i1l2203 0492  
                 i1l2037 0FFA                   i1l2029 0FE8                   i1l2141 0CCD  
                 i1l2133 0CB9                   i1l2125 0CA2                   i1l2117 0C89  
                 i1l2109 0C69                   i1l2061 0BCA                   i1l2053 0BB7  
                 i1l2045 0BA8                   i1l2301 0766                   i1l2221 04BE  
                 i1l2213 04A7                   i1l2205 0498                   i1l2039 0FFE  
                 i1l2151 0CEE                   i1l2143 0CCE                   i1l2135 0CBA  
                 i1l2127 0CAA                   i1l2119 0C8A                   i1l2071 0BDF  
                 i1l2063 0BCF                   i1l2055 0BBF                   i1l2047 0BAC  
                 i1l2311 0799                   i1l2303 0773                   i1l2231 04E9  
                 i1l2223 04C3                   i1l2215 04AF                   i1l2207 049C  
                 i1l2153 0CF3                   i1l2161 0D24                   i1l2145 0CD2  
                 i1l2137 0CC3                   i1l2129 0CAC                   i1l2081 0BFF  
                 i1l2073 0BE4                   i1l2065 0BD5                   i1l2057 0BC0  
                 i1l2049 0BAD                   i1l2313 07A7                   i1l2305 077E  
                 i1l2241 0586                   i1l2233 0506                   i1l2217 04B1  
                 i1l2209 049D                   i1l2171 0D5A                   i1l2163 0D31  
                 i1l2155 0D01                   i1l2147 0CE6                   i1l2139 0CC9  
                 i1l2091 0C1D                   i1l2083 0C0B                   i1l2075 0BEC  
                 i1l2067 0BD9                   i1l2059 0BC2                   i1l2315 07AB  
                 i1l2307 078D                   i1l2251 05E9                   i1l2243 058F  
                 i1l2235 0522                   i1l2227 04CC                   i1l2219 04B9  
                 i1l2331 0A49                   i1l2323 0A20                   u200_25 0E6F  
                 i1l2173 0D61                   i1l2165 0D3F                   i1l2157 0D05  
                 i1l2085 0C0F                   i1l2077 0BED                   i1l2069 0BDA  
                 i1l2317 07AC                   i1l2309 0797                   i1l2261 0689  
                 i1l2253 0602                   i1l2245 059F                   i1l2237 054E  
                 i1l2229 04DC                   i1l2341 0A6B                   i1l2325 0A25  
                 i1l2175 0D65                   i1l2167 0D4E                   i1l2159 0D1E  
                 i1l2095 0C26                   i1l2079 0BEF                   i1l2319 07B7  
                 i1l2271 06F7                   i1l2263 06AF                   i1l2255 061F  
                 i1l2247 05BC                   i1l2239 056A                   i1l2191 0471  
                 i1l2183 045F                   i1l2351 0A9C                   i1l2343 0A6F  
                 i1l2335 0A52                   i1l2327 0A29                   i1l2511 003F  
                 u201_20 0E82                   i1l1801 07F2                   u201_21 0E81  
                 i1l2177 0D67                   i1l2169 0D52                   i1l2097 0C38  
                 i1l2089 0C18                   i1l2281 070F                   i1l2273 06FB  
                 i1l2265 06D7                   i1l2257 064C                   i1l2249 05CC  
                 i1l2193 0476                   i1l2185 0466                   i1l2361 0ACF  
                 i1l2353 0AA6                   i1l2345 0A7D                   i1l2337 0A57  
                 i1l2329 0A39                   i1l2601 01C5                   i1l2521 0056  
                 i1l2513 0042                   i1l1803 07F7                   i1l2371 176B  
                 i1l2099 0C40                   i1l2291 0730                   i1l2283 0710  
                 i1l2275 06FC                   i1l2267 06E0                   i1l2259 065C  
                 i1l2195 047B                   i1l2187 046C                   i1l1811 08D1  
                 i1l2363 0AD0                   i1l2355 0AB0                   i1l2347 0A8D  
                 i1l2339 0A64                   i1l2611 01EC                   i1l2603 01D0  
                 i1l2531 006E                   i1l2523 005A                   i1l2515 0046  
                 i1l2507 002F                   i1l1805 07F8                   i1l2373 1780  
                 i1l2381 17B7                   i1l1901 0DF5                   i1l2293 0735  
                 i1l2285 0714                   i1l2277 0705                   i1l2269 06EE  
                 i1l2197 0483                   i1l2189 0470                   i1l1821 0911  
                 i1l1813 08E2                   i1l2357 0AC6                   i1l2349 0A98  
                 i1l2701 0413                   i1l2621 0219                   i1l2613 01F7  
                 i1l2605 01DB                   i1l2541 0087                   i1l2533 0074  
                 i1l2525 0062                   i1l2517 004E                   i1l2509 0033  
                 i1l2391 0834                   i1l1807 07F9                   i1l2375 178C  
                 i1l2367 1756                   i1l2383 17C0                   i1l1911 0E09  
                 i1l1903 0DF9                   i1l2295 0743                   i1l2287 0728  
                 i1l2279 070B                   i1l2199 0485                   i1l1823 0919  
                 i1l2359 0ACB                   i1l2703 0426                   i1l2711 0452  
                 i1l2631 025C                   i1l2623 021D                   i1l2615 020A  
                 i1l2607 01DE                   i1l2551 00A6                   i1l2543 0093  
                 i1l2535 0077                   i1l2527 0063                   i1l2519 0052  
                 u202_20 0E86                   i1l2393 0838                   i1l1809 07FA  
                 i1l2377 17A1                   i1l2369 1762                   i1l2385 17D5  
                 u210_21 0EFE                   u202_21 0E85                   i1l1921 0E1D  
                 i1l1913 0E0D                   i1l1905 0DFD                   i1l2297 0747  
                 i1l1841 0944                   i1l1833 0927                   i1l1825 091B  
                 i1l1817 08EB                   i1l2705 0433                   i1l2641 02B7  
                 i1l2633 026D                   i1l2625 0228                   i1l2617 020D  
                 i1l2609 01E9                   i1l2561 00BE                   i1l2545 0096  
                 i1l2537 007B                   i1l2553 00AC                   i1l2529 0067  
                 u210_22 0EFF                   i1l2395 083B                   i1l2387 17E1  
                 i1l2379 17AB                   u210_23 0F04                   i1l1931 0E5D  
                 i1l1923 0E21                   i1l1915 0E11                   i1l1907 0E01  
                 i1l1851 0D85                   i1l2299 0760                   i1l1843 095C  
                 i1l1827 091F                   i1l1835 093D                   i1l1819 0910  
                 i1l2707 043C                   i1l2651 02FB                   i1l2643 02C8  
                 i1l2635 0278                   i1l2627 0233                   i1l2619 0211  
                 i1l2571 00FB                   i1l2563 00C6                   i1l2555 00B1  
                 i1l2547 009A                   i1l2539 0083                   u210_24 0F05  
                 i1l2389 17F6                   u210_25 0F0A                   i1l1941 0E76  
                 i1l1933 0E66                   i1l1917 0E15                   i1l1909 0E05  
                 i1l1925 0E25                   i1l1861 0D9C                   i1l1853 0D89  
                 i1l1781 07C1                   i1l1845 0961                   i1l2709 0449  
                 i1l2661 0323                   i1l2653 02FE                   i1l2645 02DA  
                 i1l2637 0283                   i1l2629 024E                   i1l2581 0156  
                 i1l2573 0109                   i1l2565 00CA                   i1l2557 00B7  
                 i1l2549 00A2                   u210_26 0F0B                   i1l1951 0E94  
                 i1l1935 0E68                   i1l1943 0E7A                   i1l1927 0E26  
                 i1l1919 0E19                   i1l1871 0DB2                   i1l1863 0D9D  
                 i1l1855 0D8A                   i1l1847 0D78                   i1l1791 07E2  
                 i1l1783 07C3                   i1l2399 0970                   i1l2671 0352  
                 i1l2663 032E                   i1l2655 0309                   i1l2647 02E5  
                 i1l2639 02A9                   i1l2591 019D                   i1l2583 0164  
                 i1l2575 011A                   i1l2567 00D5                   i1l2559 00BA  
                 u211_20 0F12                   u203_20 0E8B                   u211_21 0F13  
                 i1l1961 0EBE                   i1l1953 0EAB                   u203_21 0E8A  
                 i1l1945 0E86                   i1l1937 0E6C                   i1l1929 0E3D  
                 i1l1881 0DC3                   i1l1873 0DB3                   i1l1857 0D8F  
                 i1l1865 0D9F                   i1l1849 0D7F                   i1l1785 07CA  
                 i1l2681 037A                   i1l2673 0355                   i1l2665 0339  
                 i1l2657 030C                   i1l2649 02F0                   i1l2593 01A0  
                 i1l2585 0175                   i1l2577 0125                   i1l2569 00E0  
                 u211_22 0F18                   i1l1795 07E8                   u211_23 0F19  
                 i1l1971 0EE7                   i1l1963 0EC2                   i1l1955 0EAF  
                 i1l1947 0E8B                   i1l1939 0E6D                   i1l1891 0DE1  
                 i1l1883 0DC8                   i1l1875 0DB9                   i1l1867 0DA7  
                 i1l1859 0D94                   i1l1787 07CE                   i1l2683 0385  
                 i1l2691 03C6                   i1l2675 0360                   i1l2667 0344  
                 i1l2659 0317                   i1l2595 01AB                   i1l2587 0187  
                 i1l2579 0130                   i1l1797 07EE                   i1l1981 0F55  
                 i1l1973 0F25                   i1l1965 0EC3                   i1l1957 0EB3  
                 i1l1893 0DE5                   i1l1885 0DD0                   i1l1877 0DBD  
                 i1l1869 0DAC                   i1l1789 07DD                   i1l2693 03D3  
                 i1l2685 038D                   i1l2669 0347                   i1l2597 01AE  
                 i1l2589 0192                   i1l2677 036D                   i1l1799 07F1  
                 i1l1991 0F70                   i1l1983 0F5A                   i1l1975 0F2B  
                 i1l1967 0ECC                   i1l1959 0EBC                   i1l1895 0DE9  
                 i1l1887 0DD1                   i1l1879 0DBE                   i1l2695 03DB  
                 i1l2687 03A6                   i1l2679 0374                   i1l2599 01B9  
                 u220_20 0F8A                   u212_20 0F30                   u300_20 0A49  
                 u220_21 0F89                   i1l1993 0F75                   i1l1977 0F30  
                 u212_21 0F2F                   u204_21 0E9D                   i1l1969 0ED1  
                 i1l1897 0DED                   i1l1889 0DD3                   u300_21 0A48  
                 i1l2697 03F4                   i1l2689 03B4                   u204_22 0EA4  
                 i1l1995 0F78                   i1l1987 0F63                   i1l1979 0F3F  
                 u204_23 0EAB                   i1l1899 0DF1                   i1l2699 0402  
                 i1l1997 0F7A                   i1l1989 0F6C                   i1l1999 0F7F  
                 u221_20 0F90                   u213_20 0F55                   u205_20 0EAF  
                 u221_21 0F8F                   u213_21 0F54                   u205_21 0EAE  
                 u301_25 0A5C                   u230_20 0FED                   u222_20 0F97  
                 u214_20 0F5A                   u206_20 0EB3                   u310_20 0ACB  
                 u302_20 0A6A                   u230_21 0FEC                   u222_21 0F96  
                 u214_21 0F59                   u206_21 0EB2                   u310_21 0ACA  
                 u302_21 0A69                   u231_20 0FFE                   u223_20 0F9D  
                 u207_20 0EC2                   u311_20 0ACF                   u231_21 0FFD  
                 u223_21 0F9C                   u207_21 0EC1                   u311_21 0ACE  
                 u215_25 0F65                   u303_25 0A7E                   u224_20 0FAF  
                 u216_20 0F70                   u240_20 0C57                   u232_20 0BAC  
                 u304_20 0A8C                   u320_20 0093                   u224_21 0FAE  
                 u216_21 0F6F                   u240_21 0C56                   u232_21 0BAB  
                 u304_21 0A8B                   u320_21 0092                   u208_25 0EC5  
                 u225_20 0FBE                   u217_20 0F75                   u209_20 0EE7  
                 u233_20 0BB2                   u321_20 00A2                   u313_20 0033  
                 u217_21 0F74                   u209_21 0EE6                   u233_21 0BB1  
                 u321_21 00A1                   u313_21 0032                   u209_23 0EE3  
                 u225_25 0FB9                   u241_25 0C59                   u305_25 0A91  
                 u226_20 0FCD                   u218_20 0F7F                   u234_20 0BB7  
                 u306_20 0A9C                   u330_20 036C                   u322_20 00B1  
                 u314_20 003F                   u226_21 0FCC                   u218_21 0F7E  
                 u234_21 0BB6                   u306_21 0A9B                   u330_21 036B  
                 u322_21 00B0                   u314_21 003E                   u250_25 0CBC  
                 u242_25 0C62                   u227_20 0FD6                   u219_20 0F85  
                 u251_20 0CCD                   u243_20 0C6D                   u235_20 0BD9  
                 u307_20 0AA2                   u331_20 0374                   u323_20 00B7  
                 u315_20 004E                   u227_21 0FD5                   u219_21 0F84  
                 u251_21 0CCC                   u243_21 0C6C                   u235_21 0BD8  
                 u307_21 0AA1                   u331_21 0373                   u323_21 00B6  
                 u315_21 004D                   u228_20 0FDB                   u260_20 0D65  
                 u252_20 0CD2                   u236_20 0BDF                   u308_20 0AA6  
                 u332_20 037A                   u324_20 00C6                   u316_20 0062  
                 u228_21 0FDA                   u260_21 0D64                   u252_21 0CD1  
                 u236_21 0BDE                   u308_21 0AA5                   u332_21 0379  
                 u324_21 00C5                   u316_21 0061                   u244_25 0C70  
                 u180_25 0928                   u229_20 0FE8                   u253_20 0CE6  
                 u245_20 0C89                   u237_20 0BE4                   u173_20 07CE  
                 u261_20 0470                   u181_20 093C                   u309_20 0ABB  
                 u333_20 0385                   u325_20 01C5                   u317_20 006E  
                 u229_21 0FE7                   u253_21 0CE5                   u245_21 0C88  
                 u237_21 0BE3                   u173_21 07CD                   u261_21 046F  
                 u181_21 093B                   u333_21 0384                   u325_21 01C4  
                 u317_21 006D                   u245_25 0C85                   u309_25 0AB6  
                 u190_20 0DBD                   u254_20 0CED                   u246_20 0CA2  
                 u238_20 0BFF                   u262_20 0476                   u182_20 0943  
                 u334_20 03D3                   u326_20 0203                   u318_20 0074  
                 u190_21 0DBC                   u254_21 0CEC                   u246_21 0CA1  
                 u238_21 0BFE                   u270_21 0530                   u262_21 0475  
                 u182_21 0942                   u334_21 03D2                   u326_21 0202  
                 u318_21 0073                   u270_22 0537                   u270_23 053E  
                 u174_25 07D5                   u191_20 0DC3                   u255_20 0CF3  
                 u247_20 0CAA                   u239_20 0C1D                   u175_20 07E2  
                 u263_20 047B                   u335_20 0433                   u327_20 020A  
                 u319_20 0083                   u191_21 0DC2                   u255_21 0CF2  
                 u247_21 0CA9                   u239_21 0C1C                   u175_21 07E1  
                 u271_21 055C                   u263_21 047A                   u335_21 0432  
                 u327_21 0209                   u319_21 0082                   u271_22 0563  
                 u271_23 056A                   u183_25 0948                   u351_27 00DB  
                 u192_20 0DC8                   u256_20 0D05                   u280_20 0695  
                 u264_20 049C                   u184_20 095C                   u176_20 08E2  
                 u336_20 0449                   u328_20 0219                   u192_21 0DC7  
                 u256_21 0D04                   u272_21 0578                   u264_21 049B  
                 u184_21 095B                   u176_21 08E1                   u336_21 0448  
                 u328_21 0218                   u272_22 057F                   u272_23 0586  
                 u248_25 0CAE                   u280_25 0690                   u360_27 022E  
                 u352_27 0120                   u193_20 0DE1                   u257_20 0D14  
                 u249_20 0CB9                   u265_20 04A2                   u185_20 0961  
                 u177_20 0907                   u329_20 0323                   u193_21 0DE0  
                 u249_21 0CB8                   u281_21 06A1                   u265_21 04A1  
                 u185_21 0960                   u329_21 0322                   u281_22 06A8  
                 u281_23 06AF                   u257_25 0D0F                   u273_25 0588  
                 u177_25 0902                   u361_27 0273                   u353_27 0136  
                 u194_20 0DE5                   u186_20 0D89                   u258_20 0D31  
                 u290_20 0728                   u282_20 06BD                   u266_20 04A7  
                 u178_20 091F                   u194_21 0DE4                   u186_21 0D88  
                 u258_21 0D30                   u290_21 0727                   u274_21 05AE  
                 u266_21 04A6                   u178_21 091E                   u274_22 05B5  
                 u274_23 05BC                   u258_25 0D2D                   u282_25 06B8  
                 u370_27 035B                   u362_27 0289                   u354_27 018D  
                 u195_20 0E3D                   u187_20 0D8F                   u259_20 0D4E  
                 u291_20 072F                   u267_20 04BE                   u179_20 0926  
                 u195_21 0E3C                   u187_21 0D8E                   u259_21 0D4D  
                 u291_21 072E                   u283_21 06C9                   u275_21 05DB  
                 u267_21 04BD                   u179_21 0925                   u283_22 06D0  
                 u275_22 05E2                   u283_23 06D7                   u275_23 05E9  
                 u195_25 0E39                   u259_25 0D4A                   u371_27 17BB  
                 u363_27 02E0                   u355_27 01A6                   u196_20 0E48  
                 u188_20 0D94                   u292_20 0735                   u268_20 04C3  
                 u196_21 0E46                   u188_21 0D93                   u292_21 0734  
                 u268_21 04C2                   u284_25 06D9                   u276_25 05EB  
                 u372_27 17D0                   u364_27 02F6                   u356_27 01B4  
                 u197_20 0E49                   u189_20 0DB2                   u293_20 0747  
                 u189_21 0DB1                   u293_21 0746                   u277_21 0611  
                 u269_21 0514                   u277_22 0618                   u269_22 051B  
                 u277_23 061F                   u269_23 0522                   u285_25 06F0  
                 u373_27 17E5                   u365_27 0304                   u357_27 01CB  
                 u198_20 0E5D                   u294_20 0756                   u286_20 06FB  
                 u198_21 0E5C                   u286_21 06FA                   u278_21 063E  
                 u278_22 0645                   u278_23 064C                   u294_25 0751  
                 u374_27 17FA                   u366_27 0312                   u358_27 01E4  
                 u199_20 0E6C                   u295_20 0773                   u199_21 0E6B  
                 u295_21 0772                   u279_21 066B                   u279_22 0672  
                 u279_23 0679                   u295_25 076F                   u287_25 06FE  
                 u375_27 1766                   u367_27 0329                   u359_27 01F2  
                 u296_20 078D                   u288_20 070F                   u296_21 078C  
                 u288_21 070E                   u296_25 0789                   u376_27 177B  
                 u368_27 033F                   u297_20 07AB                   u289_20 0714  
                 u297_21 07AA                   u289_21 0713                   u377_27 1790  
                 u369_27 034D                   u298_20 0A25                   u298_21 0A24  
                 u378_27 17A5                   u299_20 0A29                   u299_21 0A28  
                 _SSPBUF 0013         __end_of___xxtofl 0AD9                ??___fladd 005C  
              ??___fldiv 0028                ??___flmul 0042                ??___fltol 00A0  
                 _estado 00BB                   saved_w 007E             ___xxtofl@arg 007A  
           ___xxtofl@exp 0079             ___xxtofl@val 0070  __end_of__initialization 002B  
          _load_data_rb1 1756            _load_data_rb2 17AB               ___fltol@f1 0068  
         __pcstackCOMMON 0070             __pidataBANK1 082C            __end_of_setup 08D1  
         _OPTION_REGbits 0081                  ??_setup 00B0               __pbssBANK1 00B3  
         ?_load_data_rb1 0070           ?_load_data_rb2 0070             _EEPROM_write 07E7  
      __end_of__Umul8_16 07E7               __pmaintext 0AD9               __pintentry 0004  
                _CCP1CON 0017                  _CCP2CON 001D                ?___xxtofl 0070  
       EEPROM_write@data 0070                  ___fladd 0D78                  ___fldiv 0B9B  
                ___flmul 045F                  ___fltol 08D1                  __ptext1 0853  
                __ptext2 002F                  __ptext3 096D                  __ptext4 0A1F  
                __ptext5 08D1                  __ptext6 045F                  __ptext7 07C0  
                __ptext8 0B9B                  __ptext9 0D78                _T2CONbits 0012  
             ??___xxtofl 0074                  _pot1_in 00BA                  _pot2_in 00B9  
                _pot3_in 00B8                  _pot4_in 00B7          ??_load_data_rb1 0072  
        ??_load_data_rb2 0072     end_of_initialization 002B            ??_EEPROM_read 0070  
              _PORTAbits 0005                _PORTBbits 0006                _PORTDbits 0008  
            ___fladd@grs 0067            ___xxtofl@sign 0078                _TRISBbits 0086  
              _TRISCbits 0087              ___fldiv@grs 0034              ___fldiv@rem 002D  
      EEPROM_read@adress 0070              ___flmul@grs 0048              _CCP1CONbits 0017  
            _CCP2CONbits 001D      __end_of_EEPROM_read 0840      start_initialization 0013  
            __end_of_map 0A1F              __end_of_isr 045F       EEPROM_write@adress 0071  
             init_fetch0 0840                __Umul8_16 07C0              __pdataBANK1 00BB  
              ___fladd@a 0058                ___fladd@b 0054                ___fldiv@a 0020  
              ___fldiv@b 0024                ___flmul@a 003E                ___flmul@b 003A  
              ___latbits 0002            __pcstackBANK0 0020            __pcstackBANK1 00A0  
            _EEPROM_read 0833                 ?___fladd 0054                 ?___fldiv 0020  
               ?___flmul 003A                 ?___fltol 0068               ?__Umul8_16 0070  
      interrupt_function 0004                 _IOCBbits 0096                 _PIE1bits 008C  
               _PIR1bits 000C               _ADCON0bits 001F               _ADCON1bits 009F  
               _WPUBbits 0095    __end_of_load_data_rb1 17AB    __end_of_load_data_rb2 1800  
             _EECON1bits 018C              ??__Umul8_16 0072                 ___xxtofl 0A1F  
               __ptext10 17AB                 __ptext11 1756                 __ptext12 07E7  
               __ptext13 0833            ?_EEPROM_write 0070               _INTCONbits 000B  
               init_ram0 0844                 intlevel1 0000           ??_EEPROM_write 0071  
           ?_EEPROM_read 0070               _OSCCONbits 008F   __Umul8_16@multiplicand 0070  
          ___fladd@signs 0064             ___fladd@aexp 0065             ___fladd@bexp 0066  
   __Umul8_16@multiplier 0078               _SSPCONbits 0014        __Umul8_16@product 0074  
