

Microchip MPLAB XC8 Assembler V2.35 build 20211206165544 
                                                                                               Fri Jun 03 17:10:57 2022

Microchip MPLAB XC8 C Compiler v2.35 (Free license) build 20211206165544 Og1 
     1                           	processor	16F887
     2                           	pagewidth 120
     3                           	opt	flic
     4                           	psect	idataBANK0,global,class=CODE,delta=2,noexec
     5                           	psect	idataBANK1,global,class=CODE,delta=2,noexec
     6                           	psect	cinit,global,class=CODE,merge=1,delta=2
     7                           	psect	dataBANK0,global,class=BANK0,space=1,delta=1,noexec
     8                           	psect	bssBANK1,global,class=BANK1,space=1,delta=1,noexec
     9                           	psect	dataBANK1,global,class=BANK1,space=1,delta=1,noexec
    10                           	psect	bssBANK3,global,class=BANK3,space=1,delta=1,noexec
    11                           	psect	cstackBANK3,global,class=BANK3,space=1,delta=1,noexec
    12                           	psect	cstackBANK1,global,class=BANK1,space=1,delta=1,noexec
    13                           	psect	cstackCOMMON,global,class=COMMON,space=1,delta=1,noexec
    14                           	psect	cstackBANK0,global,class=BANK0,space=1,delta=1,noexec
    15                           	psect	maintext,global,class=CODE,split=1,delta=2
    16                           	psect	text1,local,class=CODE,merge=1,delta=2
    17                           	psect	text2,local,class=CODE,merge=1,delta=2
    18                           	psect	text3,local,class=CODE,merge=1,delta=2,group=1
    19                           	psect	text4,local,class=CODE,merge=1,delta=2,group=1
    20                           	psect	text5,local,class=CODE,merge=1,delta=2,group=1
    21                           	psect	text6,local,class=CODE,merge=1,delta=2,group=1
    22                           	psect	text7,local,class=CODE,merge=1,delta=2,group=1
    23                           	psect	text8,local,class=CODE,merge=1,delta=2,group=1
    24                           	psect	text9,local,class=CODE,merge=1,delta=2
    25                           	psect	intentry,global,class=CODE,delta=2
    26                           	psect	text10,local,class=CODE,merge=1,delta=2
    27                           	psect	text11,local,class=CODE,merge=1,delta=2
    28                           	psect	text12,local,class=CODE,merge=1,delta=2
    29                           	psect	text13,local,class=CODE,merge=1,delta=2
    30                           	psect	text14,local,class=CODE,merge=1,delta=2
    31                           	psect	text15,local,class=CODE,merge=1,delta=2
    32                           	psect	text16,local,class=CODE,merge=1,delta=2
    33                           	psect	text17,local,class=CODE,merge=1,delta=2
    34                           	psect	text18,local,class=CODE,merge=1,delta=2
    35                           	psect	text19,local,class=CODE,merge=1,delta=2
    36                           	psect	text20,local,class=CODE,merge=1,delta=2
    37                           	psect	idloc,global,abs,ovrld,class=IDLOC,space=5,delta=2,noexec
    38                           	psect	config,global,abs,ovrld,class=CONFIG,space=4,delta=2,noexec
    39                           	dabs	1,0x7E,2
    40  0000                     
    41                           ; Version 2.40
    42                           ; Generated 17/11/2021 GMT
    43                           ; 
    44                           ; Copyright © 2021, Microchip Technology Inc. and its subsidiaries ("Microchip")
    45                           ; All rights reserved.
    46                           ; 
    47                           ; This software is developed by Microchip Technology Inc. and its subsidiaries ("Microch
      +                          ip").
    48                           ; 
    49                           ; Redistribution and use in source and binary forms, with or without modification, are
    50                           ; permitted provided that the following conditions are met:
    51                           ; 
    52                           ;     1. Redistributions of source code must retain the above copyright notice, this lis
      +                          t of
    53                           ;        conditions and the following disclaimer.
    54                           ; 
    55                           ;     2. Redistributions in binary form must reproduce the above copyright notice, this 
      +                          list
    56                           ;        of conditions and the following disclaimer in the documentation and/or other
    57                           ;        materials provided with the distribution. Publication is not required when
    58                           ;        this file is used in an embedded application.
    59                           ; 
    60                           ;     3. Microchip's name may not be used to endorse or promote products derived from th
      +                          is
    61                           ;        software without specific prior written permission.
    62                           ; 
    63                           ; THIS SOFTWARE IS PROVIDED BY MICROCHIP "AS IS" AND ANY EXPRESS OR IMPLIED WARRANTIES,
    64                           ; INCLUDING, BUT NOT LIMITED TO, THE IMPLIED WARRANTIES OF MERCHANTABILITY AND FITNESS F
      +                          OR
    65                           ; PURPOSE ARE DISCLAIMED.  IN NO EVENT SHALL MICROCHIP BE LIABLE FOR ANY DIRECT, INDIREC
      +                          T,
    66                           ; INCIDENTAL, SPECIAL, EXEMPLARY, OR CONSEQUENTIAL DAMAGES (INCLUDING BUT NOT LIMITED TO
    67                           ; PROCUREMENT OF SUBSTITUTE GOODS OR SERVICES; LOSS OF USE, DATA OR PROFITS; OR BUSINESS
    68                           ; INTERRUPTION) HOWSOEVER CAUSED AND ON ANY THEORY OF LIABILITY, WHETHER IN CONTRACT, ST
      +                          RICT
    69                           ; LIABILITY, OR TORT (INCLUDING NEGLIGENCE OR OTHERWISE) ARISING IN ANY WAY OUT OF THE U
      +                          SE OF
    70                           ; THIS SOFTWARE, EVEN IF ADVISED OF THE POSSIBILITY OF SUCH DAMAGE.
    71                           ; 
    72                           ; 
    73                           ; Code-generator required, PIC16F887 Definitions
    74                           ; 
    75                           ; SFR Addresses
    76  0000                     	;# 
    77  0001                     	;# 
    78  0002                     	;# 
    79  0003                     	;# 
    80  0004                     	;# 
    81  0005                     	;# 
    82  0006                     	;# 
    83  0007                     	;# 
    84  0008                     	;# 
    85  0009                     	;# 
    86  000A                     	;# 
    87  000B                     	;# 
    88  000C                     	;# 
    89  000D                     	;# 
    90  000E                     	;# 
    91  000E                     	;# 
    92  000F                     	;# 
    93  0010                     	;# 
    94  0011                     	;# 
    95  0012                     	;# 
    96  0013                     	;# 
    97  0014                     	;# 
    98  0015                     	;# 
    99  0015                     	;# 
   100  0016                     	;# 
   101  0017                     	;# 
   102  0018                     	;# 
   103  0019                     	;# 
   104  001A                     	;# 
   105  001B                     	;# 
   106  001B                     	;# 
   107  001C                     	;# 
   108  001D                     	;# 
   109  001E                     	;# 
   110  001F                     	;# 
   111  0081                     	;# 
   112  0085                     	;# 
   113  0086                     	;# 
   114  0087                     	;# 
   115  0088                     	;# 
   116  0089                     	;# 
   117  008C                     	;# 
   118  008D                     	;# 
   119  008E                     	;# 
   120  008F                     	;# 
   121  0090                     	;# 
   122  0091                     	;# 
   123  0092                     	;# 
   124  0093                     	;# 
   125  0093                     	;# 
   126  0093                     	;# 
   127  0094                     	;# 
   128  0095                     	;# 
   129  0096                     	;# 
   130  0097                     	;# 
   131  0098                     	;# 
   132  0099                     	;# 
   133  009A                     	;# 
   134  009B                     	;# 
   135  009C                     	;# 
   136  009D                     	;# 
   137  009E                     	;# 
   138  009F                     	;# 
   139  0105                     	;# 
   140  0107                     	;# 
   141  0108                     	;# 
   142  0109                     	;# 
   143  010C                     	;# 
   144  010C                     	;# 
   145  010D                     	;# 
   146  010E                     	;# 
   147  010F                     	;# 
   148  0185                     	;# 
   149  0187                     	;# 
   150  0188                     	;# 
   151  0189                     	;# 
   152  018C                     	;# 
   153  018D                     	;# 
   154  0000                     	;# 
   155  0001                     	;# 
   156  0002                     	;# 
   157  0003                     	;# 
   158  0004                     	;# 
   159  0005                     	;# 
   160  0006                     	;# 
   161  0007                     	;# 
   162  0008                     	;# 
   163  0009                     	;# 
   164  000A                     	;# 
   165  000B                     	;# 
   166  000C                     	;# 
   167  000D                     	;# 
   168  000E                     	;# 
   169  000E                     	;# 
   170  000F                     	;# 
   171  0010                     	;# 
   172  0011                     	;# 
   173  0012                     	;# 
   174  0013                     	;# 
   175  0014                     	;# 
   176  0015                     	;# 
   177  0015                     	;# 
   178  0016                     	;# 
   179  0017                     	;# 
   180  0018                     	;# 
   181  0019                     	;# 
   182  001A                     	;# 
   183  001B                     	;# 
   184  001B                     	;# 
   185  001C                     	;# 
   186  001D                     	;# 
   187  001E                     	;# 
   188  001F                     	;# 
   189  0081                     	;# 
   190  0085                     	;# 
   191  0086                     	;# 
   192  0087                     	;# 
   193  0088                     	;# 
   194  0089                     	;# 
   195  008C                     	;# 
   196  008D                     	;# 
   197  008E                     	;# 
   198  008F                     	;# 
   199  0090                     	;# 
   200  0091                     	;# 
   201  0092                     	;# 
   202  0093                     	;# 
   203  0093                     	;# 
   204  0093                     	;# 
   205  0094                     	;# 
   206  0095                     	;# 
   207  0096                     	;# 
   208  0097                     	;# 
   209  0098                     	;# 
   210  0099                     	;# 
   211  009A                     	;# 
   212  009B                     	;# 
   213  009C                     	;# 
   214  009D                     	;# 
   215  009E                     	;# 
   216  009F                     	;# 
   217  0105                     	;# 
   218  0107                     	;# 
   219  0108                     	;# 
   220  0109                     	;# 
   221  010C                     	;# 
   222  010C                     	;# 
   223  010D                     	;# 
   224  010E                     	;# 
   225  010F                     	;# 
   226  0185                     	;# 
   227  0187                     	;# 
   228  0188                     	;# 
   229  0189                     	;# 
   230  018C                     	;# 
   231  018D                     	;# 
   232                           
   233                           	psect	idataBANK0
   234  0003                     __pidataBANK0:
   235                           
   236                           ;initializer for _B
   237  0003  3401               	retlw	1
   238                           
   239                           	psect	idataBANK1
   240  0801                     __pidataBANK1:
   241                           
   242                           ;initializer for _estado
   243  0801  3402               	retlw	2
   244                           
   245                           ;initializer for _F
   246  0802  3401               	retlw	1
   247                           
   248                           ;initializer for _E
   249  0803  3401               	retlw	1
   250                           
   251                           ;initializer for _D
   252  0804  3401               	retlw	1
   253                           
   254                           ;initializer for _C
   255  0805  3401               	retlw	1
   256                           
   257                           ;initializer for _A
   258  0806  3401               	retlw	1
   259  0018                     _RCSTAbits	set	24
   260  0012                     _T2CONbits	set	18
   261  001D                     _CCP2CON	set	29
   262  0017                     _CCP1CON	set	23
   263  0014                     _SSPCONbits	set	20
   264  0007                     _PORTC	set	7
   265  0008                     _PORTD	set	8
   266  0006                     _PORTB	set	6
   267  0005                     _PORTA	set	5
   268  0005                     _PORTAbits	set	5
   269  001A                     _RCREG	set	26
   270  001E                     _ADRESH	set	30
   271  001F                     _ADCON0bits	set	31
   272  000C                     _PIR1bits	set	12
   273  0013                     _SSPBUF	set	19
   274  0008                     _PORTDbits	set	8
   275  001D                     _CCP2CONbits	set	29
   276  001B                     _CCPR2L	set	27
   277  0017                     _CCP1CONbits	set	23
   278  0015                     _CCPR1L	set	21
   279  0009                     _PORTE	set	9
   280  0006                     _PORTBbits	set	6
   281  000B                     _INTCONbits	set	11
   282  0099                     _SPBRG	set	153
   283  009A                     _SPBRGH	set	154
   284  0098                     _TXSTAbits	set	152
   285  0092                     _PR2	set	146
   286  0087                     _TRISCbits	set	135
   287  009F                     _ADCON1bits	set	159
   288  008F                     _OSCCONbits	set	143
   289  0095                     _WPUBbits	set	149
   290  0081                     _OPTION_REGbits	set	129
   291  0086                     _TRISBbits	set	134
   292  0096                     _IOCBbits	set	150
   293  008C                     _PIE1bits	set	140
   294  0087                     _TRISC	set	135
   295  0089                     _TRISE	set	137
   296  0088                     _TRISD	set	136
   297  0085                     _TRISA	set	133
   298  0094                     _SSPSTATbits	set	148
   299  010C                     _EEDAT	set	268
   300  010D                     _EEADR	set	269
   301  018D                     _EECON2	set	397
   302  018C                     _EECON1bits	set	396
   303  0187                     _BAUDCTLbits	set	391
   304  0189                     _ANSELH	set	393
   305  0188                     _ANSEL	set	392
   306                           
   307                           	psect	cinit
   308  0013                     start_initialization:	
   309                           ; #config settings
   310                           
   311  0013                     __initialization:
   312                           
   313                           ; Initialize objects allocated to BANK1
   314  0013  1683               	bsf	3,5	;RP0=1, select bank1
   315  0014  1303               	bcf	3,6	;RP1=0, select bank1
   316  0015  120A  158A  2001  120A  118A  	fcall	__pidataBANK1	;fetch initializer
   317  001A  00DA               	movwf	__pdataBANK1& (0+127)
   318  001B  120A  158A  2002  120A  118A  	fcall	__pidataBANK1+1	;fetch initializer
   319  0020  00DB               	movwf	(__pdataBANK1+1)& (0+127)
   320  0021  120A  158A  2003  120A  118A  	fcall	__pidataBANK1+2	;fetch initializer
   321  0026  00DC               	movwf	(__pdataBANK1+2)& (0+127)
   322  0027  120A  158A  2004  120A  118A  	fcall	__pidataBANK1+3	;fetch initializer
   323  002C  00DD               	movwf	(__pdataBANK1+3)& (0+127)
   324  002D  120A  158A  2005  120A  118A  	fcall	__pidataBANK1+4	;fetch initializer
   325  0032  00DE               	movwf	(__pdataBANK1+4)& (0+127)
   326  0033  120A  158A  2006  120A  118A  	fcall	__pidataBANK1+5	;fetch initializer
   327  0038  00DF               	movwf	(__pdataBANK1+5)& (0+127)
   328                           
   329                           ; Initialize objects allocated to BANK0
   330  0039  1283               	bcf	3,5	;RP0=0, select bank0
   331  003A  1303               	bcf	3,6	;RP1=0, select bank0
   332  003B  120A  118A  2003  120A  118A  	fcall	__pidataBANK0	;fetch initializer
   333  0040  00EF               	movwf	__pdataBANK0& (0+127)
   334                           
   335                           ; Clear objects allocated to BANK3
   336  0041  1683               	bsf	3,5	;RP0=1, select bank3
   337  0042  1703               	bsf	3,6	;RP1=1, select bank3
   338  0043  01DB               	clrf	__pbssBANK3& (0+127)
   339  0044  01DC               	clrf	(__pbssBANK3+1)& (0+127)
   340  0045  01DD               	clrf	(__pbssBANK3+2)& (0+127)
   341  0046  01DE               	clrf	(__pbssBANK3+3)& (0+127)
   342                           
   343                           ; Clear objects allocated to BANK1
   344  0047  1683               	bsf	3,5	;RP0=1, select bank1
   345  0048  1303               	bcf	3,6	;RP1=0, select bank1
   346  0049  01D0               	clrf	__pbssBANK1& (0+127)
   347  004A  01D1               	clrf	(__pbssBANK1+1)& (0+127)
   348  004B  01D2               	clrf	(__pbssBANK1+2)& (0+127)
   349  004C  01D3               	clrf	(__pbssBANK1+3)& (0+127)
   350  004D  01D4               	clrf	(__pbssBANK1+4)& (0+127)
   351  004E  01D5               	clrf	(__pbssBANK1+5)& (0+127)
   352  004F  01D6               	clrf	(__pbssBANK1+6)& (0+127)
   353  0050  01D7               	clrf	(__pbssBANK1+7)& (0+127)
   354  0051  01D8               	clrf	(__pbssBANK1+8)& (0+127)
   355  0052  01D9               	clrf	(__pbssBANK1+9)& (0+127)
   356  0053                     end_of_initialization:	
   357                           ;End of C runtime variable initialization code
   358                           
   359  0053                     __end_of__initialization:
   360  0053  0183               	clrf	3
   361  0054  160A  158A  2B11   	ljmp	_main	;jump to C main() function
   362                           
   363                           	psect	dataBANK0
   364  006F                     __pdataBANK0:
   365  006F                     _B:
   366  006F                     	ds	1
   367                           
   368                           	psect	bssBANK1
   369  00D0                     __pbssBANK1:
   370  00D0                     _CCPRx:
   371  00D0                     	ds	2
   372  00D2                     _CCPR:
   373  00D2                     	ds	2
   374  00D4                     _servo_sel:
   375  00D4                     	ds	1
   376  00D5                     _serial_val:
   377  00D5                     	ds	1
   378  00D6                     _pot4_in:
   379  00D6                     	ds	1
   380  00D7                     _pot3_in:
   381  00D7                     	ds	1
   382  00D8                     _pot2_in:
   383  00D8                     	ds	1
   384  00D9                     _pot1_in:
   385  00D9                     	ds	1
   386                           
   387                           	psect	dataBANK1
   388  00DA                     __pdataBANK1:
   389  00DA                     _estado:
   390  00DA                     	ds	1
   391  00DB                     _F:
   392  00DB                     	ds	1
   393  00DC                     _E:
   394  00DC                     	ds	1
   395  00DD                     _D:
   396  00DD                     	ds	1
   397  00DE                     _C:
   398  00DE                     	ds	1
   399  00DF                     _A:
   400  00DF                     	ds	1
   401                           
   402                           	psect	bssBANK3
   403  01DB                     __pbssBANK3:
   404  01DB                     _pot4_serial:
   405  01DB                     	ds	1
   406  01DC                     _pot3_serial:
   407  01DC                     	ds	1
   408  01DD                     _pot2_serial:
   409  01DD                     	ds	1
   410  01DE                     _pot1_serial:
   411  01DE                     	ds	1
   412                           
   413                           	psect	cstackBANK3
   414  0190                     __pcstackBANK3:
   415  0190                     ___fldiv@rem:
   416                           
   417                           ; 4 bytes @ 0x0
   418  0190                     	ds	4
   419  0194                     ___fldiv@sign:
   420                           
   421                           ; 1 bytes @ 0x4
   422  0194                     	ds	1
   423  0195                     ___fldiv@new_exp:
   424                           
   425                           ; 2 bytes @ 0x5
   426  0195                     	ds	2
   427  0197                     ___fldiv@grs:
   428                           
   429                           ; 4 bytes @ 0x7
   430  0197                     	ds	4
   431  019B                     ___fldiv@bexp:
   432                           
   433                           ; 1 bytes @ 0xB
   434  019B                     	ds	1
   435  019C                     ___fldiv@aexp:
   436                           
   437                           ; 1 bytes @ 0xC
   438  019C                     	ds	1
   439  019D                     ?___flmul:
   440  019D                     ___flmul@b:	
   441                           ; 4 bytes @ 0xD
   442                           
   443                           
   444                           ; 4 bytes @ 0xD
   445  019D                     	ds	4
   446  01A1                     ___flmul@a:
   447                           
   448                           ; 4 bytes @ 0x11
   449  01A1                     	ds	4
   450  01A5                     ___flmul@sign:
   451                           
   452                           ; 1 bytes @ 0x15
   453  01A5                     	ds	1
   454  01A6                     ___flmul@aexp:
   455                           
   456                           ; 1 bytes @ 0x16
   457  01A6                     	ds	1
   458  01A7                     ___flmul@grs:
   459                           
   460                           ; 4 bytes @ 0x17
   461  01A7                     	ds	4
   462  01AB                     ___flmul@bexp:
   463                           
   464                           ; 1 bytes @ 0x1B
   465  01AB                     	ds	1
   466  01AC                     ___flmul@prod:
   467                           
   468                           ; 4 bytes @ 0x1C
   469  01AC                     	ds	4
   470  01B0                     ___flmul@temp:
   471                           
   472                           ; 2 bytes @ 0x20
   473  01B0                     	ds	2
   474  01B2                     ?___fladd:
   475  01B2                     ___fladd@b:	
   476                           ; 4 bytes @ 0x22
   477                           
   478                           
   479                           ; 4 bytes @ 0x22
   480  01B2                     	ds	4
   481  01B6                     ___fladd@a:
   482                           
   483                           ; 4 bytes @ 0x26
   484  01B6                     	ds	4
   485  01BA                     ??___fladd:
   486                           
   487                           ; 1 bytes @ 0x2A
   488  01BA                     	ds	8
   489  01C2                     ___fladd@signs:
   490                           
   491                           ; 1 bytes @ 0x32
   492  01C2                     	ds	1
   493  01C3                     ___fladd@aexp:
   494                           
   495                           ; 1 bytes @ 0x33
   496  01C3                     	ds	1
   497  01C4                     ___fladd@bexp:
   498                           
   499                           ; 1 bytes @ 0x34
   500  01C4                     	ds	1
   501  01C5                     ___fladd@grs:
   502                           
   503                           ; 1 bytes @ 0x35
   504  01C5                     	ds	1
   505  01C6                     ?___fltol:
   506  01C6                     ___fltol@f1:	
   507                           ; 4 bytes @ 0x36
   508                           
   509                           
   510                           ; 4 bytes @ 0x36
   511  01C6                     	ds	4
   512  01CA                     ??___fltol:
   513                           
   514                           ; 1 bytes @ 0x3A
   515  01CA                     	ds	5
   516  01CF                     ___fltol@sign1:
   517                           
   518                           ; 1 bytes @ 0x3F
   519  01CF                     	ds	1
   520  01D0                     ___fltol@exp1:
   521                           
   522                           ; 1 bytes @ 0x40
   523  01D0                     	ds	1
   524  01D1                     ?_map:
   525  01D1                     map@x0:	
   526                           ; 2 bytes @ 0x41
   527                           
   528                           
   529                           ; 1 bytes @ 0x41
   530  01D1                     	ds	1
   531  01D2                     map@x1:
   532                           
   533                           ; 1 bytes @ 0x42
   534  01D2                     	ds	1
   535  01D3                     map@y0:
   536                           
   537                           ; 2 bytes @ 0x43
   538  01D3                     	ds	2
   539  01D5                     map@y1:
   540                           
   541                           ; 2 bytes @ 0x45
   542  01D5                     	ds	2
   543  01D7                     map@x:
   544                           
   545                           ; 1 bytes @ 0x47
   546  01D7                     	ds	1
   547  01D8                     ??_main:
   548                           
   549                           ; 1 bytes @ 0x48
   550  01D8                     	ds	3
   551                           
   552                           	psect	cstackBANK1
   553  00A0                     __pcstackBANK1:
   554  00A0                     ??i1___fltol:
   555                           
   556                           ; 1 bytes @ 0x0
   557  00A0                     	ds	5
   558  00A5                     ?i1_map:
   559  00A5                     i1map@x0:	
   560                           ; 2 bytes @ 0x5
   561                           
   562                           
   563                           ; 1 bytes @ 0x5
   564  00A5                     	ds	1
   565  00A6                     i1map@x1:
   566                           
   567                           ; 1 bytes @ 0x6
   568  00A6                     	ds	1
   569  00A7                     i1map@y0:
   570                           
   571                           ; 2 bytes @ 0x7
   572  00A7                     	ds	2
   573  00A9                     i1map@y1:
   574                           
   575                           ; 2 bytes @ 0x9
   576  00A9                     	ds	2
   577  00AB                     ??_isr:
   578                           
   579                           ; 1 bytes @ 0xB
   580  00AB                     	ds	5
   581  00B0                     ??_setup:
   582  00B0                     ?__Umul8_16:	
   583                           ; 1 bytes @ 0x10
   584                           
   585  00B0                     ?___xxtofl:	
   586                           ; 2 bytes @ 0x10
   587                           
   588  00B0                     __Umul8_16@multiplicand:	
   589                           ; 4 bytes @ 0x10
   590                           
   591  00B0                     ___xxtofl@val:	
   592                           ; 1 bytes @ 0x10
   593                           
   594                           
   595                           ; 4 bytes @ 0x10
   596  00B0                     	ds	2
   597  00B2                     ??__Umul8_16:
   598                           
   599                           ; 1 bytes @ 0x12
   600  00B2                     	ds	2
   601  00B4                     ??___xxtofl:
   602  00B4                     __Umul8_16@product:	
   603                           ; 1 bytes @ 0x14
   604                           
   605                           
   606                           ; 2 bytes @ 0x14
   607  00B4                     	ds	2
   608  00B6                     __Umul8_16@word_mpld:
   609                           
   610                           ; 2 bytes @ 0x16
   611  00B6                     	ds	2
   612  00B8                     __Umul8_16@multiplier:
   613  00B8                     ___xxtofl@sign:	
   614                           ; 1 bytes @ 0x18
   615                           
   616                           
   617                           ; 1 bytes @ 0x18
   618  00B8                     	ds	1
   619  00B9                     ___xxtofl@exp:
   620                           
   621                           ; 1 bytes @ 0x19
   622  00B9                     	ds	1
   623  00BA                     ___xxtofl@arg:
   624                           
   625                           ; 4 bytes @ 0x1A
   626  00BA                     	ds	4
   627  00BE                     ?___fldiv:
   628  00BE                     ___fldiv@a:	
   629                           ; 4 bytes @ 0x1E
   630                           
   631                           
   632                           ; 4 bytes @ 0x1E
   633  00BE                     	ds	4
   634  00C2                     ___fldiv@b:
   635                           
   636                           ; 4 bytes @ 0x22
   637  00C2                     	ds	4
   638  00C6                     ??___fldiv:
   639                           
   640                           ; 1 bytes @ 0x26
   641  00C6                     	ds	5
   642  00CB                     ??___flmul:
   643                           
   644                           ; 1 bytes @ 0x2B
   645  00CB                     	ds	5
   646  00D0                     ??_map:
   647                           
   648                           	psect	cstackCOMMON
   649  0070                     __pcstackCOMMON:	
   650                           ; 1 bytes @ 0x30
   651                           
   652  0070                     ?_load_data_rb1:
   653  0070                     ?_load_data_rb2:	
   654                           ; 1 bytes @ 0x0
   655                           
   656  0070                     ?_EEPROM_read:	
   657                           ; 1 bytes @ 0x0
   658                           
   659  0070                     ??_EEPROM_read:	
   660                           ; 1 bytes @ 0x0
   661                           
   662  0070                     ?_setup:	
   663                           ; 1 bytes @ 0x0
   664                           
   665  0070                     ?_isr:	
   666                           ; 1 bytes @ 0x0
   667                           
   668  0070                     ?_main:	
   669                           ; 1 bytes @ 0x0
   670                           
   671  0070                     ?_EEPROM_write:	
   672                           ; 1 bytes @ 0x0
   673                           
   674  0070                     ?i1__Umul8_16:	
   675                           ; 1 bytes @ 0x0
   676                           
   677  0070                     ?i1___xxtofl:	
   678                           ; 2 bytes @ 0x0
   679                           
   680  0070                     EEPROM_read@adress:	
   681                           ; 4 bytes @ 0x0
   682                           
   683  0070                     EEPROM_write@data:	
   684                           ; 1 bytes @ 0x0
   685                           
   686  0070                     i1__Umul8_16@multiplicand:	
   687                           ; 1 bytes @ 0x0
   688                           
   689  0070                     i1___xxtofl@val:	
   690                           ; 1 bytes @ 0x0
   691                           
   692                           
   693                           ; 4 bytes @ 0x0
   694  0070                     	ds	1
   695  0071                     ??_EEPROM_write:
   696  0071                     EEPROM_write@adress:	
   697                           ; 1 bytes @ 0x1
   698                           
   699                           
   700                           ; 1 bytes @ 0x1
   701  0071                     	ds	1
   702  0072                     ??_load_data_rb1:
   703  0072                     ??_load_data_rb2:	
   704                           ; 1 bytes @ 0x2
   705                           
   706  0072                     ??i1__Umul8_16:	
   707                           ; 1 bytes @ 0x2
   708                           
   709                           
   710                           ; 1 bytes @ 0x2
   711  0072                     	ds	2
   712  0074                     ??i1___xxtofl:
   713  0074                     i1__Umul8_16@product:	
   714                           ; 1 bytes @ 0x4
   715                           
   716                           
   717                           ; 2 bytes @ 0x4
   718  0074                     	ds	2
   719  0076                     i1__Umul8_16@word_mpld:
   720                           
   721                           ; 2 bytes @ 0x6
   722  0076                     	ds	2
   723  0078                     i1__Umul8_16@multiplier:
   724  0078                     i1___xxtofl@sign:	
   725                           ; 1 bytes @ 0x8
   726                           
   727                           
   728                           ; 1 bytes @ 0x8
   729  0078                     	ds	1
   730  0079                     i1___xxtofl@exp:
   731                           
   732                           ; 1 bytes @ 0x9
   733  0079                     	ds	1
   734  007A                     i1___xxtofl@arg:
   735                           
   736                           ; 4 bytes @ 0xA
   737  007A                     	ds	4
   738  007E                     ??i1_map:
   739                           
   740                           	psect	cstackBANK0
   741  0020                     __pcstackBANK0:	
   742                           ; 1 bytes @ 0xE
   743                           
   744  0020                     ?i1___fldiv:
   745  0020                     i1___fldiv@a:	
   746                           ; 4 bytes @ 0x0
   747                           
   748                           
   749                           ; 4 bytes @ 0x0
   750  0020                     	ds	4
   751  0024                     i1___fldiv@b:
   752                           
   753                           ; 4 bytes @ 0x4
   754  0024                     	ds	4
   755  0028                     ??i1___fldiv:
   756                           
   757                           ; 1 bytes @ 0x8
   758  0028                     	ds	5
   759  002D                     i1___fldiv@rem:
   760                           
   761                           ; 4 bytes @ 0xD
   762  002D                     	ds	4
   763  0031                     i1___fldiv@sign:
   764                           
   765                           ; 1 bytes @ 0x11
   766  0031                     	ds	1
   767  0032                     i1___fldiv@new_exp:
   768                           
   769                           ; 2 bytes @ 0x12
   770  0032                     	ds	2
   771  0034                     i1___fldiv@grs:
   772                           
   773                           ; 4 bytes @ 0x14
   774  0034                     	ds	4
   775  0038                     i1___fldiv@bexp:
   776                           
   777                           ; 1 bytes @ 0x18
   778  0038                     	ds	1
   779  0039                     i1___fldiv@aexp:
   780                           
   781                           ; 1 bytes @ 0x19
   782  0039                     	ds	1
   783  003A                     ?i1___flmul:
   784  003A                     i1___flmul@b:	
   785                           ; 4 bytes @ 0x1A
   786                           
   787                           
   788                           ; 4 bytes @ 0x1A
   789  003A                     	ds	4
   790  003E                     i1___flmul@a:
   791                           
   792                           ; 4 bytes @ 0x1E
   793  003E                     	ds	4
   794  0042                     ??i1___flmul:
   795                           
   796                           ; 1 bytes @ 0x22
   797  0042                     	ds	5
   798  0047                     i1___flmul@sign:
   799                           
   800                           ; 1 bytes @ 0x27
   801  0047                     	ds	1
   802  0048                     i1___flmul@grs:
   803                           
   804                           ; 4 bytes @ 0x28
   805  0048                     	ds	4
   806  004C                     i1___flmul@aexp:
   807                           
   808                           ; 1 bytes @ 0x2C
   809  004C                     	ds	1
   810  004D                     i1___flmul@bexp:
   811                           
   812                           ; 1 bytes @ 0x2D
   813  004D                     	ds	1
   814  004E                     i1___flmul@prod:
   815                           
   816                           ; 4 bytes @ 0x2E
   817  004E                     	ds	4
   818  0052                     i1___flmul@temp:
   819                           
   820                           ; 2 bytes @ 0x32
   821  0052                     	ds	2
   822  0054                     ?i1___fladd:
   823  0054                     i1___fladd@b:	
   824                           ; 4 bytes @ 0x34
   825                           
   826                           
   827                           ; 4 bytes @ 0x34
   828  0054                     	ds	4
   829  0058                     i1___fladd@a:
   830                           
   831                           ; 4 bytes @ 0x38
   832  0058                     	ds	4
   833  005C                     ??i1___fladd:
   834                           
   835                           ; 1 bytes @ 0x3C
   836  005C                     	ds	8
   837  0064                     i1___fladd@signs:
   838                           
   839                           ; 1 bytes @ 0x44
   840  0064                     	ds	1
   841  0065                     i1___fladd@aexp:
   842                           
   843                           ; 1 bytes @ 0x45
   844  0065                     	ds	1
   845  0066                     i1___fladd@bexp:
   846                           
   847                           ; 1 bytes @ 0x46
   848  0066                     	ds	1
   849  0067                     i1___fladd@grs:
   850                           
   851                           ; 1 bytes @ 0x47
   852  0067                     	ds	1
   853  0068                     ?i1___fltol:
   854  0068                     i1___fltol@f1:	
   855                           ; 4 bytes @ 0x48
   856                           
   857                           
   858                           ; 4 bytes @ 0x48
   859  0068                     	ds	4
   860  006C                     i1___fltol@sign1:
   861                           
   862                           ; 1 bytes @ 0x4C
   863  006C                     	ds	1
   864  006D                     i1___fltol@exp1:
   865                           
   866                           ; 1 bytes @ 0x4D
   867  006D                     	ds	1
   868  006E                     i1map@x:
   869                           
   870                           ; 1 bytes @ 0x4E
   871  006E                     	ds	1
   872                           
   873                           	psect	maintext
   874  1B11                     __pmaintext:	
   875 ;;
   876 ;;Main: autosize = 0, tempsize = 3, incstack = 0, save=0
   877 ;;
   878 ;; *************** function _main *****************
   879 ;; Defined at:
   880 ;;		line 252 in file "master_main_dar-alv.c"
   881 ;; Parameters:    Size  Location     Type
   882 ;;		None
   883 ;; Auto vars:     Size  Location     Type
   884 ;;		None
   885 ;; Return value:  Size  Location     Type
   886 ;;                  1    wreg      void 
   887 ;; Registers used:
   888 ;;		wreg, status,2, status,0, btemp+1, pclath, cstack
   889 ;; Tracked objects:
   890 ;;		On entry : B00/0
   891 ;;		On exit  : 0/0
   892 ;;		Unchanged: 0/0
   893 ;; Data sizes:     COMMON   BANK0   BANK1   BANK3   BANK2
   894 ;;      Params:         0       0       0       0       0
   895 ;;      Locals:         0       0       0       0       0
   896 ;;      Temps:          0       0       0       3       0
   897 ;;      Totals:         0       0       0       3       0
   898 ;;Total ram usage:        3 bytes
   899 ;; Hardware stack levels required when called: 7
   900 ;; This function calls:
   901 ;;		_map
   902 ;;		_setup
   903 ;; This function is called by:
   904 ;;		Startup code after reset
   905 ;; This function uses a non-reentrant model
   906 ;;
   907                           
   908  1B11                     _main:	
   909                           ;psect for function _main
   910                           
   911  1B11                     l4448:	
   912                           ;incstack = 0
   913                           ; Regs used in _main: [wreg+status,2+status,0+btemp+1+pclath+cstack]
   914                           
   915                           
   916                           ;master_main_dar-alv.c: 254:     setup();
   917  1B11  160A  158A  2127  160A  158A  	fcall	_setup
   918  1B16                     l4450:
   919                           
   920                           ;master_main_dar-alv.c: 258:         if (ADCON0bits.GO == 0){
   921  1B16  1283               	bcf	3,5	;RP0=0, select bank0
   922  1B17  1303               	bcf	3,6	;RP1=0, select bank0
   923  1B18  189F               	btfsc	31,1	;volatile
   924  1B19  2B1B               	goto	u7201
   925  1B1A  2B1C               	goto	u7200
   926  1B1B                     u7201:
   927  1B1B  2B71               	goto	l211
   928  1B1C                     u7200:
   929  1B1C                     l4452:
   930                           
   931                           ;master_main_dar-alv.c: 259:             if (ADCON0bits.CHS == 0){
   932  1B1C  0C1F               	rrf	31,w	;volatile
   933  1B1D  1683               	bsf	3,5	;RP0=1, select bank3
   934  1B1E  1703               	bsf	3,6	;RP1=1, select bank3
   935  1B1F  00D8               	movwf	??_main^(0+384)
   936  1B20  0C58               	rrf	??_main^(0+384),w
   937  1B21  390F               	andlw	15
   938  1B22  3A00               	xorlw	0
   939  1B23  1D03               	skipz
   940  1B24  2B26               	goto	u7211
   941  1B25  2B27               	goto	u7210
   942  1B26                     u7211:
   943  1B26  2B31               	goto	l4458
   944  1B27                     u7210:
   945  1B27                     l4454:
   946                           
   947                           ;master_main_dar-alv.c: 260:                 ADCON0bits.CHS = 1;
   948  1B27  1283               	bcf	3,5	;RP0=0, select bank0
   949  1B28  1303               	bcf	3,6	;RP1=0, select bank0
   950  1B29  081F               	movf	31,w	;volatile
   951  1B2A  39C3               	andlw	-61
   952  1B2B  3804               	iorlw	4
   953  1B2C  009F               	movwf	31	;volatile
   954  1B2D                     l4456:
   955                           
   956                           ;master_main_dar-alv.c: 261:                 _delay((unsigned long)((40)*(500000/4000000
      +                          .0)));
   957  1B2D  2B2E               	nop2	;2 cycle nop
   958  1B2E  2B2F               	nop2	;2 cycle nop
   959  1B2F  0000               	nop
   960                           
   961                           ;master_main_dar-alv.c: 262:             }
   962  1B30  2B6B               	goto	l4476
   963  1B31                     l4458:
   964  1B31  1283               	bcf	3,5	;RP0=0, select bank0
   965  1B32  1303               	bcf	3,6	;RP1=0, select bank0
   966  1B33  0C1F               	rrf	31,w	;volatile
   967  1B34  1683               	bsf	3,5	;RP0=1, select bank3
   968  1B35  1703               	bsf	3,6	;RP1=1, select bank3
   969  1B36  00D8               	movwf	??_main^(0+384)
   970  1B37  0C58               	rrf	??_main^(0+384),w
   971  1B38  390F               	andlw	15
   972  1B39  3A01               	xorlw	1
   973  1B3A  1D03               	skipz
   974  1B3B  2B3D               	goto	u7221
   975  1B3C  2B3E               	goto	u7220
   976  1B3D                     u7221:
   977  1B3D  2B45               	goto	l4464
   978  1B3E                     u7220:
   979  1B3E                     l4460:
   980                           
   981                           ;master_main_dar-alv.c: 264:                 ADCON0bits.CHS = 2;
   982  1B3E  1283               	bcf	3,5	;RP0=0, select bank0
   983  1B3F  1303               	bcf	3,6	;RP1=0, select bank0
   984  1B40  081F               	movf	31,w	;volatile
   985  1B41  39C3               	andlw	-61
   986  1B42  3808               	iorlw	8
   987  1B43  009F               	movwf	31	;volatile
   988  1B44  2B2D               	goto	l4456
   989  1B45                     l4464:
   990  1B45  1283               	bcf	3,5	;RP0=0, select bank0
   991  1B46  1303               	bcf	3,6	;RP1=0, select bank0
   992  1B47  0C1F               	rrf	31,w	;volatile
   993  1B48  1683               	bsf	3,5	;RP0=1, select bank3
   994  1B49  1703               	bsf	3,6	;RP1=1, select bank3
   995  1B4A  00D8               	movwf	??_main^(0+384)
   996  1B4B  0C58               	rrf	??_main^(0+384),w
   997  1B4C  390F               	andlw	15
   998  1B4D  3A02               	xorlw	2
   999  1B4E  1D03               	skipz
  1000  1B4F  2B51               	goto	u7231
  1001  1B50  2B52               	goto	u7230
  1002  1B51                     u7231:
  1003  1B51  2B59               	goto	l4470
  1004  1B52                     u7230:
  1005  1B52                     l4466:
  1006                           
  1007                           ;master_main_dar-alv.c: 268:                 ADCON0bits.CHS = 3;
  1008  1B52  1283               	bcf	3,5	;RP0=0, select bank0
  1009  1B53  1303               	bcf	3,6	;RP1=0, select bank0
  1010  1B54  081F               	movf	31,w	;volatile
  1011  1B55  39C3               	andlw	-61
  1012  1B56  380C               	iorlw	12
  1013  1B57  009F               	movwf	31	;volatile
  1014  1B58  2B2D               	goto	l4456
  1015  1B59                     l4470:
  1016  1B59  1283               	bcf	3,5	;RP0=0, select bank0
  1017  1B5A  1303               	bcf	3,6	;RP1=0, select bank0
  1018  1B5B  0C1F               	rrf	31,w	;volatile
  1019  1B5C  1683               	bsf	3,5	;RP0=1, select bank3
  1020  1B5D  1703               	bsf	3,6	;RP1=1, select bank3
  1021  1B5E  00D8               	movwf	??_main^(0+384)
  1022  1B5F  0C58               	rrf	??_main^(0+384),w
  1023  1B60  390F               	andlw	15
  1024  1B61  3A03               	xorlw	3
  1025  1B62  1D03               	skipz
  1026  1B63  2B65               	goto	u7241
  1027  1B64  2B66               	goto	u7240
  1028  1B65                     u7241:
  1029  1B65  2B6B               	goto	l215
  1030  1B66                     u7240:
  1031  1B66                     l4472:
  1032                           
  1033                           ;master_main_dar-alv.c: 272:                 ADCON0bits.CHS = 0;
  1034  1B66  30C3               	movlw	-61
  1035  1B67  1283               	bcf	3,5	;RP0=0, select bank0
  1036  1B68  1303               	bcf	3,6	;RP1=0, select bank0
  1037  1B69  059F               	andwf	31,f	;volatile
  1038  1B6A  2B2D               	goto	l4456
  1039  1B6B                     l215:
  1040  1B6B                     l4476:
  1041                           
  1042                           ;master_main_dar-alv.c: 275:             _delay((unsigned long)((40)*(500000/4000000.0))
      +                          );
  1043  1B6B  2B6C               	nop2	;2 cycle nop
  1044  1B6C  2B6D               	nop2	;2 cycle nop
  1045  1B6D  0000               	nop
  1046  1B6E                     l4478:
  1047                           
  1048                           ;master_main_dar-alv.c: 276:             ADCON0bits.GO = 1;
  1049  1B6E  1283               	bcf	3,5	;RP0=0, select bank0
  1050  1B6F  1303               	bcf	3,6	;RP1=0, select bank0
  1051  1B70  149F               	bsf	31,1	;volatile
  1052  1B71                     l211:	
  1053                           ;master_main_dar-alv.c: 277:         }
  1054                           
  1055                           
  1056                           ;master_main_dar-alv.c: 279:         if (estado == 0){
  1057  1B71  1683               	bsf	3,5	;RP0=1, select bank1
  1058  1B72  1303               	bcf	3,6	;RP1=0, select bank1
  1059  1B73  085A               	movf	_estado^(0+128),w
  1060  1B74  1D03               	btfss	3,2
  1061  1B75  2B77               	goto	u7251
  1062  1B76  2B78               	goto	u7250
  1063  1B77                     u7251:
  1064  1B77  2BD9               	goto	l4494
  1065  1B78                     u7250:
  1066  1B78                     l4480:
  1067                           
  1068                           ;master_main_dar-alv.c: 280:             PORTAbits.RA6 = 0;
  1069  1B78  1283               	bcf	3,5	;RP0=0, select bank0
  1070  1B79  1303               	bcf	3,6	;RP1=0, select bank0
  1071  1B7A  1305               	bcf	5,6	;volatile
  1072                           
  1073                           ;master_main_dar-alv.c: 281:             if (PORTAbits.RA6 == 0){
  1074  1B7B  1B05               	btfsc	5,6	;volatile
  1075  1B7C  2B7E               	goto	u7261
  1076  1B7D  2B7F               	goto	u7260
  1077  1B7E                     u7261:
  1078  1B7E  2BCD               	goto	l4492
  1079  1B7F                     u7260:
  1080  1B7F                     l4482:
  1081                           
  1082                           ;master_main_dar-alv.c: 282:                 PORTDbits.RD1 = 0;
  1083  1B7F  1088               	bcf	8,1	;volatile
  1084  1B80                     l4484:
  1085                           
  1086                           ;master_main_dar-alv.c: 283:                 _delay((unsigned long)((50)*(500000/4000.0)
      +                          ));
  1087  1B80  3009               	movlw	9
  1088  1B81  1683               	bsf	3,5	;RP0=1, select bank3
  1089  1B82  1703               	bsf	3,6	;RP1=1, select bank3
  1090  1B83  00D9               	movwf	(??_main^(0+384)+1)
  1091  1B84  301B               	movlw	27
  1092  1B85  00D8               	movwf	??_main^(0+384)
  1093  1B86                     u7327:
  1094  1B86  0BD8               	decfsz	??_main^(0+384),f
  1095  1B87  2B86               	goto	u7327
  1096  1B88  0BD9               	decfsz	(??_main^(0+384)+1),f
  1097  1B89  2B86               	goto	u7327
  1098  1B8A  2B8B               	nop2
  1099  1B8B                     l4486:
  1100                           
  1101                           ;master_main_dar-alv.c: 284:                 PORTDbits.RD0 = 1;
  1102  1B8B  1283               	bcf	3,5	;RP0=0, select bank0
  1103  1B8C  1303               	bcf	3,6	;RP1=0, select bank0
  1104  1B8D  1408               	bsf	8,0	;volatile
  1105                           
  1106                           ;master_main_dar-alv.c: 285:                 _delay((unsigned long)((50)*(500000/4000.0)
      +                          ));
  1107  1B8E  3009               	movlw	9
  1108  1B8F  1683               	bsf	3,5	;RP0=1, select bank3
  1109  1B90  1703               	bsf	3,6	;RP1=1, select bank3
  1110  1B91  00D9               	movwf	(??_main^(0+384)+1)
  1111  1B92  301B               	movlw	27
  1112  1B93  00D8               	movwf	??_main^(0+384)
  1113  1B94                     u7337:
  1114  1B94  0BD8               	decfsz	??_main^(0+384),f
  1115  1B95  2B94               	goto	u7337
  1116  1B96  0BD9               	decfsz	(??_main^(0+384)+1),f
  1117  1B97  2B94               	goto	u7337
  1118  1B98  2B99               	nop2
  1119                           
  1120                           ;master_main_dar-alv.c: 286:                 SSPBUF = pot3_in;
  1121  1B99  1683               	bsf	3,5	;RP0=1, select bank1
  1122  1B9A  1303               	bcf	3,6	;RP1=0, select bank1
  1123  1B9B  0857               	movf	_pot3_in^(0+128),w
  1124  1B9C  1283               	bcf	3,5	;RP0=0, select bank0
  1125  1B9D  1303               	bcf	3,6	;RP1=0, select bank0
  1126  1B9E  0093               	movwf	19	;volatile
  1127  1B9F                     l221:	
  1128                           ;master_main_dar-alv.c: 287:                 while(!SSPSTATbits.BF);
  1129                           
  1130  1B9F  1683               	bsf	3,5	;RP0=1, select bank1
  1131  1BA0  1303               	bcf	3,6	;RP1=0, select bank1
  1132  1BA1  1C14               	btfss	20,0	;volatile
  1133  1BA2  2BA4               	goto	u7271
  1134  1BA3  2BA5               	goto	u7270
  1135  1BA4                     u7271:
  1136  1BA4  2B9F               	goto	l221
  1137  1BA5                     u7270:
  1138  1BA5                     l223:
  1139                           
  1140                           ;master_main_dar-alv.c: 289:                 PORTDbits.RD1 = 1;
  1141  1BA5  1283               	bcf	3,5	;RP0=0, select bank0
  1142  1BA6  1303               	bcf	3,6	;RP1=0, select bank0
  1143  1BA7  1488               	bsf	8,1	;volatile
  1144  1BA8                     l4488:
  1145                           
  1146                           ;master_main_dar-alv.c: 290:                 _delay((unsigned long)((50)*(500000/4000.0)
      +                          ));
  1147  1BA8  3009               	movlw	9
  1148  1BA9  1683               	bsf	3,5	;RP0=1, select bank3
  1149  1BAA  1703               	bsf	3,6	;RP1=1, select bank3
  1150  1BAB  00D9               	movwf	(??_main^(0+384)+1)
  1151  1BAC  301B               	movlw	27
  1152  1BAD  00D8               	movwf	??_main^(0+384)
  1153  1BAE                     u7347:
  1154  1BAE  0BD8               	decfsz	??_main^(0+384),f
  1155  1BAF  2BAE               	goto	u7347
  1156  1BB0  0BD9               	decfsz	(??_main^(0+384)+1),f
  1157  1BB1  2BAE               	goto	u7347
  1158  1BB2  2BB3               	nop2
  1159  1BB3                     l4490:
  1160                           
  1161                           ;master_main_dar-alv.c: 291:                 PORTDbits.RD0 = 0;
  1162  1BB3  1283               	bcf	3,5	;RP0=0, select bank0
  1163  1BB4  1303               	bcf	3,6	;RP1=0, select bank0
  1164  1BB5  1008               	bcf	8,0	;volatile
  1165                           
  1166                           ;master_main_dar-alv.c: 292:                 _delay((unsigned long)((50)*(500000/4000.0)
      +                          ));
  1167  1BB6  3009               	movlw	9
  1168  1BB7  1683               	bsf	3,5	;RP0=1, select bank3
  1169  1BB8  1703               	bsf	3,6	;RP1=1, select bank3
  1170  1BB9  00D9               	movwf	(??_main^(0+384)+1)
  1171  1BBA  301B               	movlw	27
  1172  1BBB  00D8               	movwf	??_main^(0+384)
  1173  1BBC                     u7357:
  1174  1BBC  0BD8               	decfsz	??_main^(0+384),f
  1175  1BBD  2BBC               	goto	u7357
  1176  1BBE  0BD9               	decfsz	(??_main^(0+384)+1),f
  1177  1BBF  2BBC               	goto	u7357
  1178  1BC0  2BC1               	nop2
  1179                           
  1180                           ;master_main_dar-alv.c: 293:                 SSPBUF = pot4_in;
  1181  1BC1  1683               	bsf	3,5	;RP0=1, select bank1
  1182  1BC2  1303               	bcf	3,6	;RP1=0, select bank1
  1183  1BC3  0856               	movf	_pot4_in^(0+128),w
  1184  1BC4  1283               	bcf	3,5	;RP0=0, select bank0
  1185  1BC5  1303               	bcf	3,6	;RP1=0, select bank0
  1186  1BC6  0093               	movwf	19	;volatile
  1187  1BC7                     l224:	
  1188                           ;master_main_dar-alv.c: 294:                 while(!SSPSTATbits.BF);
  1189                           
  1190  1BC7  1683               	bsf	3,5	;RP0=1, select bank1
  1191  1BC8  1303               	bcf	3,6	;RP1=0, select bank1
  1192  1BC9  1C14               	btfss	20,0	;volatile
  1193  1BCA  2BCC               	goto	u7281
  1194  1BCB  2BCD               	goto	u7280
  1195  1BCC                     u7281:
  1196  1BCC  2BC7               	goto	l224
  1197  1BCD                     u7280:
  1198  1BCD                     l4492:
  1199                           
  1200                           ;master_main_dar-alv.c: 296:             _delay((unsigned long)((50)*(500000/4000.0)));
  1201  1BCD  3009               	movlw	9
  1202  1BCE  1683               	bsf	3,5	;RP0=1, select bank3
  1203  1BCF  1703               	bsf	3,6	;RP1=1, select bank3
  1204  1BD0  00D9               	movwf	(??_main^(0+384)+1)
  1205  1BD1  301B               	movlw	27
  1206  1BD2  00D8               	movwf	??_main^(0+384)
  1207  1BD3                     u7367:
  1208  1BD3  0BD8               	decfsz	??_main^(0+384),f
  1209  1BD4  2BD3               	goto	u7367
  1210  1BD5  0BD9               	decfsz	(??_main^(0+384)+1),f
  1211  1BD6  2BD3               	goto	u7367
  1212  1BD7  2BD8               	nop2
  1213                           
  1214                           ;master_main_dar-alv.c: 297:         }
  1215  1BD8  2B16               	goto	l4450
  1216  1BD9                     l4494:
  1217  1BD9  3002               	movlw	2
  1218  1BDA  065A               	xorwf	_estado^(0+128),w
  1219  1BDB  1D03               	btfss	3,2
  1220  1BDC  2BDE               	goto	u7291
  1221  1BDD  2BDF               	goto	u7290
  1222  1BDE                     u7291:
  1223  1BDE  2B16               	goto	l4450
  1224  1BDF                     u7290:
  1225  1BDF                     l4496:
  1226                           
  1227                           ;master_main_dar-alv.c: 300:             pot1_in = map(pot1_serial, 5, 127, 0, 255);
  1228  1BDF  3005               	movlw	5
  1229  1BE0  1683               	bsf	3,5	;RP0=1, select bank3
  1230  1BE1  1703               	bsf	3,6	;RP1=1, select bank3
  1231  1BE2  00D8               	movwf	??_main^(0+384)
  1232  1BE3  0858               	movf	??_main^(0+384),w
  1233  1BE4  00D1               	movwf	map@x0^(0+384)
  1234  1BE5  307F               	movlw	127
  1235  1BE6  00D9               	movwf	(??_main+1)^(0+384)
  1236  1BE7  0859               	movf	(??_main+1)^(0+384),w
  1237  1BE8  00D2               	movwf	map@x1^(0+384)
  1238  1BE9  3000               	movlw	0
  1239  1BEA  00D3               	movwf	map@y0^(0+384)
  1240  1BEB  00D4               	movwf	(map@y0+1)^(0+384)
  1241  1BEC  30FF               	movlw	255
  1242  1BED  00D5               	movwf	map@y1^(0+384)
  1243  1BEE  3000               	movlw	0
  1244  1BEF  00D6               	movwf	(map@y1^(0+384)+1)
  1245  1BF0  085E               	movf	_pot1_serial^(0+384),w
  1246  1BF1  160A  118A  2139  160A  158A  	fcall	_map
  1247  1BF6  1683               	bsf	3,5	;RP0=1, select bank3
  1248  1BF7  1703               	bsf	3,6	;RP1=1, select bank3
  1249  1BF8  0851               	movf	?_map^(0+384),w
  1250  1BF9  00DA               	movwf	(??_main+2)^(0+384)
  1251  1BFA  085A               	movf	(??_main+2)^(0+384),w
  1252  1BFB  1683               	bsf	3,5	;RP0=1, select bank1
  1253  1BFC  1303               	bcf	3,6	;RP1=0, select bank1
  1254  1BFD  00D9               	movwf	_pot1_in^(0+128)
  1255                           
  1256                           ;master_main_dar-alv.c: 301:             CCPR = map(pot1_in, 0, 255, 13, 80);
  1257  1BFE  1683               	bsf	3,5	;RP0=1, select bank3
  1258  1BFF  1703               	bsf	3,6	;RP1=1, select bank3
  1259  1C00  01D1               	clrf	map@x0^(0+384)
  1260  1C01  30FF               	movlw	255
  1261  1C02  00D8               	movwf	??_main^(0+384)
  1262  1C03  0858               	movf	??_main^(0+384),w
  1263  1C04  00D2               	movwf	map@x1^(0+384)
  1264  1C05  300D               	movlw	13
  1265  1C06  00D3               	movwf	map@y0^(0+384)
  1266  1C07  3000               	movlw	0
  1267  1C08  00D4               	movwf	(map@y0^(0+384)+1)
  1268  1C09  3050               	movlw	80
  1269  1C0A  00D5               	movwf	map@y1^(0+384)
  1270  1C0B  3000               	movlw	0
  1271  1C0C  00D6               	movwf	(map@y1^(0+384)+1)
  1272  1C0D  1683               	bsf	3,5	;RP0=1, select bank1
  1273  1C0E  1303               	bcf	3,6	;RP1=0, select bank1
  1274  1C0F  0859               	movf	_pot1_in^(0+128),w
  1275  1C10  160A  118A  2139  160A  158A  	fcall	_map
  1276  1C15  1683               	bsf	3,5	;RP0=1, select bank3
  1277  1C16  1703               	bsf	3,6	;RP1=1, select bank3
  1278  1C17  0852               	movf	(?_map+1)^(0+384),w
  1279  1C18  1683               	bsf	3,5	;RP0=1, select bank1
  1280  1C19  1303               	bcf	3,6	;RP1=0, select bank1
  1281  1C1A  00D3               	movwf	(_CCPR+1)^(0+128)
  1282  1C1B  1683               	bsf	3,5	;RP0=1, select bank3
  1283  1C1C  1703               	bsf	3,6	;RP1=1, select bank3
  1284  1C1D  0851               	movf	?_map^(0+384),w
  1285  1C1E  1683               	bsf	3,5	;RP0=1, select bank1
  1286  1C1F  1303               	bcf	3,6	;RP1=0, select bank1
  1287  1C20  00D2               	movwf	_CCPR^(0+128)
  1288  1C21                     l4498:
  1289                           
  1290                           ;master_main_dar-alv.c: 302:             CCPR1L = (uint8_t)(CCPR>>2);
  1291  1C21  0853               	movf	(_CCPR+1)^(0+128),w
  1292  1C22  1683               	bsf	3,5	;RP0=1, select bank3
  1293  1C23  1703               	bsf	3,6	;RP1=1, select bank3
  1294  1C24  00D9               	movwf	(??_main^(0+384)+1)
  1295  1C25  1683               	bsf	3,5	;RP0=1, select bank1
  1296  1C26  1303               	bcf	3,6	;RP1=0, select bank1
  1297  1C27  0852               	movf	_CCPR^(0+128),w
  1298  1C28  1683               	bsf	3,5	;RP0=1, select bank3
  1299  1C29  1703               	bsf	3,6	;RP1=1, select bank3
  1300  1C2A  00D8               	movwf	??_main^(0+384)
  1301  1C2B  1003               	clrc
  1302  1C2C  0CD9               	rrf	(??_main^(0+384)+1),f
  1303  1C2D  0CD8               	rrf	??_main^(0+384),f
  1304  1C2E  1003               	clrc
  1305  1C2F  0CD9               	rrf	(??_main^(0+384)+1),f
  1306  1C30  0CD8               	rrf	??_main^(0+384),f
  1307  1C31  0858               	movf	??_main^(0+384),w
  1308  1C32  1283               	bcf	3,5	;RP0=0, select bank0
  1309  1C33  1303               	bcf	3,6	;RP1=0, select bank0
  1310  1C34  0095               	movwf	21	;volatile
  1311  1C35                     l4500:
  1312                           
  1313                           ;master_main_dar-alv.c: 303:             CCP1CONbits.DC1B = CCPR & 0b11;
  1314  1C35  1683               	bsf	3,5	;RP0=1, select bank1
  1315  1C36  1303               	bcf	3,6	;RP1=0, select bank1
  1316  1C37  0852               	movf	_CCPR^(0+128),w
  1317  1C38  3903               	andlw	3
  1318  1C39  1683               	bsf	3,5	;RP0=1, select bank3
  1319  1C3A  1703               	bsf	3,6	;RP1=1, select bank3
  1320  1C3B  00D8               	movwf	??_main^(0+384)
  1321  1C3C  0ED8               	swapf	??_main^(0+384),f
  1322  1C3D  1283               	bcf	3,5	;RP0=0, select bank0
  1323  1C3E  1303               	bcf	3,6	;RP1=0, select bank0
  1324  1C3F  0817               	movf	23,w	;volatile
  1325  1C40  1683               	bsf	3,5	;RP0=1, select bank3
  1326  1C41  1703               	bsf	3,6	;RP1=1, select bank3
  1327  1C42  0658               	xorwf	??_main^(0+384),w
  1328  1C43  39CF               	andlw	-49
  1329  1C44  0658               	xorwf	??_main^(0+384),w
  1330  1C45  1283               	bcf	3,5	;RP0=0, select bank0
  1331  1C46  1303               	bcf	3,6	;RP1=0, select bank0
  1332  1C47  0097               	movwf	23	;volatile
  1333  1C48                     l4502:
  1334                           
  1335                           ;master_main_dar-alv.c: 304:             _delay((unsigned long)((50)*(500000/4000.0)));
  1336  1C48  3009               	movlw	9
  1337  1C49  1683               	bsf	3,5	;RP0=1, select bank3
  1338  1C4A  1703               	bsf	3,6	;RP1=1, select bank3
  1339  1C4B  00D9               	movwf	(??_main^(0+384)+1)
  1340  1C4C  301B               	movlw	27
  1341  1C4D  00D8               	movwf	??_main^(0+384)
  1342  1C4E                     u7377:
  1343  1C4E  0BD8               	decfsz	??_main^(0+384),f
  1344  1C4F  2C4E               	goto	u7377
  1345  1C50  0BD9               	decfsz	(??_main^(0+384)+1),f
  1346  1C51  2C4E               	goto	u7377
  1347  1C52  2C53               	nop2
  1348  1C53                     l4504:
  1349                           
  1350                           ;master_main_dar-alv.c: 305:             pot2_in = map(pot2_serial, 5, 127, 0, 255);
  1351  1C53  3005               	movlw	5
  1352  1C54  1683               	bsf	3,5	;RP0=1, select bank3
  1353  1C55  1703               	bsf	3,6	;RP1=1, select bank3
  1354  1C56  00D8               	movwf	??_main^(0+384)
  1355  1C57  0858               	movf	??_main^(0+384),w
  1356  1C58  00D1               	movwf	map@x0^(0+384)
  1357  1C59  307F               	movlw	127
  1358  1C5A  00D9               	movwf	(??_main+1)^(0+384)
  1359  1C5B  0859               	movf	(??_main+1)^(0+384),w
  1360  1C5C  00D2               	movwf	map@x1^(0+384)
  1361  1C5D  3000               	movlw	0
  1362  1C5E  00D3               	movwf	map@y0^(0+384)
  1363  1C5F  00D4               	movwf	(map@y0+1)^(0+384)
  1364  1C60  30FF               	movlw	255
  1365  1C61  00D5               	movwf	map@y1^(0+384)
  1366  1C62  3000               	movlw	0
  1367  1C63  00D6               	movwf	(map@y1^(0+384)+1)
  1368  1C64  085D               	movf	_pot2_serial^(0+384),w
  1369  1C65  160A  118A  2139  160A  158A  	fcall	_map
  1370  1C6A  1683               	bsf	3,5	;RP0=1, select bank3
  1371  1C6B  1703               	bsf	3,6	;RP1=1, select bank3
  1372  1C6C  0851               	movf	?_map^(0+384),w
  1373  1C6D  00DA               	movwf	(??_main+2)^(0+384)
  1374  1C6E  085A               	movf	(??_main+2)^(0+384),w
  1375  1C6F  1683               	bsf	3,5	;RP0=1, select bank1
  1376  1C70  1303               	bcf	3,6	;RP1=0, select bank1
  1377  1C71  00D8               	movwf	_pot2_in^(0+128)
  1378  1C72                     l4506:
  1379                           
  1380                           ;master_main_dar-alv.c: 306:             CCPRx = map(pot2_in, 0, 255, 13, 80);
  1381  1C72  1683               	bsf	3,5	;RP0=1, select bank3
  1382  1C73  1703               	bsf	3,6	;RP1=1, select bank3
  1383  1C74  01D1               	clrf	map@x0^(0+384)
  1384  1C75  30FF               	movlw	255
  1385  1C76  00D8               	movwf	??_main^(0+384)
  1386  1C77  0858               	movf	??_main^(0+384),w
  1387  1C78  00D2               	movwf	map@x1^(0+384)
  1388  1C79  300D               	movlw	13
  1389  1C7A  00D3               	movwf	map@y0^(0+384)
  1390  1C7B  3000               	movlw	0
  1391  1C7C  00D4               	movwf	(map@y0^(0+384)+1)
  1392  1C7D  3050               	movlw	80
  1393  1C7E  00D5               	movwf	map@y1^(0+384)
  1394  1C7F  3000               	movlw	0
  1395  1C80  00D6               	movwf	(map@y1^(0+384)+1)
  1396  1C81  1683               	bsf	3,5	;RP0=1, select bank1
  1397  1C82  1303               	bcf	3,6	;RP1=0, select bank1
  1398  1C83  0858               	movf	_pot2_in^(0+128),w
  1399  1C84  160A  118A  2139  160A  158A  	fcall	_map
  1400  1C89  1683               	bsf	3,5	;RP0=1, select bank3
  1401  1C8A  1703               	bsf	3,6	;RP1=1, select bank3
  1402  1C8B  0852               	movf	(?_map+1)^(0+384),w
  1403  1C8C  1683               	bsf	3,5	;RP0=1, select bank1
  1404  1C8D  1303               	bcf	3,6	;RP1=0, select bank1
  1405  1C8E  00D1               	movwf	(_CCPRx+1)^(0+128)
  1406  1C8F  1683               	bsf	3,5	;RP0=1, select bank3
  1407  1C90  1703               	bsf	3,6	;RP1=1, select bank3
  1408  1C91  0851               	movf	?_map^(0+384),w
  1409  1C92  1683               	bsf	3,5	;RP0=1, select bank1
  1410  1C93  1303               	bcf	3,6	;RP1=0, select bank1
  1411  1C94  00D0               	movwf	_CCPRx^(0+128)
  1412  1C95                     l4508:
  1413                           
  1414                           ;master_main_dar-alv.c: 307:             CCPR2L = (uint8_t)(CCPRx>>2);
  1415  1C95  0851               	movf	(_CCPRx+1)^(0+128),w
  1416  1C96  1683               	bsf	3,5	;RP0=1, select bank3
  1417  1C97  1703               	bsf	3,6	;RP1=1, select bank3
  1418  1C98  00D9               	movwf	(??_main^(0+384)+1)
  1419  1C99  1683               	bsf	3,5	;RP0=1, select bank1
  1420  1C9A  1303               	bcf	3,6	;RP1=0, select bank1
  1421  1C9B  0850               	movf	_CCPRx^(0+128),w
  1422  1C9C  1683               	bsf	3,5	;RP0=1, select bank3
  1423  1C9D  1703               	bsf	3,6	;RP1=1, select bank3
  1424  1C9E  00D8               	movwf	??_main^(0+384)
  1425  1C9F  1003               	clrc
  1426  1CA0  0CD9               	rrf	(??_main^(0+384)+1),f
  1427  1CA1  0CD8               	rrf	??_main^(0+384),f
  1428  1CA2  1003               	clrc
  1429  1CA3  0CD9               	rrf	(??_main^(0+384)+1),f
  1430  1CA4  0CD8               	rrf	??_main^(0+384),f
  1431  1CA5  0858               	movf	??_main^(0+384),w
  1432  1CA6  1283               	bcf	3,5	;RP0=0, select bank0
  1433  1CA7  1303               	bcf	3,6	;RP1=0, select bank0
  1434  1CA8  009B               	movwf	27	;volatile
  1435  1CA9                     l4510:
  1436                           
  1437                           ;master_main_dar-alv.c: 308:             CCP2CONbits.DC2B0 = CCPRx & 0b01;
  1438  1CA9  1683               	bsf	3,5	;RP0=1, select bank1
  1439  1CAA  1303               	bcf	3,6	;RP1=0, select bank1
  1440  1CAB  0850               	movf	_CCPRx^(0+128),w
  1441  1CAC  3901               	andlw	1
  1442  1CAD  1683               	bsf	3,5	;RP0=1, select bank3
  1443  1CAE  1703               	bsf	3,6	;RP1=1, select bank3
  1444  1CAF  00D8               	movwf	??_main^(0+384)
  1445  1CB0  0ED8               	swapf	??_main^(0+384),f
  1446  1CB1  1283               	bcf	3,5	;RP0=0, select bank0
  1447  1CB2  1303               	bcf	3,6	;RP1=0, select bank0
  1448  1CB3  081D               	movf	29,w	;volatile
  1449  1CB4  1683               	bsf	3,5	;RP0=1, select bank3
  1450  1CB5  1703               	bsf	3,6	;RP1=1, select bank3
  1451  1CB6  0658               	xorwf	??_main^(0+384),w
  1452  1CB7  39EF               	andlw	-17
  1453  1CB8  0658               	xorwf	??_main^(0+384),w
  1454  1CB9  1283               	bcf	3,5	;RP0=0, select bank0
  1455  1CBA  1303               	bcf	3,6	;RP1=0, select bank0
  1456  1CBB  009D               	movwf	29	;volatile
  1457  1CBC                     l4512:
  1458                           
  1459                           ;master_main_dar-alv.c: 309:             CCP2CONbits.DC2B1 = CCPRx & 0b10;
  1460  1CBC  1683               	bsf	3,5	;RP0=1, select bank1
  1461  1CBD  1303               	bcf	3,6	;RP1=0, select bank1
  1462  1CBE  0850               	movf	_CCPRx^(0+128),w
  1463  1CBF  3902               	andlw	2
  1464  1CC0  1683               	bsf	3,5	;RP0=1, select bank3
  1465  1CC1  1703               	bsf	3,6	;RP1=1, select bank3
  1466  1CC2  00D8               	movwf	??_main^(0+384)
  1467  1CC3  0ED8               	swapf	??_main^(0+384),f
  1468  1CC4  0DD8               	rlf	??_main^(0+384),f
  1469  1CC5  1283               	bcf	3,5	;RP0=0, select bank0
  1470  1CC6  1303               	bcf	3,6	;RP1=0, select bank0
  1471  1CC7  081D               	movf	29,w	;volatile
  1472  1CC8  1683               	bsf	3,5	;RP0=1, select bank3
  1473  1CC9  1703               	bsf	3,6	;RP1=1, select bank3
  1474  1CCA  0658               	xorwf	??_main^(0+384),w
  1475  1CCB  39DF               	andlw	-33
  1476  1CCC  0658               	xorwf	??_main^(0+384),w
  1477  1CCD  1283               	bcf	3,5	;RP0=0, select bank0
  1478  1CCE  1303               	bcf	3,6	;RP1=0, select bank0
  1479  1CCF  009D               	movwf	29	;volatile
  1480  1CD0                     l4514:
  1481                           
  1482                           ;master_main_dar-alv.c: 310:             _delay((unsigned long)((50)*(500000/4000.0)));
  1483  1CD0  3009               	movlw	9
  1484  1CD1  1683               	bsf	3,5	;RP0=1, select bank3
  1485  1CD2  1703               	bsf	3,6	;RP1=1, select bank3
  1486  1CD3  00D9               	movwf	(??_main^(0+384)+1)
  1487  1CD4  301B               	movlw	27
  1488  1CD5  00D8               	movwf	??_main^(0+384)
  1489  1CD6                     u7387:
  1490  1CD6  0BD8               	decfsz	??_main^(0+384),f
  1491  1CD7  2CD6               	goto	u7387
  1492  1CD8  0BD9               	decfsz	(??_main^(0+384)+1),f
  1493  1CD9  2CD6               	goto	u7387
  1494  1CDA  2CDB               	nop2
  1495  1CDB                     l4516:
  1496                           
  1497                           ;master_main_dar-alv.c: 311:             pot3_in = map(pot3_serial, 5, 127, 0, 255);
  1498  1CDB  3005               	movlw	5
  1499  1CDC  1683               	bsf	3,5	;RP0=1, select bank3
  1500  1CDD  1703               	bsf	3,6	;RP1=1, select bank3
  1501  1CDE  00D8               	movwf	??_main^(0+384)
  1502  1CDF  0858               	movf	??_main^(0+384),w
  1503  1CE0  00D1               	movwf	map@x0^(0+384)
  1504  1CE1  307F               	movlw	127
  1505  1CE2  00D9               	movwf	(??_main+1)^(0+384)
  1506  1CE3  0859               	movf	(??_main+1)^(0+384),w
  1507  1CE4  00D2               	movwf	map@x1^(0+384)
  1508  1CE5  3000               	movlw	0
  1509  1CE6  00D3               	movwf	map@y0^(0+384)
  1510  1CE7  00D4               	movwf	(map@y0+1)^(0+384)
  1511  1CE8  30FF               	movlw	255
  1512  1CE9  00D5               	movwf	map@y1^(0+384)
  1513  1CEA  3000               	movlw	0
  1514  1CEB  00D6               	movwf	(map@y1^(0+384)+1)
  1515  1CEC  085C               	movf	_pot3_serial^(0+384),w
  1516  1CED  160A  118A  2139  160A  158A  	fcall	_map
  1517  1CF2  1683               	bsf	3,5	;RP0=1, select bank3
  1518  1CF3  1703               	bsf	3,6	;RP1=1, select bank3
  1519  1CF4  0851               	movf	?_map^(0+384),w
  1520  1CF5  00DA               	movwf	(??_main+2)^(0+384)
  1521  1CF6  085A               	movf	(??_main+2)^(0+384),w
  1522  1CF7  1683               	bsf	3,5	;RP0=1, select bank1
  1523  1CF8  1303               	bcf	3,6	;RP1=0, select bank1
  1524  1CF9  00D7               	movwf	_pot3_in^(0+128)
  1525  1CFA                     l4518:
  1526                           
  1527                           ;master_main_dar-alv.c: 312:             PORTDbits.RD1 = 0;
  1528  1CFA  1283               	bcf	3,5	;RP0=0, select bank0
  1529  1CFB  1303               	bcf	3,6	;RP1=0, select bank0
  1530  1CFC  1088               	bcf	8,1	;volatile
  1531  1CFD                     l4520:
  1532                           
  1533                           ;master_main_dar-alv.c: 313:             _delay((unsigned long)((50)*(500000/4000.0)));
  1534  1CFD  3009               	movlw	9
  1535  1CFE  1683               	bsf	3,5	;RP0=1, select bank3
  1536  1CFF  1703               	bsf	3,6	;RP1=1, select bank3
  1537  1D00  00D9               	movwf	(??_main^(0+384)+1)
  1538  1D01  301B               	movlw	27
  1539  1D02  00D8               	movwf	??_main^(0+384)
  1540  1D03                     u7397:
  1541  1D03  0BD8               	decfsz	??_main^(0+384),f
  1542  1D04  2D03               	goto	u7397
  1543  1D05  0BD9               	decfsz	(??_main^(0+384)+1),f
  1544  1D06  2D03               	goto	u7397
  1545  1D07  2D08               	nop2
  1546  1D08                     l4522:
  1547                           
  1548                           ;master_main_dar-alv.c: 314:             PORTDbits.RD0 = 1;
  1549  1D08  1283               	bcf	3,5	;RP0=0, select bank0
  1550  1D09  1303               	bcf	3,6	;RP1=0, select bank0
  1551  1D0A  1408               	bsf	8,0	;volatile
  1552  1D0B                     l4524:
  1553                           
  1554                           ;master_main_dar-alv.c: 315:             _delay((unsigned long)((50)*(500000/4000.0)));
  1555  1D0B  3009               	movlw	9
  1556  1D0C  1683               	bsf	3,5	;RP0=1, select bank3
  1557  1D0D  1703               	bsf	3,6	;RP1=1, select bank3
  1558  1D0E  00D9               	movwf	(??_main^(0+384)+1)
  1559  1D0F  301B               	movlw	27
  1560  1D10  00D8               	movwf	??_main^(0+384)
  1561  1D11                     u7407:
  1562  1D11  0BD8               	decfsz	??_main^(0+384),f
  1563  1D12  2D11               	goto	u7407
  1564  1D13  0BD9               	decfsz	(??_main^(0+384)+1),f
  1565  1D14  2D11               	goto	u7407
  1566  1D15  2D16               	nop2
  1567  1D16                     l4526:
  1568                           
  1569                           ;master_main_dar-alv.c: 316:             SSPBUF = pot3_in;
  1570  1D16  1683               	bsf	3,5	;RP0=1, select bank1
  1571  1D17  1303               	bcf	3,6	;RP1=0, select bank1
  1572  1D18  0857               	movf	_pot3_in^(0+128),w
  1573  1D19  1283               	bcf	3,5	;RP0=0, select bank0
  1574  1D1A  1303               	bcf	3,6	;RP1=0, select bank0
  1575  1D1B  0093               	movwf	19	;volatile
  1576  1D1C                     l229:	
  1577                           ;master_main_dar-alv.c: 317:             while(!SSPSTATbits.BF);
  1578                           
  1579  1D1C  1683               	bsf	3,5	;RP0=1, select bank1
  1580  1D1D  1303               	bcf	3,6	;RP1=0, select bank1
  1581  1D1E  1C14               	btfss	20,0	;volatile
  1582  1D1F  2D21               	goto	u7301
  1583  1D20  2D22               	goto	u7300
  1584  1D21                     u7301:
  1585  1D21  2D1C               	goto	l229
  1586  1D22                     u7300:
  1587  1D22                     l4528:
  1588                           
  1589                           ;master_main_dar-alv.c: 318:             _delay((unsigned long)((50)*(500000/4000.0)));
  1590  1D22  3009               	movlw	9
  1591  1D23  1683               	bsf	3,5	;RP0=1, select bank3
  1592  1D24  1703               	bsf	3,6	;RP1=1, select bank3
  1593  1D25  00D9               	movwf	(??_main^(0+384)+1)
  1594  1D26  301B               	movlw	27
  1595  1D27  00D8               	movwf	??_main^(0+384)
  1596  1D28                     u7417:
  1597  1D28  0BD8               	decfsz	??_main^(0+384),f
  1598  1D29  2D28               	goto	u7417
  1599  1D2A  0BD9               	decfsz	(??_main^(0+384)+1),f
  1600  1D2B  2D28               	goto	u7417
  1601  1D2C  2D2D               	nop2
  1602  1D2D                     l4530:
  1603                           
  1604                           ;master_main_dar-alv.c: 319:             pot4_in = map(pot4_serial, 5, 127, 0, 255);
  1605  1D2D  3005               	movlw	5
  1606  1D2E  1683               	bsf	3,5	;RP0=1, select bank3
  1607  1D2F  1703               	bsf	3,6	;RP1=1, select bank3
  1608  1D30  00D8               	movwf	??_main^(0+384)
  1609  1D31  0858               	movf	??_main^(0+384),w
  1610  1D32  00D1               	movwf	map@x0^(0+384)
  1611  1D33  307F               	movlw	127
  1612  1D34  00D9               	movwf	(??_main+1)^(0+384)
  1613  1D35  0859               	movf	(??_main+1)^(0+384),w
  1614  1D36  00D2               	movwf	map@x1^(0+384)
  1615  1D37  3000               	movlw	0
  1616  1D38  00D3               	movwf	map@y0^(0+384)
  1617  1D39  00D4               	movwf	(map@y0+1)^(0+384)
  1618  1D3A  30FF               	movlw	255
  1619  1D3B  00D5               	movwf	map@y1^(0+384)
  1620  1D3C  3000               	movlw	0
  1621  1D3D  00D6               	movwf	(map@y1^(0+384)+1)
  1622  1D3E  085B               	movf	_pot4_serial^(0+384),w
  1623  1D3F  160A  118A  2139  160A  158A  	fcall	_map
  1624  1D44  1683               	bsf	3,5	;RP0=1, select bank3
  1625  1D45  1703               	bsf	3,6	;RP1=1, select bank3
  1626  1D46  0851               	movf	?_map^(0+384),w
  1627  1D47  00DA               	movwf	(??_main+2)^(0+384)
  1628  1D48  085A               	movf	(??_main+2)^(0+384),w
  1629  1D49  1683               	bsf	3,5	;RP0=1, select bank1
  1630  1D4A  1303               	bcf	3,6	;RP1=0, select bank1
  1631  1D4B  00D6               	movwf	_pot4_in^(0+128)
  1632  1D4C                     l4532:
  1633                           
  1634                           ;master_main_dar-alv.c: 320:             PORTDbits.RD1 = 1;
  1635  1D4C  1283               	bcf	3,5	;RP0=0, select bank0
  1636  1D4D  1303               	bcf	3,6	;RP1=0, select bank0
  1637  1D4E  1488               	bsf	8,1	;volatile
  1638  1D4F                     l4534:
  1639                           
  1640                           ;master_main_dar-alv.c: 321:             _delay((unsigned long)((50)*(500000/4000.0)));
  1641  1D4F  3009               	movlw	9
  1642  1D50  1683               	bsf	3,5	;RP0=1, select bank3
  1643  1D51  1703               	bsf	3,6	;RP1=1, select bank3
  1644  1D52  00D9               	movwf	(??_main^(0+384)+1)
  1645  1D53  301B               	movlw	27
  1646  1D54  00D8               	movwf	??_main^(0+384)
  1647  1D55                     u7427:
  1648  1D55  0BD8               	decfsz	??_main^(0+384),f
  1649  1D56  2D55               	goto	u7427
  1650  1D57  0BD9               	decfsz	(??_main^(0+384)+1),f
  1651  1D58  2D55               	goto	u7427
  1652  1D59  2D5A               	nop2
  1653  1D5A                     l4536:
  1654                           
  1655                           ;master_main_dar-alv.c: 322:             PORTDbits.RD0 = 0;
  1656  1D5A  1283               	bcf	3,5	;RP0=0, select bank0
  1657  1D5B  1303               	bcf	3,6	;RP1=0, select bank0
  1658  1D5C  1008               	bcf	8,0	;volatile
  1659  1D5D                     l4538:
  1660                           
  1661                           ;master_main_dar-alv.c: 323:             _delay((unsigned long)((50)*(500000/4000.0)));
  1662  1D5D  3009               	movlw	9
  1663  1D5E  1683               	bsf	3,5	;RP0=1, select bank3
  1664  1D5F  1703               	bsf	3,6	;RP1=1, select bank3
  1665  1D60  00D9               	movwf	(??_main^(0+384)+1)
  1666  1D61  301B               	movlw	27
  1667  1D62  00D8               	movwf	??_main^(0+384)
  1668  1D63                     u7437:
  1669  1D63  0BD8               	decfsz	??_main^(0+384),f
  1670  1D64  2D63               	goto	u7437
  1671  1D65  0BD9               	decfsz	(??_main^(0+384)+1),f
  1672  1D66  2D63               	goto	u7437
  1673  1D67  2D68               	nop2
  1674  1D68                     l4540:
  1675                           
  1676                           ;master_main_dar-alv.c: 324:             SSPBUF = pot4_in;
  1677  1D68  1683               	bsf	3,5	;RP0=1, select bank1
  1678  1D69  1303               	bcf	3,6	;RP1=0, select bank1
  1679  1D6A  0856               	movf	_pot4_in^(0+128),w
  1680  1D6B  1283               	bcf	3,5	;RP0=0, select bank0
  1681  1D6C  1303               	bcf	3,6	;RP1=0, select bank0
  1682  1D6D  0093               	movwf	19	;volatile
  1683  1D6E                     l232:	
  1684                           ;master_main_dar-alv.c: 325:             while(!SSPSTATbits.BF);
  1685                           
  1686  1D6E  1683               	bsf	3,5	;RP0=1, select bank1
  1687  1D6F  1303               	bcf	3,6	;RP1=0, select bank1
  1688  1D70  1C14               	btfss	20,0	;volatile
  1689  1D71  2D73               	goto	u7311
  1690  1D72  2D74               	goto	u7310
  1691  1D73                     u7311:
  1692  1D73  2D6E               	goto	l232
  1693  1D74                     u7310:
  1694  1D74  2B16               	goto	l4450
  1695  1D75  120A  118A  2810   	ljmp	start
  1696  1D78                     __end_of_main:
  1697                           
  1698                           	psect	text1
  1699  1927                     __ptext1:	
  1700 ;; *************** function _setup *****************
  1701 ;; Defined at:
  1702 ;;		line 334 in file "master_main_dar-alv.c"
  1703 ;; Parameters:    Size  Location     Type
  1704 ;;		None
  1705 ;; Auto vars:     Size  Location     Type
  1706 ;;		None
  1707 ;; Return value:  Size  Location     Type
  1708 ;;                  1    wreg      void 
  1709 ;; Registers used:
  1710 ;;		wreg, status,2, status,0
  1711 ;; Tracked objects:
  1712 ;;		On entry : 0/0
  1713 ;;		On exit  : 0/0
  1714 ;;		Unchanged: 0/0
  1715 ;; Data sizes:     COMMON   BANK0   BANK1   BANK3   BANK2
  1716 ;;      Params:         0       0       0       0       0
  1717 ;;      Locals:         0       0       0       0       0
  1718 ;;      Temps:          0       0       1       0       0
  1719 ;;      Totals:         0       0       1       0       0
  1720 ;;Total ram usage:        1 bytes
  1721 ;; Hardware stack levels used: 1
  1722 ;; Hardware stack levels required when called: 4
  1723 ;; This function calls:
  1724 ;;		Nothing
  1725 ;; This function is called by:
  1726 ;;		_main
  1727 ;; This function uses a non-reentrant model
  1728 ;;
  1729                           
  1730  1927                     _setup:	
  1731                           ;psect for function _setup
  1732                           
  1733  1927                     l3698:	
  1734                           ;incstack = 0
  1735                           ; Regs used in _setup: [wreg+status,2+status,0]
  1736                           
  1737                           
  1738                           ;master_main_dar-alv.c: 335:     ANSEL = 0b00001111;
  1739  1927  300F               	movlw	15
  1740  1928  1683               	bsf	3,5	;RP0=1, select bank3
  1741  1929  1703               	bsf	3,6	;RP1=1, select bank3
  1742  192A  0088               	movwf	8	;volatile
  1743  192B                     l3700:
  1744                           
  1745                           ;master_main_dar-alv.c: 336:     ANSELH = 0;
  1746  192B  0189               	clrf	9	;volatile
  1747  192C                     l3702:
  1748                           
  1749                           ;master_main_dar-alv.c: 338:     TRISA = 0b00001111;
  1750  192C  300F               	movlw	15
  1751  192D  1683               	bsf	3,5	;RP0=1, select bank1
  1752  192E  1303               	bcf	3,6	;RP1=0, select bank1
  1753  192F  0085               	movwf	5	;volatile
  1754                           
  1755                           ;master_main_dar-alv.c: 339:     TRISD = 0;
  1756  1930  0188               	clrf	8	;volatile
  1757                           
  1758                           ;master_main_dar-alv.c: 340:     TRISE = 0;
  1759  1931  0189               	clrf	9	;volatile
  1760                           
  1761                           ;master_main_dar-alv.c: 341:     PORTA = 0;
  1762  1932  1283               	bcf	3,5	;RP0=0, select bank0
  1763  1933  1303               	bcf	3,6	;RP1=0, select bank0
  1764  1934  0185               	clrf	5	;volatile
  1765                           
  1766                           ;master_main_dar-alv.c: 342:     PORTB = 0;
  1767  1935  0186               	clrf	6	;volatile
  1768                           
  1769                           ;master_main_dar-alv.c: 343:     PORTD = 0;
  1770  1936  0188               	clrf	8	;volatile
  1771                           
  1772                           ;master_main_dar-alv.c: 344:     PORTE = 0;
  1773  1937  0189               	clrf	9	;volatile
  1774  1938                     l3704:
  1775                           
  1776                           ;master_main_dar-alv.c: 346:     TRISC = 0b00010000;
  1777  1938  3010               	movlw	16
  1778  1939  1683               	bsf	3,5	;RP0=1, select bank1
  1779  193A  1303               	bcf	3,6	;RP1=0, select bank1
  1780  193B  0087               	movwf	7	;volatile
  1781  193C                     l3706:
  1782                           
  1783                           ;master_main_dar-alv.c: 347:     PORTC = 0;
  1784  193C  1283               	bcf	3,5	;RP0=0, select bank0
  1785  193D  1303               	bcf	3,6	;RP1=0, select bank0
  1786  193E  0187               	clrf	7	;volatile
  1787  193F                     l3708:
  1788                           
  1789                           ;master_main_dar-alv.c: 350:     SSPCONbits.SSPM = 0b0000;
  1790  193F  30F0               	movlw	-16
  1791  1940  0594               	andwf	20,f	;volatile
  1792  1941                     l3710:
  1793                           
  1794                           ;master_main_dar-alv.c: 351:     SSPCONbits.CKP = 0;
  1795  1941  1214               	bcf	20,4	;volatile
  1796  1942                     l3712:
  1797                           
  1798                           ;master_main_dar-alv.c: 352:     SSPCONbits.SSPEN = 1;
  1799  1942  1694               	bsf	20,5	;volatile
  1800  1943                     l3714:
  1801                           
  1802                           ;master_main_dar-alv.c: 354:     SSPSTATbits.CKE = 1;
  1803  1943  1683               	bsf	3,5	;RP0=1, select bank1
  1804  1944  1303               	bcf	3,6	;RP1=0, select bank1
  1805  1945  1714               	bsf	20,6	;volatile
  1806  1946                     l3716:
  1807                           
  1808                           ;master_main_dar-alv.c: 355:     SSPSTATbits.SMP = 1;
  1809  1946  1794               	bsf	20,7	;volatile
  1810  1947                     l3718:
  1811                           
  1812                           ;master_main_dar-alv.c: 356:     SSPBUF = 0x00;
  1813  1947  1283               	bcf	3,5	;RP0=0, select bank0
  1814  1948  1303               	bcf	3,6	;RP1=0, select bank0
  1815  1949  0193               	clrf	19	;volatile
  1816  194A                     l3720:
  1817                           
  1818                           ;master_main_dar-alv.c: 359:     INTCONbits.GIE = 1;
  1819  194A  178B               	bsf	11,7	;volatile
  1820  194B                     l3722:
  1821                           
  1822                           ;master_main_dar-alv.c: 360:     INTCONbits.PEIE = 1;
  1823  194B  170B               	bsf	11,6	;volatile
  1824  194C                     l3724:
  1825                           
  1826                           ;master_main_dar-alv.c: 361:     PIR1bits.ADIF = 0;
  1827  194C  130C               	bcf	12,6	;volatile
  1828  194D                     l3726:
  1829                           
  1830                           ;master_main_dar-alv.c: 362:     PIE1bits.ADIE = 1;
  1831  194D  1683               	bsf	3,5	;RP0=1, select bank1
  1832  194E  1303               	bcf	3,6	;RP1=0, select bank1
  1833  194F  170C               	bsf	12,6	;volatile
  1834  1950                     l3728:
  1835                           
  1836                           ;master_main_dar-alv.c: 363:     INTCONbits.RBIE = 1;
  1837  1950  158B               	bsf	11,3	;volatile
  1838  1951                     l3730:
  1839                           
  1840                           ;master_main_dar-alv.c: 364:     IOCBbits.IOCB0 = 1;
  1841  1951  1416               	bsf	22,0	;volatile
  1842  1952                     l3732:
  1843                           
  1844                           ;master_main_dar-alv.c: 365:     IOCBbits.IOCB1 = 1;
  1845  1952  1496               	bsf	22,1	;volatile
  1846  1953                     l3734:
  1847                           
  1848                           ;master_main_dar-alv.c: 366:     IOCBbits.IOCB2 = 1;
  1849  1953  1516               	bsf	22,2	;volatile
  1850  1954                     l3736:
  1851                           
  1852                           ;master_main_dar-alv.c: 367:     INTCONbits.RBIF = 0;
  1853  1954  100B               	bcf	11,0	;volatile
  1854  1955                     l3738:
  1855                           
  1856                           ;master_main_dar-alv.c: 370:     TRISBbits.TRISB0 = 1;
  1857  1955  1406               	bsf	6,0	;volatile
  1858  1956                     l3740:
  1859                           
  1860                           ;master_main_dar-alv.c: 371:     TRISBbits.TRISB1 = 1;
  1861  1956  1486               	bsf	6,1	;volatile
  1862  1957                     l3742:
  1863                           
  1864                           ;master_main_dar-alv.c: 372:     TRISBbits.TRISB2 = 1;
  1865  1957  1506               	bsf	6,2	;volatile
  1866  1958                     l3744:
  1867                           
  1868                           ;master_main_dar-alv.c: 373:     OPTION_REGbits.nRBPU = 0;
  1869  1958  1381               	bcf	1,7	;volatile
  1870  1959                     l3746:
  1871                           
  1872                           ;master_main_dar-alv.c: 374:     WPUBbits.WPUB0 = 1;
  1873  1959  1415               	bsf	21,0	;volatile
  1874  195A                     l3748:
  1875                           
  1876                           ;master_main_dar-alv.c: 375:     WPUBbits.WPUB1 = 1;
  1877  195A  1495               	bsf	21,1	;volatile
  1878  195B                     l3750:
  1879                           
  1880                           ;master_main_dar-alv.c: 376:     WPUBbits.WPUB2 = 1;
  1881  195B  1515               	bsf	21,2	;volatile
  1882  195C                     l3752:
  1883                           
  1884                           ;master_main_dar-alv.c: 379:     OSCCONbits.IRCF = 0b0011;
  1885  195C  080F               	movf	15,w	;volatile
  1886  195D  398F               	andlw	-113
  1887  195E  3830               	iorlw	48
  1888  195F  008F               	movwf	15	;volatile
  1889  1960                     l3754:
  1890                           
  1891                           ;master_main_dar-alv.c: 380:     OSCCONbits.SCS = 1;
  1892  1960  140F               	bsf	15,0	;volatile
  1893  1961                     l3756:
  1894                           
  1895                           ;master_main_dar-alv.c: 383:     ADCON0bits.ADCS = 0b00;
  1896  1961  303F               	movlw	-193
  1897  1962  1283               	bcf	3,5	;RP0=0, select bank0
  1898  1963  1303               	bcf	3,6	;RP1=0, select bank0
  1899  1964  059F               	andwf	31,f	;volatile
  1900  1965                     l3758:
  1901                           
  1902                           ;master_main_dar-alv.c: 384:     ADCON1bits.VCFG0 = 0;
  1903  1965  1683               	bsf	3,5	;RP0=1, select bank1
  1904  1966  1303               	bcf	3,6	;RP1=0, select bank1
  1905  1967  121F               	bcf	31,4	;volatile
  1906  1968                     l3760:
  1907                           
  1908                           ;master_main_dar-alv.c: 385:     ADCON1bits.VCFG1 = 0;
  1909  1968  129F               	bcf	31,5	;volatile
  1910  1969                     l3762:
  1911                           
  1912                           ;master_main_dar-alv.c: 387:     ADCON0bits.CHS = 0b0000;
  1913  1969  30C3               	movlw	-61
  1914  196A  1283               	bcf	3,5	;RP0=0, select bank0
  1915  196B  1303               	bcf	3,6	;RP1=0, select bank0
  1916  196C  059F               	andwf	31,f	;volatile
  1917  196D                     l3764:
  1918                           
  1919                           ;master_main_dar-alv.c: 388:     ADCON1bits.ADFM = 0;
  1920  196D  1683               	bsf	3,5	;RP0=1, select bank1
  1921  196E  1303               	bcf	3,6	;RP1=0, select bank1
  1922  196F  139F               	bcf	31,7	;volatile
  1923  1970                     l3766:
  1924                           
  1925                           ;master_main_dar-alv.c: 389:     ADCON0bits.ADON = 1;
  1926  1970  1283               	bcf	3,5	;RP0=0, select bank0
  1927  1971  1303               	bcf	3,6	;RP1=0, select bank0
  1928  1972  141F               	bsf	31,0	;volatile
  1929  1973                     l3768:
  1930                           
  1931                           ;master_main_dar-alv.c: 390:     _delay((unsigned long)((320)*(500000/4000000.0)));
  1932  1973  300C               	movlw	12
  1933  1974  1683               	bsf	3,5	;RP0=1, select bank1
  1934  1975  1303               	bcf	3,6	;RP1=0, select bank1
  1935  1976  00B0               	movwf	??_setup^(0+128)
  1936  1977                     u7447:
  1937  1977  0BB0               	decfsz	??_setup^(0+128),f
  1938  1978  2977               	goto	u7447
  1939  1979  0000               	nop
  1940  197A                     l3770:
  1941                           
  1942                           ;master_main_dar-alv.c: 393:     TRISCbits.TRISC2 = 1;
  1943  197A  1683               	bsf	3,5	;RP0=1, select bank1
  1944  197B  1303               	bcf	3,6	;RP1=0, select bank1
  1945  197C  1507               	bsf	7,2	;volatile
  1946  197D                     l3772:
  1947                           
  1948                           ;master_main_dar-alv.c: 394:     TRISCbits.TRISC1 = 1;
  1949  197D  1487               	bsf	7,1	;volatile
  1950  197E                     l3774:
  1951                           
  1952                           ;master_main_dar-alv.c: 395:     PR2 = 156;
  1953  197E  309C               	movlw	156
  1954  197F  0092               	movwf	18	;volatile
  1955  1980                     l3776:
  1956                           
  1957                           ;master_main_dar-alv.c: 398:     CCP1CON = 0;
  1958  1980  1283               	bcf	3,5	;RP0=0, select bank0
  1959  1981  1303               	bcf	3,6	;RP1=0, select bank0
  1960  1982  0197               	clrf	23	;volatile
  1961  1983                     l3778:
  1962                           
  1963                           ;master_main_dar-alv.c: 399:     CCP2CON = 0;
  1964  1983  019D               	clrf	29	;volatile
  1965  1984                     l3780:
  1966                           
  1967                           ;master_main_dar-alv.c: 400:     CCP1CONbits.P1M = 0;
  1968  1984  303F               	movlw	-193
  1969  1985  0597               	andwf	23,f	;volatile
  1970  1986                     l3782:
  1971                           
  1972                           ;master_main_dar-alv.c: 401:     CCP1CONbits.CCP1M = 0b1100;
  1973  1986  0817               	movf	23,w	;volatile
  1974  1987  39F0               	andlw	-16
  1975  1988  380C               	iorlw	12
  1976  1989  0097               	movwf	23	;volatile
  1977  198A                     l3784:
  1978                           
  1979                           ;master_main_dar-alv.c: 402:     CCP2CONbits.CCP2M = 0b1100;
  1980  198A  081D               	movf	29,w	;volatile
  1981  198B  39F0               	andlw	-16
  1982  198C  380C               	iorlw	12
  1983  198D  009D               	movwf	29	;volatile
  1984  198E                     l3786:
  1985                           
  1986                           ;master_main_dar-alv.c: 404:     CCPR1L = 155>>2;
  1987  198E  3026               	movlw	38
  1988  198F  0095               	movwf	21	;volatile
  1989  1990                     l3788:
  1990                           
  1991                           ;master_main_dar-alv.c: 405:     CCP1CONbits.DC1B = 155 & 0b11;
  1992  1990  3030               	movlw	48
  1993  1991  0497               	iorwf	23,f	;volatile
  1994  1992                     l3790:
  1995                           
  1996                           ;master_main_dar-alv.c: 406:     CCPR2L = 155>>2;
  1997  1992  3026               	movlw	38
  1998  1993  009B               	movwf	27	;volatile
  1999  1994                     l3792:
  2000                           
  2001                           ;master_main_dar-alv.c: 407:     CCP2CONbits.DC2B0 = 155 & 0b01;
  2002  1994  161D               	bsf	29,4	;volatile
  2003  1995                     l3794:
  2004                           
  2005                           ;master_main_dar-alv.c: 408:     CCP2CONbits.DC2B1 = 155 & 0b10;
  2006  1995  129D               	bcf	29,5	;volatile
  2007  1996                     l3796:
  2008                           
  2009                           ;master_main_dar-alv.c: 411:     T2CONbits.T2CKPS = 0b11;
  2010  1996  3003               	movlw	3
  2011  1997  0492               	iorwf	18,f	;volatile
  2012  1998                     l3798:
  2013                           
  2014                           ;master_main_dar-alv.c: 412:     PIR1bits.TMR2IF = 0;
  2015  1998  108C               	bcf	12,1	;volatile
  2016  1999                     l3800:
  2017                           
  2018                           ;master_main_dar-alv.c: 413:     T2CONbits.TMR2ON = 1;
  2019  1999  1512               	bsf	18,2	;volatile
  2020  199A                     l240:	
  2021                           ;master_main_dar-alv.c: 414:     while(!PIR1bits.TMR2IF);
  2022                           
  2023  199A  1C8C               	btfss	12,1	;volatile
  2024  199B  299D               	goto	u6051
  2025  199C  299E               	goto	u6050
  2026  199D                     u6051:
  2027  199D  299A               	goto	l240
  2028  199E                     u6050:
  2029  199E                     l242:
  2030                           
  2031                           ;master_main_dar-alv.c: 415:     PIR1bits.TMR2IF = 0;
  2032  199E  108C               	bcf	12,1	;volatile
  2033                           
  2034                           ;master_main_dar-alv.c: 417:     TRISCbits.TRISC1 = 0;
  2035  199F  1683               	bsf	3,5	;RP0=1, select bank1
  2036  19A0  1303               	bcf	3,6	;RP1=0, select bank1
  2037  19A1  1087               	bcf	7,1	;volatile
  2038                           
  2039                           ;master_main_dar-alv.c: 418:     TRISCbits.TRISC2 = 0;
  2040  19A2  1107               	bcf	7,2	;volatile
  2041                           
  2042                           ;master_main_dar-alv.c: 421:     TXSTAbits.SYNC = 0;
  2043  19A3  1218               	bcf	24,4	;volatile
  2044                           
  2045                           ;master_main_dar-alv.c: 422:     TXSTAbits.BRGH = 1;
  2046  19A4  1518               	bsf	24,2	;volatile
  2047                           
  2048                           ;master_main_dar-alv.c: 423:     BAUDCTLbits.BRG16 = 1;
  2049  19A5  1683               	bsf	3,5	;RP0=1, select bank3
  2050  19A6  1703               	bsf	3,6	;RP1=1, select bank3
  2051  19A7  1587               	bsf	7,3	;volatile
  2052  19A8                     l3802:
  2053                           
  2054                           ;master_main_dar-alv.c: 424:     SPBRGH = 0;
  2055  19A8  1683               	bsf	3,5	;RP0=1, select bank1
  2056  19A9  1303               	bcf	3,6	;RP1=0, select bank1
  2057  19AA  019A               	clrf	26	;volatile
  2058  19AB                     l3804:
  2059                           
  2060                           ;master_main_dar-alv.c: 425:     SPBRG = 25;
  2061  19AB  3019               	movlw	25
  2062  19AC  0099               	movwf	25	;volatile
  2063  19AD                     l3806:
  2064                           
  2065                           ;master_main_dar-alv.c: 426:     RCSTAbits.SPEN = 1;
  2066  19AD  1283               	bcf	3,5	;RP0=0, select bank0
  2067  19AE  1303               	bcf	3,6	;RP1=0, select bank0
  2068  19AF  1798               	bsf	24,7	;volatile
  2069  19B0                     l3808:
  2070                           
  2071                           ;master_main_dar-alv.c: 427:     TXSTAbits.TXEN = 1;
  2072  19B0  1683               	bsf	3,5	;RP0=1, select bank1
  2073  19B1  1303               	bcf	3,6	;RP1=0, select bank1
  2074  19B2  1698               	bsf	24,5	;volatile
  2075  19B3                     l3810:
  2076                           
  2077                           ;master_main_dar-alv.c: 428:     TXSTAbits.TX9 = 1;
  2078  19B3  1718               	bsf	24,6	;volatile
  2079  19B4                     l3812:
  2080                           
  2081                           ;master_main_dar-alv.c: 429:     RCSTAbits.CREN = 1;
  2082  19B4  1283               	bcf	3,5	;RP0=0, select bank0
  2083  19B5  1303               	bcf	3,6	;RP1=0, select bank0
  2084  19B6  1618               	bsf	24,4	;volatile
  2085  19B7                     l3814:
  2086                           
  2087                           ;master_main_dar-alv.c: 430:     PIE1bits.RCIE = 1;
  2088  19B7  1683               	bsf	3,5	;RP0=1, select bank1
  2089  19B8  1303               	bcf	3,6	;RP1=0, select bank1
  2090  19B9  168C               	bsf	12,5	;volatile
  2091  19BA                     l243:
  2092  19BA  0008               	return
  2093  19BB                     __end_of_setup:
  2094                           
  2095                           	psect	text2
  2096  1139                     __ptext2:	
  2097 ;; *************** function _map *****************
  2098 ;; Defined at:
  2099 ;;		line 435 in file "master_main_dar-alv.c"
  2100 ;; Parameters:    Size  Location     Type
  2101 ;;  x               1    wreg     unsigned char 
  2102 ;;  x0              1   65[BANK3 ] unsigned char 
  2103 ;;  x1              1   66[BANK3 ] unsigned char 
  2104 ;;  y0              2   67[BANK3 ] unsigned short 
  2105 ;;  y1              2   69[BANK3 ] unsigned short 
  2106 ;; Auto vars:     Size  Location     Type
  2107 ;;  x               1   71[BANK3 ] unsigned char 
  2108 ;; Return value:  Size  Location     Type
  2109 ;;                  2   65[BANK3 ] unsigned short 
  2110 ;; Registers used:
  2111 ;;		wreg, status,2, status,0, btemp+1, pclath, cstack
  2112 ;; Tracked objects:
  2113 ;;		On entry : 0/0
  2114 ;;		On exit  : 0/0
  2115 ;;		Unchanged: 0/0
  2116 ;; Data sizes:     COMMON   BANK0   BANK1   BANK3   BANK2
  2117 ;;      Params:         0       0       0       6       0
  2118 ;;      Locals:         0       0       0       1       0
  2119 ;;      Temps:          0       0       0       0       0
  2120 ;;      Totals:         0       0       0       7       0
  2121 ;;Total ram usage:        7 bytes
  2122 ;; Hardware stack levels used: 1
  2123 ;; Hardware stack levels required when called: 6
  2124 ;; This function calls:
  2125 ;;		___fladd
  2126 ;;		___fldiv
  2127 ;;		___flmul
  2128 ;;		___fltol
  2129 ;;		___xxtofl
  2130 ;; This function is called by:
  2131 ;;		_main
  2132 ;; This function uses a non-reentrant model
  2133 ;;
  2134                           
  2135  1139                     _map:	
  2136                           ;psect for function _map
  2137                           
  2138                           
  2139                           ;incstack = 0
  2140                           ; Regs used in _map: [wreg+status,2+status,0+btemp+1+pclath+cstack]
  2141                           ;map@x stored from wreg
  2142  1139  1683               	bsf	3,5	;RP0=1, select bank3
  2143  113A  1703               	bsf	3,6	;RP1=1, select bank3
  2144  113B  00D7               	movwf	map@x^(0+384)
  2145  113C                     l4444:
  2146                           
  2147                           ;master_main_dar-alv.c: 435: unsigned short map(uint8_t x, uint8_t x0, uint8_t x1,;maste
      +                          r_main_dar-alv.c: 436:             unsigned short y0, unsigned short y1){;master_main_da
      +                          r-alv.c: 437:     return (unsigned short)(y0+((float)(y1-y0)/(x1-x0))*(x-x0));
  2148  113C  0853               	movf	map@y0^(0+384),w
  2149  113D  1683               	bsf	3,5	;RP0=1, select bank1
  2150  113E  1303               	bcf	3,6	;RP1=0, select bank1
  2151  113F  00B0               	movwf	___xxtofl@val^(0+128)
  2152  1140  1683               	bsf	3,5	;RP0=1, select bank3
  2153  1141  1703               	bsf	3,6	;RP1=1, select bank3
  2154  1142  0854               	movf	(map@y0+1)^(0+384),w
  2155  1143  1683               	bsf	3,5	;RP0=1, select bank1
  2156  1144  1303               	bcf	3,6	;RP1=0, select bank1
  2157  1145  00B1               	movwf	(___xxtofl@val^(0+128)+1)
  2158  1146  01B2               	clrf	(___xxtofl@val^(0+128)+2)
  2159  1147  01B3               	clrf	(___xxtofl@val^(0+128)+3)
  2160  1148  3000               	movlw	0
  2161  1149  160A  118A  207D  160A  118A  	fcall	___xxtofl
  2162  114E  1683               	bsf	3,5	;RP0=1, select bank1
  2163  114F  1303               	bcf	3,6	;RP1=0, select bank1
  2164  1150  0833               	movf	(?___xxtofl+3)^(0+128),w
  2165  1151  1683               	bsf	3,5	;RP0=1, select bank3
  2166  1152  1703               	bsf	3,6	;RP1=1, select bank3
  2167  1153  00B9               	movwf	(___fladd@a+3)^(0+384)
  2168  1154  1683               	bsf	3,5	;RP0=1, select bank1
  2169  1155  1303               	bcf	3,6	;RP1=0, select bank1
  2170  1156  0832               	movf	(?___xxtofl+2)^(0+128),w
  2171  1157  1683               	bsf	3,5	;RP0=1, select bank3
  2172  1158  1703               	bsf	3,6	;RP1=1, select bank3
  2173  1159  00B8               	movwf	(___fladd@a+2)^(0+384)
  2174  115A  1683               	bsf	3,5	;RP0=1, select bank1
  2175  115B  1303               	bcf	3,6	;RP1=0, select bank1
  2176  115C  0831               	movf	(?___xxtofl+1)^(0+128),w
  2177  115D  1683               	bsf	3,5	;RP0=1, select bank3
  2178  115E  1703               	bsf	3,6	;RP1=1, select bank3
  2179  115F  00B7               	movwf	(___fladd@a+1)^(0+384)
  2180  1160  1683               	bsf	3,5	;RP0=1, select bank1
  2181  1161  1303               	bcf	3,6	;RP1=0, select bank1
  2182  1162  0830               	movf	?___xxtofl^(0+128),w
  2183  1163  1683               	bsf	3,5	;RP0=1, select bank3
  2184  1164  1703               	bsf	3,6	;RP1=1, select bank3
  2185  1165  00B6               	movwf	___fladd@a^(0+384)
  2186  1166  0853               	movf	map@y0^(0+384),w
  2187  1167  0255               	subwf	map@y1^(0+384),w
  2188  1168  1683               	bsf	3,5	;RP0=1, select bank1
  2189  1169  1303               	bcf	3,6	;RP1=0, select bank1
  2190  116A  00B0               	movwf	___xxtofl@val^(0+128)
  2191  116B  1683               	bsf	3,5	;RP0=1, select bank3
  2192  116C  1703               	bsf	3,6	;RP1=1, select bank3
  2193  116D  0854               	movf	(map@y0+1)^(0+384),w
  2194  116E  1C03               	skipc
  2195  116F  0A54               	incf	(map@y0+1)^(0+384),w
  2196  1170  0256               	subwf	(map@y1+1)^(0+384),w
  2197  1171  1683               	bsf	3,5	;RP0=1, select bank1
  2198  1172  1303               	bcf	3,6	;RP1=0, select bank1
  2199  1173  00B1               	movwf	(___xxtofl@val+1)^(0+128)
  2200  1174  01B2               	clrf	(___xxtofl@val+2)^(0+128)
  2201  1175  01B3               	clrf	(___xxtofl@val+3)^(0+128)
  2202  1176  3000               	movlw	0
  2203  1177  160A  118A  207D  160A  118A  	fcall	___xxtofl
  2204  117C  1683               	bsf	3,5	;RP0=1, select bank1
  2205  117D  1303               	bcf	3,6	;RP1=0, select bank1
  2206  117E  0833               	movf	(?___xxtofl+3)^(0+128),w
  2207  117F  00C5               	movwf	(___fldiv@b+3)^(0+128)
  2208  1180  0832               	movf	(?___xxtofl+2)^(0+128),w
  2209  1181  00C4               	movwf	(___fldiv@b+2)^(0+128)
  2210  1182  0831               	movf	(?___xxtofl+1)^(0+128),w
  2211  1183  00C3               	movwf	(___fldiv@b+1)^(0+128)
  2212  1184  0830               	movf	?___xxtofl^(0+128),w
  2213  1185  00C2               	movwf	___fldiv@b^(0+128)
  2214  1186  1683               	bsf	3,5	;RP0=1, select bank3
  2215  1187  1703               	bsf	3,6	;RP1=1, select bank3
  2216  1188  0851               	movf	map@x0^(0+384),w
  2217  1189  0252               	subwf	map@x1^(0+384),w
  2218  118A  1683               	bsf	3,5	;RP0=1, select bank1
  2219  118B  1303               	bcf	3,6	;RP1=0, select bank1
  2220  118C  00B0               	movwf	___xxtofl@val^(0+128)
  2221  118D  01B1               	clrf	(___xxtofl@val^(0+128)+1)
  2222  118E  1C03               	skipc
  2223  118F  03B1               	decf	(___xxtofl@val+1)^(0+128),f
  2224  1190  01B2               	clrf	(___xxtofl@val^(0+128)+2)
  2225  1191  1BB1               	btfsc	(___xxtofl@val^(0+128)+1),7
  2226  1192  03B2               	decf	(___xxtofl@val+2)^(0+128),f
  2227  1193  0832               	movf	(___xxtofl@val^(0+128)+2),w
  2228  1194  00B3               	movwf	(___xxtofl@val+3)^(0+128)
  2229  1195  3001               	movlw	1
  2230  1196  160A  118A  207D  160A  118A  	fcall	___xxtofl
  2231  119B  1683               	bsf	3,5	;RP0=1, select bank1
  2232  119C  1303               	bcf	3,6	;RP1=0, select bank1
  2233  119D  0833               	movf	(?___xxtofl+3)^(0+128),w
  2234  119E  00C1               	movwf	(___fldiv@a+3)^(0+128)
  2235  119F  0832               	movf	(?___xxtofl+2)^(0+128),w
  2236  11A0  00C0               	movwf	(___fldiv@a+2)^(0+128)
  2237  11A1  0831               	movf	(?___xxtofl+1)^(0+128),w
  2238  11A2  00BF               	movwf	(___fldiv@a+1)^(0+128)
  2239  11A3  0830               	movf	?___xxtofl^(0+128),w
  2240  11A4  00BE               	movwf	___fldiv@a^(0+128)
  2241  11A5  120A  158A  20B9  160A  118A  	fcall	___fldiv
  2242  11AA  1683               	bsf	3,5	;RP0=1, select bank1
  2243  11AB  1303               	bcf	3,6	;RP1=0, select bank1
  2244  11AC  0841               	movf	(?___fldiv+3)^(0+128),w
  2245  11AD  1683               	bsf	3,5	;RP0=1, select bank3
  2246  11AE  1703               	bsf	3,6	;RP1=1, select bank3
  2247  11AF  00A4               	movwf	(___flmul@a+3)^(0+384)
  2248  11B0  1683               	bsf	3,5	;RP0=1, select bank1
  2249  11B1  1303               	bcf	3,6	;RP1=0, select bank1
  2250  11B2  0840               	movf	(?___fldiv+2)^(0+128),w
  2251  11B3  1683               	bsf	3,5	;RP0=1, select bank3
  2252  11B4  1703               	bsf	3,6	;RP1=1, select bank3
  2253  11B5  00A3               	movwf	(___flmul@a+2)^(0+384)
  2254  11B6  1683               	bsf	3,5	;RP0=1, select bank1
  2255  11B7  1303               	bcf	3,6	;RP1=0, select bank1
  2256  11B8  083F               	movf	(?___fldiv+1)^(0+128),w
  2257  11B9  1683               	bsf	3,5	;RP0=1, select bank3
  2258  11BA  1703               	bsf	3,6	;RP1=1, select bank3
  2259  11BB  00A2               	movwf	(___flmul@a+1)^(0+384)
  2260  11BC  1683               	bsf	3,5	;RP0=1, select bank1
  2261  11BD  1303               	bcf	3,6	;RP1=0, select bank1
  2262  11BE  083E               	movf	?___fldiv^(0+128),w
  2263  11BF  1683               	bsf	3,5	;RP0=1, select bank3
  2264  11C0  1703               	bsf	3,6	;RP1=1, select bank3
  2265  11C1  00A1               	movwf	___flmul@a^(0+384)
  2266  11C2  0851               	movf	map@x0^(0+384),w
  2267  11C3  0257               	subwf	map@x^(0+384),w
  2268  11C4  1683               	bsf	3,5	;RP0=1, select bank1
  2269  11C5  1303               	bcf	3,6	;RP1=0, select bank1
  2270  11C6  00B0               	movwf	___xxtofl@val^(0+128)
  2271  11C7  01B1               	clrf	(___xxtofl@val^(0+128)+1)
  2272  11C8  1C03               	skipc
  2273  11C9  03B1               	decf	(___xxtofl@val+1)^(0+128),f
  2274  11CA  01B2               	clrf	(___xxtofl@val^(0+128)+2)
  2275  11CB  1BB1               	btfsc	(___xxtofl@val^(0+128)+1),7
  2276  11CC  03B2               	decf	(___xxtofl@val+2)^(0+128),f
  2277  11CD  0832               	movf	(___xxtofl@val^(0+128)+2),w
  2278  11CE  00B3               	movwf	(___xxtofl@val+3)^(0+128)
  2279  11CF  3001               	movlw	1
  2280  11D0  160A  118A  207D  160A  118A  	fcall	___xxtofl
  2281  11D5  1683               	bsf	3,5	;RP0=1, select bank1
  2282  11D6  1303               	bcf	3,6	;RP1=0, select bank1
  2283  11D7  0833               	movf	(?___xxtofl+3)^(0+128),w
  2284  11D8  1683               	bsf	3,5	;RP0=1, select bank3
  2285  11D9  1703               	bsf	3,6	;RP1=1, select bank3
  2286  11DA  00A0               	movwf	(___flmul@b+3)^(0+384)
  2287  11DB  1683               	bsf	3,5	;RP0=1, select bank1
  2288  11DC  1303               	bcf	3,6	;RP1=0, select bank1
  2289  11DD  0832               	movf	(?___xxtofl+2)^(0+128),w
  2290  11DE  1683               	bsf	3,5	;RP0=1, select bank3
  2291  11DF  1703               	bsf	3,6	;RP1=1, select bank3
  2292  11E0  009F               	movwf	(___flmul@b+2)^(0+384)
  2293  11E1  1683               	bsf	3,5	;RP0=1, select bank1
  2294  11E2  1303               	bcf	3,6	;RP1=0, select bank1
  2295  11E3  0831               	movf	(?___xxtofl+1)^(0+128),w
  2296  11E4  1683               	bsf	3,5	;RP0=1, select bank3
  2297  11E5  1703               	bsf	3,6	;RP1=1, select bank3
  2298  11E6  009E               	movwf	(___flmul@b+1)^(0+384)
  2299  11E7  1683               	bsf	3,5	;RP0=1, select bank1
  2300  11E8  1303               	bcf	3,6	;RP1=0, select bank1
  2301  11E9  0830               	movf	?___xxtofl^(0+128),w
  2302  11EA  1683               	bsf	3,5	;RP0=1, select bank3
  2303  11EB  1703               	bsf	3,6	;RP1=1, select bank3
  2304  11EC  009D               	movwf	___flmul@b^(0+384)
  2305  11ED  120A  118A  2057  160A  118A  	fcall	___flmul
  2306  11F2  1683               	bsf	3,5	;RP0=1, select bank3
  2307  11F3  1703               	bsf	3,6	;RP1=1, select bank3
  2308  11F4  0820               	movf	(?___flmul+3)^(0+384),w
  2309  11F5  00B5               	movwf	(___fladd@b+3)^(0+384)
  2310  11F6  081F               	movf	(?___flmul+2)^(0+384),w
  2311  11F7  00B4               	movwf	(___fladd@b+2)^(0+384)
  2312  11F8  081E               	movf	(?___flmul+1)^(0+384),w
  2313  11F9  00B3               	movwf	(___fladd@b+1)^(0+384)
  2314  11FA  081D               	movf	?___flmul^(0+384),w
  2315  11FB  00B2               	movwf	___fladd@b^(0+384)
  2316  11FC  160A  118A  2217  160A  118A  	fcall	___fladd
  2317  1201  1683               	bsf	3,5	;RP0=1, select bank3
  2318  1202  1703               	bsf	3,6	;RP1=1, select bank3
  2319  1203  0835               	movf	(?___fladd+3)^(0+384),w
  2320  1204  00C9               	movwf	(___fltol@f1+3)^(0+384)
  2321  1205  0834               	movf	(?___fladd+2)^(0+384),w
  2322  1206  00C8               	movwf	(___fltol@f1+2)^(0+384)
  2323  1207  0833               	movf	(?___fladd+1)^(0+384),w
  2324  1208  00C7               	movwf	(___fltol@f1+1)^(0+384)
  2325  1209  0832               	movf	?___fladd^(0+384),w
  2326  120A  00C6               	movwf	___fltol@f1^(0+384)
  2327  120B  160A  118A  2001  160A  118A  	fcall	___fltol
  2328  1210  1683               	bsf	3,5	;RP0=1, select bank3
  2329  1211  1703               	bsf	3,6	;RP1=1, select bank3
  2330  1212  0847               	movf	(?___fltol+1)^(0+384),w
  2331  1213  00D2               	movwf	(?_map+1)^(0+384)
  2332  1214  0846               	movf	?___fltol^(0+384),w
  2333  1215  00D1               	movwf	?_map^(0+384)
  2334  1216                     l246:
  2335  1216  0008               	return
  2336  1217                     __end_of_map:
  2337                           
  2338                           	psect	text3
  2339  107D                     __ptext3:	
  2340 ;; *************** function ___xxtofl *****************
  2341 ;; Defined at:
  2342 ;;		line 10 in file "C:\Program Files\Microchip\xc8\v2.35\pic\sources\c90\common\xxtofl.c"
  2343 ;; Parameters:    Size  Location     Type
  2344 ;;  sign            1    wreg     unsigned char 
  2345 ;;  val             4   16[BANK1 ] long 
  2346 ;; Auto vars:     Size  Location     Type
  2347 ;;  sign            1   24[BANK1 ] unsigned char 
  2348 ;;  arg             4   26[BANK1 ] unsigned long 
  2349 ;;  exp             1   25[BANK1 ] unsigned char 
  2350 ;; Return value:  Size  Location     Type
  2351 ;;                  4   16[BANK1 ] unsigned char 
  2352 ;; Registers used:
  2353 ;;		wreg, status,2, status,0
  2354 ;; Tracked objects:
  2355 ;;		On entry : 0/0
  2356 ;;		On exit  : 0/0
  2357 ;;		Unchanged: 0/0
  2358 ;; Data sizes:     COMMON   BANK0   BANK1   BANK3   BANK2
  2359 ;;      Params:         0       0       4       0       0
  2360 ;;      Locals:         0       0       6       0       0
  2361 ;;      Temps:          0       0       4       0       0
  2362 ;;      Totals:         0       0      14       0       0
  2363 ;;Total ram usage:       14 bytes
  2364 ;; Hardware stack levels used: 1
  2365 ;; Hardware stack levels required when called: 4
  2366 ;; This function calls:
  2367 ;;		Nothing
  2368 ;; This function is called by:
  2369 ;;		_map
  2370 ;; This function uses a non-reentrant model
  2371 ;;
  2372                           
  2373  107D                     ___xxtofl:	
  2374                           ;psect for function ___xxtofl
  2375                           
  2376                           
  2377                           ;incstack = 0
  2378                           ; Regs used in ___xxtofl: [wreg+status,2+status,0]
  2379                           ;___xxtofl@sign stored from wreg
  2380  107D  1683               	bsf	3,5	;RP0=1, select bank1
  2381  107E  1303               	bcf	3,6	;RP1=0, select bank1
  2382  107F  00B8               	movwf	___xxtofl@sign^(0+128)
  2383  1080                     l3062:
  2384  1080  0838               	movf	___xxtofl@sign^(0+128),w
  2385  1081  1903               	btfsc	3,2
  2386  1082  2884               	goto	u4551
  2387  1083  2885               	goto	u4550
  2388  1084                     u4551:
  2389  1084  2899               	goto	l3068
  2390  1085                     u4550:
  2391  1085                     l3064:
  2392  1085  1FB3               	btfss	(___xxtofl@val+3)^(0+128),7
  2393  1086  2888               	goto	u4561
  2394  1087  2889               	goto	u4560
  2395  1088                     u4561:
  2396  1088  2899               	goto	l3068
  2397  1089                     u4560:
  2398  1089                     l3066:
  2399  1089  0930               	comf	___xxtofl@val^(0+128),w
  2400  108A  00BA               	movwf	___xxtofl@arg^(0+128)
  2401  108B  0931               	comf	(___xxtofl@val^(0+128)+1),w
  2402  108C  00BB               	movwf	(___xxtofl@arg+1)^(0+128)
  2403  108D  0932               	comf	(___xxtofl@val^(0+128)+2),w
  2404  108E  00BC               	movwf	(___xxtofl@arg+2)^(0+128)
  2405  108F  0933               	comf	(___xxtofl@val^(0+128)+3),w
  2406  1090  00BD               	movwf	(___xxtofl@arg+3)^(0+128)
  2407  1091  0ABA               	incf	___xxtofl@arg^(0+128),f
  2408  1092  1903               	skipnz
  2409  1093  0ABB               	incf	(___xxtofl@arg+1)^(0+128),f
  2410  1094  1903               	skipnz
  2411  1095  0ABC               	incf	(___xxtofl@arg+2)^(0+128),f
  2412  1096  1903               	skipnz
  2413  1097  0ABD               	incf	(___xxtofl@arg+3)^(0+128),f
  2414  1098  28A1               	goto	l777
  2415  1099                     l3068:
  2416  1099  0833               	movf	(___xxtofl@val+3)^(0+128),w
  2417  109A  00BD               	movwf	(___xxtofl@arg+3)^(0+128)
  2418  109B  0832               	movf	(___xxtofl@val+2)^(0+128),w
  2419  109C  00BC               	movwf	(___xxtofl@arg+2)^(0+128)
  2420  109D  0831               	movf	(___xxtofl@val+1)^(0+128),w
  2421  109E  00BB               	movwf	(___xxtofl@arg+1)^(0+128)
  2422  109F  0830               	movf	___xxtofl@val^(0+128),w
  2423  10A0  00BA               	movwf	___xxtofl@arg^(0+128)
  2424  10A1                     l777:
  2425  10A1  0833               	movf	(___xxtofl@val+3)^(0+128),w
  2426  10A2  0432               	iorwf	(___xxtofl@val+2)^(0+128),w
  2427  10A3  0431               	iorwf	(___xxtofl@val+1)^(0+128),w
  2428  10A4  0430               	iorwf	___xxtofl@val^(0+128),w
  2429  10A5  1D03               	skipz
  2430  10A6  28A8               	goto	u4571
  2431  10A7  28A9               	goto	u4570
  2432  10A8                     u4571:
  2433  10A8  28B2               	goto	l3074
  2434  10A9                     u4570:
  2435  10A9                     l3070:
  2436  10A9  3000               	movlw	0
  2437  10AA  00B3               	movwf	(?___xxtofl+3)^(0+128)
  2438  10AB  3000               	movlw	0
  2439  10AC  00B2               	movwf	(?___xxtofl+2)^(0+128)
  2440  10AD  3000               	movlw	0
  2441  10AE  00B1               	movwf	(?___xxtofl+1)^(0+128)
  2442  10AF  3000               	movlw	0
  2443  10B0  00B0               	movwf	?___xxtofl^(0+128)
  2444  10B1  2938               	goto	l779
  2445  10B2                     l3074:
  2446  10B2  3096               	movlw	150
  2447  10B3  00B4               	movwf	??___xxtofl^(0+128)
  2448  10B4  0834               	movf	??___xxtofl^(0+128),w
  2449  10B5  00B9               	movwf	___xxtofl@exp^(0+128)
  2450  10B6  28C4               	goto	l3078
  2451  10B7                     l3076:
  2452  10B7  3001               	movlw	1
  2453  10B8  00B4               	movwf	??___xxtofl^(0+128)
  2454  10B9  0834               	movf	??___xxtofl^(0+128),w
  2455  10BA  07B9               	addwf	___xxtofl@exp^(0+128),f
  2456  10BB  3001               	movlw	1
  2457  10BC                     u4585:
  2458  10BC  1003               	clrc
  2459  10BD  0CBD               	rrf	(___xxtofl@arg+3)^(0+128),f
  2460  10BE  0CBC               	rrf	(___xxtofl@arg+2)^(0+128),f
  2461  10BF  0CBB               	rrf	(___xxtofl@arg+1)^(0+128),f
  2462  10C0  0CBA               	rrf	___xxtofl@arg^(0+128),f
  2463  10C1  3EFF               	addlw	-1
  2464  10C2  1D03               	skipz
  2465  10C3  28BC               	goto	u4585
  2466  10C4                     l3078:
  2467  10C4  30FE               	movlw	254
  2468  10C5  053D               	andwf	(___xxtofl@arg+3)^(0+128),w
  2469  10C6  1D03               	btfss	3,2
  2470  10C7  28C9               	goto	u4591
  2471  10C8  28CA               	goto	u4590
  2472  10C9                     u4591:
  2473  10C9  28B7               	goto	l3076
  2474  10CA                     u4590:
  2475  10CA  28E6               	goto	l783
  2476  10CB                     l3080:
  2477  10CB  3001               	movlw	1
  2478  10CC  00B4               	movwf	??___xxtofl^(0+128)
  2479  10CD  0834               	movf	??___xxtofl^(0+128),w
  2480  10CE  07B9               	addwf	___xxtofl@exp^(0+128),f
  2481  10CF                     l3082:
  2482  10CF  3001               	movlw	1
  2483  10D0  07BA               	addwf	___xxtofl@arg^(0+128),f
  2484  10D1  3000               	movlw	0
  2485  10D2  1803               	skipnc
  2486  10D3  3001               	movlw	1
  2487  10D4  07BB               	addwf	(___xxtofl@arg+1)^(0+128),f
  2488  10D5  3000               	movlw	0
  2489  10D6  1803               	skipnc
  2490  10D7  3001               	movlw	1
  2491  10D8  07BC               	addwf	(___xxtofl@arg+2)^(0+128),f
  2492  10D9  3000               	movlw	0
  2493  10DA  1803               	skipnc
  2494  10DB  3001               	movlw	1
  2495  10DC  07BD               	addwf	(___xxtofl@arg+3)^(0+128),f
  2496  10DD                     l3084:
  2497  10DD  3001               	movlw	1
  2498  10DE                     u4605:
  2499  10DE  1003               	clrc
  2500  10DF  0CBD               	rrf	(___xxtofl@arg+3)^(0+128),f
  2501  10E0  0CBC               	rrf	(___xxtofl@arg+2)^(0+128),f
  2502  10E1  0CBB               	rrf	(___xxtofl@arg+1)^(0+128),f
  2503  10E2  0CBA               	rrf	___xxtofl@arg^(0+128),f
  2504  10E3  3EFF               	addlw	-1
  2505  10E4  1D03               	skipz
  2506  10E5  28DE               	goto	u4605
  2507  10E6                     l783:
  2508  10E6  30FF               	movlw	255
  2509  10E7  053D               	andwf	(___xxtofl@arg+3)^(0+128),w
  2510  10E8  1D03               	btfss	3,2
  2511  10E9  28EB               	goto	u4611
  2512  10EA  28EC               	goto	u4610
  2513  10EB                     u4611:
  2514  10EB  28CB               	goto	l3080
  2515  10EC                     u4610:
  2516  10EC  28F8               	goto	l3088
  2517  10ED                     l3086:
  2518  10ED  3001               	movlw	1
  2519  10EE  02B9               	subwf	___xxtofl@exp^(0+128),f
  2520  10EF  3001               	movlw	1
  2521  10F0  00B4               	movwf	??___xxtofl^(0+128)
  2522  10F1                     u4625:
  2523  10F1  1003               	clrc
  2524  10F2  0DBA               	rlf	___xxtofl@arg^(0+128),f
  2525  10F3  0DBB               	rlf	(___xxtofl@arg+1)^(0+128),f
  2526  10F4  0DBC               	rlf	(___xxtofl@arg+2)^(0+128),f
  2527  10F5  0DBD               	rlf	(___xxtofl@arg+3)^(0+128),f
  2528  10F6  0BB4               	decfsz	??___xxtofl^(0+128),f
  2529  10F7  28F1               	goto	u4625
  2530  10F8                     l3088:
  2531  10F8  1BBC               	btfsc	(___xxtofl@arg+2)^(0+128),7
  2532  10F9  28FB               	goto	u4631
  2533  10FA  28FC               	goto	u4630
  2534  10FB                     u4631:
  2535  10FB  2902               	goto	l790
  2536  10FC                     u4630:
  2537  10FC                     l3090:
  2538  10FC  3002               	movlw	2
  2539  10FD  0239               	subwf	___xxtofl@exp^(0+128),w
  2540  10FE  1803               	skipnc
  2541  10FF  2901               	goto	u4641
  2542  1100  2902               	goto	u4640
  2543  1101                     u4641:
  2544  1101  28ED               	goto	l3086
  2545  1102                     u4640:
  2546  1102                     l790:
  2547  1102  1839               	btfsc	___xxtofl@exp^(0+128),0
  2548  1103  2905               	goto	u4651
  2549  1104  2906               	goto	u4650
  2550  1105                     u4651:
  2551  1105  290E               	goto	l791
  2552  1106                     u4650:
  2553  1106                     l3092:
  2554  1106  30FF               	movlw	255
  2555  1107  05BA               	andwf	___xxtofl@arg^(0+128),f
  2556  1108  30FF               	movlw	255
  2557  1109  05BB               	andwf	(___xxtofl@arg+1)^(0+128),f
  2558  110A  307F               	movlw	127
  2559  110B  05BC               	andwf	(___xxtofl@arg+2)^(0+128),f
  2560  110C  30FF               	movlw	255
  2561  110D  05BD               	andwf	(___xxtofl@arg+3)^(0+128),f
  2562  110E                     l791:
  2563  110E  1003               	clrc
  2564  110F  0CB9               	rrf	___xxtofl@exp^(0+128),f
  2565  1110                     l3094:
  2566  1110  0839               	movf	___xxtofl@exp^(0+128),w
  2567  1111  00B4               	movwf	??___xxtofl^(0+128)
  2568  1112  01B5               	clrf	(??___xxtofl^(0+128)+1)
  2569  1113  01B6               	clrf	(??___xxtofl^(0+128)+2)
  2570  1114  01B7               	clrf	(??___xxtofl^(0+128)+3)
  2571  1115  3018               	movlw	24
  2572  1116                     u4665:
  2573  1116  1003               	clrc
  2574  1117  0DB4               	rlf	??___xxtofl^(0+128),f
  2575  1118  0DB5               	rlf	(??___xxtofl^(0+128)+1),f
  2576  1119  0DB6               	rlf	(??___xxtofl^(0+128)+2),f
  2577  111A  0DB7               	rlf	(??___xxtofl^(0+128)+3),f
  2578  111B                     u4660:
  2579  111B  3EFF               	addlw	-1
  2580  111C  1D03               	skipz
  2581  111D  2916               	goto	u4665
  2582  111E  0834               	movf	??___xxtofl^(0+128),w
  2583  111F  04BA               	iorwf	___xxtofl@arg^(0+128),f
  2584  1120  0835               	movf	(??___xxtofl+1)^(0+128),w
  2585  1121  04BB               	iorwf	(___xxtofl@arg+1)^(0+128),f
  2586  1122  0836               	movf	(??___xxtofl+2)^(0+128),w
  2587  1123  04BC               	iorwf	(___xxtofl@arg+2)^(0+128),f
  2588  1124  0837               	movf	(??___xxtofl+3)^(0+128),w
  2589  1125  04BD               	iorwf	(___xxtofl@arg+3)^(0+128),f
  2590  1126                     l3096:
  2591  1126  0838               	movf	___xxtofl@sign^(0+128),w
  2592  1127  1903               	btfsc	3,2
  2593  1128  292A               	goto	u4671
  2594  1129  292B               	goto	u4670
  2595  112A                     u4671:
  2596  112A  2930               	goto	l3102
  2597  112B                     u4670:
  2598  112B                     l3098:
  2599  112B  1FB3               	btfss	(___xxtofl@val+3)^(0+128),7
  2600  112C  292E               	goto	u4681
  2601  112D  292F               	goto	u4680
  2602  112E                     u4681:
  2603  112E  2930               	goto	l3102
  2604  112F                     u4680:
  2605  112F                     l3100:
  2606  112F  17BD               	bsf	(___xxtofl@arg^(0+128)+3),7
  2607  1130                     l3102:
  2608  1130  083D               	movf	(___xxtofl@arg+3)^(0+128),w
  2609  1131  00B3               	movwf	(?___xxtofl+3)^(0+128)
  2610  1132  083C               	movf	(___xxtofl@arg+2)^(0+128),w
  2611  1133  00B2               	movwf	(?___xxtofl+2)^(0+128)
  2612  1134  083B               	movf	(___xxtofl@arg+1)^(0+128),w
  2613  1135  00B1               	movwf	(?___xxtofl+1)^(0+128)
  2614  1136  083A               	movf	___xxtofl@arg^(0+128),w
  2615  1137  00B0               	movwf	?___xxtofl^(0+128)
  2616  1138                     l779:
  2617  1138  0008               	return
  2618  1139                     __end_of___xxtofl:
  2619                           
  2620                           	psect	text4
  2621  1001                     __ptext4:	
  2622 ;; *************** function ___fltol *****************
  2623 ;; Defined at:
  2624 ;;		line 43 in file "C:\Program Files\Microchip\xc8\v2.35\pic\sources\c90\common\fltol.c"
  2625 ;; Parameters:    Size  Location     Type
  2626 ;;  f1              4   54[BANK3 ] unsigned char 
  2627 ;; Auto vars:     Size  Location     Type
  2628 ;;  exp1            1   64[BANK3 ] unsigned char 
  2629 ;;  sign1           1   63[BANK3 ] unsigned char 
  2630 ;; Return value:  Size  Location     Type
  2631 ;;                  4   54[BANK3 ] long 
  2632 ;; Registers used:
  2633 ;;		wreg, status,2, status,0
  2634 ;; Tracked objects:
  2635 ;;		On entry : 0/0
  2636 ;;		On exit  : 0/0
  2637 ;;		Unchanged: 0/0
  2638 ;; Data sizes:     COMMON   BANK0   BANK1   BANK3   BANK2
  2639 ;;      Params:         0       0       0       4       0
  2640 ;;      Locals:         0       0       0       2       0
  2641 ;;      Temps:          0       0       0       5       0
  2642 ;;      Totals:         0       0       0      11       0
  2643 ;;Total ram usage:       11 bytes
  2644 ;; Hardware stack levels used: 1
  2645 ;; Hardware stack levels required when called: 4
  2646 ;; This function calls:
  2647 ;;		Nothing
  2648 ;; This function is called by:
  2649 ;;		_map
  2650 ;; This function uses a non-reentrant model
  2651 ;;
  2652                           
  2653  1001                     ___fltol:	
  2654                           ;psect for function ___fltol
  2655                           
  2656  1001                     l2550:	
  2657                           ;incstack = 0
  2658                           ; Regs used in ___fltol: [wreg+status,2+status,0]
  2659                           
  2660  1001  1003               	clrc
  2661  1002  1683               	bsf	3,5	;RP0=1, select bank3
  2662  1003  1703               	bsf	3,6	;RP1=1, select bank3
  2663  1004  0D48               	rlf	(___fltol@f1+2)^(0+384),w
  2664  1005  0D49               	rlf	(___fltol@f1+3)^(0+384),w
  2665  1006  00CA               	movwf	??___fltol^(0+384)
  2666  1007  084A               	movf	??___fltol^(0+384),w
  2667  1008  00D0               	movwf	___fltol@exp1^(0+384)
  2668  1009  0850               	movf	___fltol@exp1^(0+384),w
  2669  100A  1D03               	btfss	3,2
  2670  100B  280D               	goto	u3331
  2671  100C  280E               	goto	u3330
  2672  100D                     u3331:
  2673  100D  2817               	goto	l2556
  2674  100E                     u3330:
  2675  100E                     l2552:
  2676  100E  3000               	movlw	0
  2677  100F  00C9               	movwf	(?___fltol+3)^(0+384)
  2678  1010  3000               	movlw	0
  2679  1011  00C8               	movwf	(?___fltol+2)^(0+384)
  2680  1012  3000               	movlw	0
  2681  1013  00C7               	movwf	(?___fltol+1)^(0+384)
  2682  1014  3000               	movlw	0
  2683  1015  00C6               	movwf	?___fltol^(0+384)
  2684  1016  287C               	goto	l530
  2685  1017                     l2556:
  2686  1017  0846               	movf	___fltol@f1^(0+384),w
  2687  1018  00CA               	movwf	??___fltol^(0+384)
  2688  1019  0847               	movf	(___fltol@f1+1)^(0+384),w
  2689  101A  00CB               	movwf	(??___fltol^(0+384)+1)
  2690  101B  0848               	movf	(___fltol@f1+2)^(0+384),w
  2691  101C  00CC               	movwf	(??___fltol^(0+384)+2)
  2692  101D  0849               	movf	(___fltol@f1+3)^(0+384),w
  2693  101E  00CD               	movwf	(??___fltol^(0+384)+3)
  2694  101F  301F               	movlw	31
  2695  1020                     u3345:
  2696  1020  1003               	clrc
  2697  1021  0CCD               	rrf	(??___fltol^(0+384)+3),f
  2698  1022  0CCC               	rrf	(??___fltol^(0+384)+2),f
  2699  1023  0CCB               	rrf	(??___fltol^(0+384)+1),f
  2700  1024  0CCA               	rrf	??___fltol^(0+384),f
  2701  1025                     u3340:
  2702  1025  3EFF               	addlw	-1
  2703  1026  1D03               	skipz
  2704  1027  2820               	goto	u3345
  2705  1028  084A               	movf	??___fltol^(0+384),w
  2706  1029  00CE               	movwf	(??___fltol+4)^(0+384)
  2707  102A  084E               	movf	(??___fltol+4)^(0+384),w
  2708  102B  00CF               	movwf	___fltol@sign1^(0+384)
  2709  102C                     l2558:
  2710  102C  17C8               	bsf	(___fltol@f1^(0+384)+2),7
  2711  102D                     l2560:
  2712  102D  30FF               	movlw	255
  2713  102E  05C6               	andwf	___fltol@f1^(0+384),f
  2714  102F  30FF               	movlw	255
  2715  1030  05C7               	andwf	(___fltol@f1+1)^(0+384),f
  2716  1031  30FF               	movlw	255
  2717  1032  05C8               	andwf	(___fltol@f1+2)^(0+384),f
  2718  1033  3000               	movlw	0
  2719  1034  05C9               	andwf	(___fltol@f1+3)^(0+384),f
  2720  1035                     l2562:
  2721  1035  3096               	movlw	150
  2722  1036  02D0               	subwf	___fltol@exp1^(0+384),f
  2723  1037                     l2564:
  2724  1037  1FD0               	btfss	___fltol@exp1^(0+384),7
  2725  1038  283A               	goto	u3351
  2726  1039  283B               	goto	u3350
  2727  103A                     u3351:
  2728  103A  2855               	goto	l2574
  2729  103B                     u3350:
  2730  103B                     l2566:
  2731  103B  0850               	movf	___fltol@exp1^(0+384),w
  2732  103C  3A80               	xorlw	128
  2733  103D  3E97               	addlw	151
  2734  103E  1803               	skipnc
  2735  103F  2841               	goto	u3361
  2736  1040  2842               	goto	u3360
  2737  1041                     u3361:
  2738  1041  2843               	goto	l2572
  2739  1042                     u3360:
  2740  1042  280E               	goto	l2552
  2741  1043                     l2572:
  2742  1043  3001               	movlw	1
  2743  1044                     u3375:
  2744  1044  1003               	clrc
  2745  1045  0CC9               	rrf	(___fltol@f1+3)^(0+384),f
  2746  1046  0CC8               	rrf	(___fltol@f1+2)^(0+384),f
  2747  1047  0CC7               	rrf	(___fltol@f1+1)^(0+384),f
  2748  1048  0CC6               	rrf	___fltol@f1^(0+384),f
  2749  1049  3EFF               	addlw	-1
  2750  104A  1D03               	skipz
  2751  104B  2844               	goto	u3375
  2752  104C  3001               	movlw	1
  2753  104D  00CA               	movwf	??___fltol^(0+384)
  2754  104E  084A               	movf	??___fltol^(0+384),w
  2755  104F  07D0               	addwf	___fltol@exp1^(0+384),f
  2756  1050  1D03               	btfss	3,2
  2757  1051  2853               	goto	u3381
  2758  1052  2854               	goto	u3380
  2759  1053                     u3381:
  2760  1053  2843               	goto	l2572
  2761  1054                     u3380:
  2762  1054  286C               	goto	l2582
  2763  1055                     l2574:
  2764  1055  3020               	movlw	32
  2765  1056  0250               	subwf	___fltol@exp1^(0+384),w
  2766  1057  1C03               	skipc
  2767  1058  285A               	goto	u3391
  2768  1059  285B               	goto	u3390
  2769  105A                     u3391:
  2770  105A  2867               	goto	l537
  2771  105B                     u3390:
  2772  105B  280E               	goto	l2552
  2773  105C                     l2580:
  2774  105C  3001               	movlw	1
  2775  105D  00CA               	movwf	??___fltol^(0+384)
  2776  105E                     u3405:
  2777  105E  1003               	clrc
  2778  105F  0DC6               	rlf	___fltol@f1^(0+384),f
  2779  1060  0DC7               	rlf	(___fltol@f1+1)^(0+384),f
  2780  1061  0DC8               	rlf	(___fltol@f1+2)^(0+384),f
  2781  1062  0DC9               	rlf	(___fltol@f1+3)^(0+384),f
  2782  1063  0BCA               	decfsz	??___fltol^(0+384),f
  2783  1064  285E               	goto	u3405
  2784  1065  3001               	movlw	1
  2785  1066  02D0               	subwf	___fltol@exp1^(0+384),f
  2786  1067                     l537:
  2787  1067  0850               	movf	___fltol@exp1^(0+384),w
  2788  1068  1D03               	btfss	3,2
  2789  1069  286B               	goto	u3411
  2790  106A  286C               	goto	u3410
  2791  106B                     u3411:
  2792  106B  285C               	goto	l2580
  2793  106C                     u3410:
  2794  106C                     l2582:
  2795  106C  084F               	movf	___fltol@sign1^(0+384),w
  2796  106D  1903               	btfsc	3,2
  2797  106E  2870               	goto	u3421
  2798  106F  2871               	goto	u3420
  2799  1070                     u3421:
  2800  1070  287C               	goto	l540
  2801  1071                     u3420:
  2802  1071                     l2584:
  2803  1071  09C6               	comf	___fltol@f1^(0+384),f
  2804  1072  09C7               	comf	(___fltol@f1+1)^(0+384),f
  2805  1073  09C8               	comf	(___fltol@f1+2)^(0+384),f
  2806  1074  09C9               	comf	(___fltol@f1+3)^(0+384),f
  2807  1075  0AC6               	incf	___fltol@f1^(0+384),f
  2808  1076  1903               	skipnz
  2809  1077  0AC7               	incf	(___fltol@f1+1)^(0+384),f
  2810  1078  1903               	skipnz
  2811  1079  0AC8               	incf	(___fltol@f1+2)^(0+384),f
  2812  107A  1903               	skipnz
  2813  107B  0AC9               	incf	(___fltol@f1+3)^(0+384),f
  2814  107C                     l540:
  2815  107C                     l530:
  2816  107C  0008               	return
  2817  107D                     __end_of___fltol:
  2818                           
  2819                           	psect	text5
  2820  0057                     __ptext5:	
  2821 ;; *************** function ___flmul *****************
  2822 ;; Defined at:
  2823 ;;		line 8 in file "C:\Program Files\Microchip\xc8\v2.35\pic\sources\c90\common\sprcmul.c"
  2824 ;; Parameters:    Size  Location     Type
  2825 ;;  b               4   13[BANK3 ] long 
  2826 ;;  a               4   17[BANK3 ] long 
  2827 ;; Auto vars:     Size  Location     Type
  2828 ;;  prod            4   28[BANK3 ] struct .
  2829 ;;  grs             4   23[BANK3 ] unsigned long 
  2830 ;;  temp            2   32[BANK3 ] struct .
  2831 ;;  bexp            1   27[BANK3 ] unsigned char 
  2832 ;;  aexp            1   22[BANK3 ] unsigned char 
  2833 ;;  sign            1   21[BANK3 ] unsigned char 
  2834 ;; Return value:  Size  Location     Type
  2835 ;;                  4   13[BANK3 ] unsigned char 
  2836 ;; Registers used:
  2837 ;;		wreg, status,2, status,0, btemp+1, pclath, cstack
  2838 ;; Tracked objects:
  2839 ;;		On entry : 0/0
  2840 ;;		On exit  : 0/0
  2841 ;;		Unchanged: 0/0
  2842 ;; Data sizes:     COMMON   BANK0   BANK1   BANK3   BANK2
  2843 ;;      Params:         0       0       0       8       0
  2844 ;;      Locals:         0       0       0      13       0
  2845 ;;      Temps:          0       0       5       0       0
  2846 ;;      Totals:         0       0       5      21       0
  2847 ;;Total ram usage:       26 bytes
  2848 ;; Hardware stack levels used: 1
  2849 ;; Hardware stack levels required when called: 5
  2850 ;; This function calls:
  2851 ;;		__Umul8_16
  2852 ;; This function is called by:
  2853 ;;		_map
  2854 ;; This function uses a non-reentrant model
  2855 ;;
  2856                           
  2857  0057                     ___flmul:	
  2858                           ;psect for function ___flmul
  2859                           
  2860  0057                     l4304:	
  2861                           ;incstack = 0
  2862                           ; Regs used in ___flmul: [wreg+status,2+status,0+btemp+1+pclath+cstack]
  2863                           
  2864  0057  1683               	bsf	3,5	;RP0=1, select bank3
  2865  0058  1703               	bsf	3,6	;RP1=1, select bank3
  2866  0059  0820               	movf	(___flmul@b^(0+384)+3),w
  2867  005A  3980               	andlw	128
  2868  005B  1683               	bsf	3,5	;RP0=1, select bank1
  2869  005C  1303               	bcf	3,6	;RP1=0, select bank1
  2870  005D  00CB               	movwf	??___flmul^(0+128)
  2871  005E  084B               	movf	??___flmul^(0+128),w
  2872  005F  1683               	bsf	3,5	;RP0=1, select bank3
  2873  0060  1703               	bsf	3,6	;RP1=1, select bank3
  2874  0061  00A5               	movwf	___flmul@sign^(0+384)
  2875  0062                     l4306:
  2876  0062  0820               	movf	(___flmul@b^(0+384)+3),w
  2877  0063  1683               	bsf	3,5	;RP0=1, select bank1
  2878  0064  1303               	bcf	3,6	;RP1=0, select bank1
  2879  0065  00CB               	movwf	??___flmul^(0+128)
  2880  0066  074B               	addwf	??___flmul^(0+128),w
  2881  0067  00CC               	movwf	(??___flmul+1)^(0+128)
  2882  0068  084C               	movf	(??___flmul+1)^(0+128),w
  2883  0069  1683               	bsf	3,5	;RP0=1, select bank3
  2884  006A  1703               	bsf	3,6	;RP1=1, select bank3
  2885  006B  00AB               	movwf	___flmul@bexp^(0+384)
  2886  006C                     l4308:
  2887  006C  1F9F               	btfss	(___flmul@b^(0+384)+2),7
  2888  006D  286F               	goto	u6831
  2889  006E  2870               	goto	u6830
  2890  006F                     u6831:
  2891  006F  2871               	goto	l4312
  2892  0070                     u6830:
  2893  0070                     l4310:
  2894  0070  142B               	bsf	___flmul@bexp^(0+384),0
  2895  0071                     l4312:
  2896  0071  082B               	movf	___flmul@bexp^(0+384),w
  2897  0072  1903               	btfsc	3,2
  2898  0073  2875               	goto	u6841
  2899  0074  2876               	goto	u6840
  2900  0075                     u6841:
  2901  0075  2885               	goto	l4320
  2902  0076                     u6840:
  2903  0076                     l4314:
  2904  0076  0A2B               	incf	___flmul@bexp^(0+384),w
  2905  0077  1D03               	btfss	3,2
  2906  0078  287A               	goto	u6851
  2907  0079  287B               	goto	u6850
  2908  007A                     u6851:
  2909  007A  2883               	goto	l4318
  2910  007B                     u6850:
  2911  007B                     l4316:
  2912  007B  3000               	movlw	0
  2913  007C  00A0               	movwf	(___flmul@b+3)^(0+384)
  2914  007D  3000               	movlw	0
  2915  007E  009F               	movwf	(___flmul@b+2)^(0+384)
  2916  007F  3000               	movlw	0
  2917  0080  009E               	movwf	(___flmul@b+1)^(0+384)
  2918  0081  3000               	movlw	0
  2919  0082  009D               	movwf	___flmul@b^(0+384)
  2920  0083                     l4318:
  2921  0083  179F               	bsf	(___flmul@b^(0+384)+2),7
  2922  0084  288D               	goto	l4322
  2923  0085                     l4320:
  2924  0085  3000               	movlw	0
  2925  0086  00A0               	movwf	(___flmul@b+3)^(0+384)
  2926  0087  3000               	movlw	0
  2927  0088  009F               	movwf	(___flmul@b+2)^(0+384)
  2928  0089  3000               	movlw	0
  2929  008A  009E               	movwf	(___flmul@b+1)^(0+384)
  2930  008B  3000               	movlw	0
  2931  008C  009D               	movwf	___flmul@b^(0+384)
  2932  008D                     l4322:
  2933  008D  0824               	movf	(___flmul@a^(0+384)+3),w
  2934  008E  3980               	andlw	128
  2935  008F  1683               	bsf	3,5	;RP0=1, select bank1
  2936  0090  1303               	bcf	3,6	;RP1=0, select bank1
  2937  0091  00CB               	movwf	??___flmul^(0+128)
  2938  0092  084B               	movf	??___flmul^(0+128),w
  2939  0093  1683               	bsf	3,5	;RP0=1, select bank3
  2940  0094  1703               	bsf	3,6	;RP1=1, select bank3
  2941  0095  06A5               	xorwf	___flmul@sign^(0+384),f
  2942  0096                     l4324:
  2943  0096  0824               	movf	(___flmul@a^(0+384)+3),w
  2944  0097  1683               	bsf	3,5	;RP0=1, select bank1
  2945  0098  1303               	bcf	3,6	;RP1=0, select bank1
  2946  0099  00CB               	movwf	??___flmul^(0+128)
  2947  009A  074B               	addwf	??___flmul^(0+128),w
  2948  009B  00CC               	movwf	(??___flmul+1)^(0+128)
  2949  009C  084C               	movf	(??___flmul+1)^(0+128),w
  2950  009D  1683               	bsf	3,5	;RP0=1, select bank3
  2951  009E  1703               	bsf	3,6	;RP1=1, select bank3
  2952  009F  00A6               	movwf	___flmul@aexp^(0+384)
  2953  00A0                     l4326:
  2954  00A0  1FA3               	btfss	(___flmul@a^(0+384)+2),7
  2955  00A1  28A3               	goto	u6861
  2956  00A2  28A4               	goto	u6860
  2957  00A3                     u6861:
  2958  00A3  28A5               	goto	l4330
  2959  00A4                     u6860:
  2960  00A4                     l4328:
  2961  00A4  1426               	bsf	___flmul@aexp^(0+384),0
  2962  00A5                     l4330:
  2963  00A5  0826               	movf	___flmul@aexp^(0+384),w
  2964  00A6  1903               	btfsc	3,2
  2965  00A7  28A9               	goto	u6871
  2966  00A8  28AA               	goto	u6870
  2967  00A9                     u6871:
  2968  00A9  28B9               	goto	l4338
  2969  00AA                     u6870:
  2970  00AA                     l4332:
  2971  00AA  0A26               	incf	___flmul@aexp^(0+384),w
  2972  00AB  1D03               	btfss	3,2
  2973  00AC  28AE               	goto	u6881
  2974  00AD  28AF               	goto	u6880
  2975  00AE                     u6881:
  2976  00AE  28B7               	goto	l4336
  2977  00AF                     u6880:
  2978  00AF                     l4334:
  2979  00AF  3000               	movlw	0
  2980  00B0  00A4               	movwf	(___flmul@a+3)^(0+384)
  2981  00B1  3000               	movlw	0
  2982  00B2  00A3               	movwf	(___flmul@a+2)^(0+384)
  2983  00B3  3000               	movlw	0
  2984  00B4  00A2               	movwf	(___flmul@a+1)^(0+384)
  2985  00B5  3000               	movlw	0
  2986  00B6  00A1               	movwf	___flmul@a^(0+384)
  2987  00B7                     l4336:
  2988  00B7  17A3               	bsf	(___flmul@a^(0+384)+2),7
  2989  00B8  28C1               	goto	l4340
  2990  00B9                     l4338:
  2991  00B9  3000               	movlw	0
  2992  00BA  00A4               	movwf	(___flmul@a+3)^(0+384)
  2993  00BB  3000               	movlw	0
  2994  00BC  00A3               	movwf	(___flmul@a+2)^(0+384)
  2995  00BD  3000               	movlw	0
  2996  00BE  00A2               	movwf	(___flmul@a+1)^(0+384)
  2997  00BF  3000               	movlw	0
  2998  00C0  00A1               	movwf	___flmul@a^(0+384)
  2999  00C1                     l4340:
  3000  00C1  0826               	movf	___flmul@aexp^(0+384),w
  3001  00C2  1903               	btfsc	3,2
  3002  00C3  28C5               	goto	u6891
  3003  00C4  28C6               	goto	u6890
  3004  00C5                     u6891:
  3005  00C5  28CB               	goto	l4344
  3006  00C6                     u6890:
  3007  00C6                     l4342:
  3008  00C6  082B               	movf	___flmul@bexp^(0+384),w
  3009  00C7  1D03               	btfss	3,2
  3010  00C8  28CA               	goto	u6901
  3011  00C9  28CB               	goto	u6900
  3012  00CA                     u6901:
  3013  00CA  28D4               	goto	l4348
  3014  00CB                     u6900:
  3015  00CB                     l4344:
  3016  00CB  3000               	movlw	0
  3017  00CC  00A0               	movwf	(?___flmul+3)^(0+384)
  3018  00CD  3000               	movlw	0
  3019  00CE  009F               	movwf	(?___flmul+2)^(0+384)
  3020  00CF  3000               	movlw	0
  3021  00D0  009E               	movwf	(?___flmul+1)^(0+384)
  3022  00D1  3000               	movlw	0
  3023  00D2  009D               	movwf	?___flmul^(0+384)
  3024  00D3  2DAB               	goto	l733
  3025  00D4                     l4348:
  3026  00D4  081D               	movf	___flmul@b^(0+384),w
  3027  00D5  1683               	bsf	3,5	;RP0=1, select bank1
  3028  00D6  1303               	bcf	3,6	;RP1=0, select bank1
  3029  00D7  00CB               	movwf	??___flmul^(0+128)
  3030  00D8  084B               	movf	??___flmul^(0+128),w
  3031  00D9  00B0               	movwf	__Umul8_16@multiplicand^(0+128)
  3032  00DA  1683               	bsf	3,5	;RP0=1, select bank3
  3033  00DB  1703               	bsf	3,6	;RP1=1, select bank3
  3034  00DC  0823               	movf	(___flmul@a^(0+384)+2),w
  3035  00DD  160A  158A  20A9  120A  118A  	fcall	__Umul8_16
  3036  00E2  1683               	bsf	3,5	;RP0=1, select bank1
  3037  00E3  1303               	bcf	3,6	;RP1=0, select bank1
  3038  00E4  0831               	movf	(?__Umul8_16+1)^(0+128),w
  3039  00E5  1683               	bsf	3,5	;RP0=1, select bank3
  3040  00E6  1703               	bsf	3,6	;RP1=1, select bank3
  3041  00E7  00B1               	movwf	(___flmul@temp+1)^(0+384)
  3042  00E8  1683               	bsf	3,5	;RP0=1, select bank1
  3043  00E9  1303               	bcf	3,6	;RP1=0, select bank1
  3044  00EA  0830               	movf	?__Umul8_16^(0+128),w
  3045  00EB  1683               	bsf	3,5	;RP0=1, select bank3
  3046  00EC  1703               	bsf	3,6	;RP1=1, select bank3
  3047  00ED  00B0               	movwf	___flmul@temp^(0+384)
  3048  00EE                     l4350:
  3049  00EE  0830               	movf	___flmul@temp^(0+384),w
  3050  00EF  1683               	bsf	3,5	;RP0=1, select bank1
  3051  00F0  1303               	bcf	3,6	;RP1=0, select bank1
  3052  00F1  00CB               	movwf	??___flmul^(0+128)
  3053  00F2  01CC               	clrf	(??___flmul^(0+128)+1)
  3054  00F3  01CD               	clrf	(??___flmul^(0+128)+2)
  3055  00F4  01CE               	clrf	(??___flmul^(0+128)+3)
  3056  00F5  084E               	movf	(??___flmul+3)^(0+128),w
  3057  00F6  1683               	bsf	3,5	;RP0=1, select bank3
  3058  00F7  1703               	bsf	3,6	;RP1=1, select bank3
  3059  00F8  00AA               	movwf	(___flmul@grs+3)^(0+384)
  3060  00F9  1683               	bsf	3,5	;RP0=1, select bank1
  3061  00FA  1303               	bcf	3,6	;RP1=0, select bank1
  3062  00FB  084D               	movf	(??___flmul+2)^(0+128),w
  3063  00FC  1683               	bsf	3,5	;RP0=1, select bank3
  3064  00FD  1703               	bsf	3,6	;RP1=1, select bank3
  3065  00FE  00A9               	movwf	(___flmul@grs+2)^(0+384)
  3066  00FF  1683               	bsf	3,5	;RP0=1, select bank1
  3067  0100  1303               	bcf	3,6	;RP1=0, select bank1
  3068  0101  084C               	movf	(??___flmul+1)^(0+128),w
  3069  0102  1683               	bsf	3,5	;RP0=1, select bank3
  3070  0103  1703               	bsf	3,6	;RP1=1, select bank3
  3071  0104  00A8               	movwf	(___flmul@grs+1)^(0+384)
  3072  0105  1683               	bsf	3,5	;RP0=1, select bank1
  3073  0106  1303               	bcf	3,6	;RP1=0, select bank1
  3074  0107  084B               	movf	??___flmul^(0+128),w
  3075  0108  1683               	bsf	3,5	;RP0=1, select bank3
  3076  0109  1703               	bsf	3,6	;RP1=1, select bank3
  3077  010A  00A7               	movwf	___flmul@grs^(0+384)
  3078  010B                     l4352:
  3079  010B  0831               	movf	(___flmul@temp^(0+384)+1),w
  3080  010C  1683               	bsf	3,5	;RP0=1, select bank1
  3081  010D  1303               	bcf	3,6	;RP1=0, select bank1
  3082  010E  00CB               	movwf	??___flmul^(0+128)
  3083  010F  01CC               	clrf	(??___flmul^(0+128)+1)
  3084  0110  01CD               	clrf	(??___flmul^(0+128)+2)
  3085  0111  01CE               	clrf	(??___flmul^(0+128)+3)
  3086  0112  084E               	movf	(??___flmul+3)^(0+128),w
  3087  0113  1683               	bsf	3,5	;RP0=1, select bank3
  3088  0114  1703               	bsf	3,6	;RP1=1, select bank3
  3089  0115  00AF               	movwf	(___flmul@prod+3)^(0+384)
  3090  0116  1683               	bsf	3,5	;RP0=1, select bank1
  3091  0117  1303               	bcf	3,6	;RP1=0, select bank1
  3092  0118  084D               	movf	(??___flmul+2)^(0+128),w
  3093  0119  1683               	bsf	3,5	;RP0=1, select bank3
  3094  011A  1703               	bsf	3,6	;RP1=1, select bank3
  3095  011B  00AE               	movwf	(___flmul@prod+2)^(0+384)
  3096  011C  1683               	bsf	3,5	;RP0=1, select bank1
  3097  011D  1303               	bcf	3,6	;RP1=0, select bank1
  3098  011E  084C               	movf	(??___flmul+1)^(0+128),w
  3099  011F  1683               	bsf	3,5	;RP0=1, select bank3
  3100  0120  1703               	bsf	3,6	;RP1=1, select bank3
  3101  0121  00AD               	movwf	(___flmul@prod+1)^(0+384)
  3102  0122  1683               	bsf	3,5	;RP0=1, select bank1
  3103  0123  1303               	bcf	3,6	;RP1=0, select bank1
  3104  0124  084B               	movf	??___flmul^(0+128),w
  3105  0125  1683               	bsf	3,5	;RP0=1, select bank3
  3106  0126  1703               	bsf	3,6	;RP1=1, select bank3
  3107  0127  00AC               	movwf	___flmul@prod^(0+384)
  3108  0128  081E               	movf	(___flmul@b^(0+384)+1),w
  3109  0129  1683               	bsf	3,5	;RP0=1, select bank1
  3110  012A  1303               	bcf	3,6	;RP1=0, select bank1
  3111  012B  00CB               	movwf	??___flmul^(0+128)
  3112  012C  084B               	movf	??___flmul^(0+128),w
  3113  012D  00B0               	movwf	__Umul8_16@multiplicand^(0+128)
  3114  012E  1683               	bsf	3,5	;RP0=1, select bank3
  3115  012F  1703               	bsf	3,6	;RP1=1, select bank3
  3116  0130  0822               	movf	(___flmul@a^(0+384)+1),w
  3117  0131  160A  158A  20A9  120A  118A  	fcall	__Umul8_16
  3118  0136  1683               	bsf	3,5	;RP0=1, select bank1
  3119  0137  1303               	bcf	3,6	;RP1=0, select bank1
  3120  0138  0831               	movf	(?__Umul8_16+1)^(0+128),w
  3121  0139  1683               	bsf	3,5	;RP0=1, select bank3
  3122  013A  1703               	bsf	3,6	;RP1=1, select bank3
  3123  013B  00B1               	movwf	(___flmul@temp+1)^(0+384)
  3124  013C  1683               	bsf	3,5	;RP0=1, select bank1
  3125  013D  1303               	bcf	3,6	;RP1=0, select bank1
  3126  013E  0830               	movf	?__Umul8_16^(0+128),w
  3127  013F  1683               	bsf	3,5	;RP0=1, select bank3
  3128  0140  1703               	bsf	3,6	;RP1=1, select bank3
  3129  0141  00B0               	movwf	___flmul@temp^(0+384)
  3130  0142                     l4354:
  3131  0142  0830               	movf	___flmul@temp^(0+384),w
  3132  0143  1683               	bsf	3,5	;RP0=1, select bank1
  3133  0144  1303               	bcf	3,6	;RP1=0, select bank1
  3134  0145  00CB               	movwf	??___flmul^(0+128)
  3135  0146  01CC               	clrf	(??___flmul^(0+128)+1)
  3136  0147  01CD               	clrf	(??___flmul^(0+128)+2)
  3137  0148  01CE               	clrf	(??___flmul^(0+128)+3)
  3138  0149  084B               	movf	??___flmul^(0+128),w
  3139  014A  1683               	bsf	3,5	;RP0=1, select bank3
  3140  014B  1703               	bsf	3,6	;RP1=1, select bank3
  3141  014C  07A7               	addwf	___flmul@grs^(0+384),f
  3142  014D  1683               	bsf	3,5	;RP0=1, select bank1
  3143  014E  1303               	bcf	3,6	;RP1=0, select bank1
  3144  014F  084C               	movf	(??___flmul+1)^(0+128),w
  3145  0150  1103               	clrz
  3146  0151  1803               	skipnc
  3147  0152  3E01               	addlw	1
  3148  0153  1903               	skipnz
  3149  0154  2958               	goto	u6911
  3150  0155  1683               	bsf	3,5	;RP0=1, select bank3
  3151  0156  1703               	bsf	3,6	;RP1=1, select bank3
  3152  0157  07A8               	addwf	(___flmul@grs+1)^(0+384),f
  3153  0158                     u6911:
  3154  0158  1683               	bsf	3,5	;RP0=1, select bank1
  3155  0159  1303               	bcf	3,6	;RP1=0, select bank1
  3156  015A  084D               	movf	(??___flmul+2)^(0+128),w
  3157  015B  1103               	clrz
  3158  015C  1803               	skipnc
  3159  015D  3E01               	addlw	1
  3160  015E  1903               	skipnz
  3161  015F  2963               	goto	u6912
  3162  0160  1683               	bsf	3,5	;RP0=1, select bank3
  3163  0161  1703               	bsf	3,6	;RP1=1, select bank3
  3164  0162  07A9               	addwf	(___flmul@grs+2)^(0+384),f
  3165  0163                     u6912:
  3166  0163  1683               	bsf	3,5	;RP0=1, select bank1
  3167  0164  1303               	bcf	3,6	;RP1=0, select bank1
  3168  0165  084E               	movf	(??___flmul+3)^(0+128),w
  3169  0166  1103               	clrz
  3170  0167  1803               	skipnc
  3171  0168  3E01               	addlw	1
  3172  0169  1903               	skipnz
  3173  016A  296E               	goto	u6913
  3174  016B  1683               	bsf	3,5	;RP0=1, select bank3
  3175  016C  1703               	bsf	3,6	;RP1=1, select bank3
  3176  016D  07AA               	addwf	(___flmul@grs+3)^(0+384),f
  3177  016E                     u6913:
  3178  016E  1683               	bsf	3,5	;RP0=1, select bank1
  3179  016F  1303               	bcf	3,6	;RP1=0, select bank1
  3180  0170  1683               	bsf	3,5	;RP0=1, select bank3
  3181  0171  1703               	bsf	3,6	;RP1=1, select bank3
  3182  0172                     l4356:
  3183  0172  0831               	movf	(___flmul@temp^(0+384)+1),w
  3184  0173  1683               	bsf	3,5	;RP0=1, select bank1
  3185  0174  1303               	bcf	3,6	;RP1=0, select bank1
  3186  0175  00CB               	movwf	??___flmul^(0+128)
  3187  0176  01CC               	clrf	(??___flmul^(0+128)+1)
  3188  0177  01CD               	clrf	(??___flmul^(0+128)+2)
  3189  0178  01CE               	clrf	(??___flmul^(0+128)+3)
  3190  0179  084B               	movf	??___flmul^(0+128),w
  3191  017A  1683               	bsf	3,5	;RP0=1, select bank3
  3192  017B  1703               	bsf	3,6	;RP1=1, select bank3
  3193  017C  07AC               	addwf	___flmul@prod^(0+384),f
  3194  017D  1683               	bsf	3,5	;RP0=1, select bank1
  3195  017E  1303               	bcf	3,6	;RP1=0, select bank1
  3196  017F  084C               	movf	(??___flmul+1)^(0+128),w
  3197  0180  1103               	clrz
  3198  0181  1803               	skipnc
  3199  0182  3E01               	addlw	1
  3200  0183  1903               	skipnz
  3201  0184  2988               	goto	u6921
  3202  0185  1683               	bsf	3,5	;RP0=1, select bank3
  3203  0186  1703               	bsf	3,6	;RP1=1, select bank3
  3204  0187  07AD               	addwf	(___flmul@prod+1)^(0+384),f
  3205  0188                     u6921:
  3206  0188  1683               	bsf	3,5	;RP0=1, select bank1
  3207  0189  1303               	bcf	3,6	;RP1=0, select bank1
  3208  018A  084D               	movf	(??___flmul+2)^(0+128),w
  3209  018B  1103               	clrz
  3210  018C  1803               	skipnc
  3211  018D  3E01               	addlw	1
  3212  018E  1903               	skipnz
  3213  018F  2993               	goto	u6922
  3214  0190  1683               	bsf	3,5	;RP0=1, select bank3
  3215  0191  1703               	bsf	3,6	;RP1=1, select bank3
  3216  0192  07AE               	addwf	(___flmul@prod+2)^(0+384),f
  3217  0193                     u6922:
  3218  0193  1683               	bsf	3,5	;RP0=1, select bank1
  3219  0194  1303               	bcf	3,6	;RP1=0, select bank1
  3220  0195  084E               	movf	(??___flmul+3)^(0+128),w
  3221  0196  1103               	clrz
  3222  0197  1803               	skipnc
  3223  0198  3E01               	addlw	1
  3224  0199  1903               	skipnz
  3225  019A  299E               	goto	u6923
  3226  019B  1683               	bsf	3,5	;RP0=1, select bank3
  3227  019C  1703               	bsf	3,6	;RP1=1, select bank3
  3228  019D  07AF               	addwf	(___flmul@prod+3)^(0+384),f
  3229  019E                     u6923:
  3230  019E  1683               	bsf	3,5	;RP0=1, select bank1
  3231  019F  1303               	bcf	3,6	;RP1=0, select bank1
  3232  01A0  1683               	bsf	3,5	;RP0=1, select bank3
  3233  01A1  1703               	bsf	3,6	;RP1=1, select bank3
  3234  01A2  081F               	movf	(___flmul@b^(0+384)+2),w
  3235  01A3  1683               	bsf	3,5	;RP0=1, select bank1
  3236  01A4  1303               	bcf	3,6	;RP1=0, select bank1
  3237  01A5  00CB               	movwf	??___flmul^(0+128)
  3238  01A6  084B               	movf	??___flmul^(0+128),w
  3239  01A7  00B0               	movwf	__Umul8_16@multiplicand^(0+128)
  3240  01A8  1683               	bsf	3,5	;RP0=1, select bank3
  3241  01A9  1703               	bsf	3,6	;RP1=1, select bank3
  3242  01AA  0821               	movf	___flmul@a^(0+384),w
  3243  01AB  160A  158A  20A9  120A  118A  	fcall	__Umul8_16
  3244  01B0  1683               	bsf	3,5	;RP0=1, select bank1
  3245  01B1  1303               	bcf	3,6	;RP1=0, select bank1
  3246  01B2  0831               	movf	(?__Umul8_16+1)^(0+128),w
  3247  01B3  1683               	bsf	3,5	;RP0=1, select bank3
  3248  01B4  1703               	bsf	3,6	;RP1=1, select bank3
  3249  01B5  00B1               	movwf	(___flmul@temp+1)^(0+384)
  3250  01B6  1683               	bsf	3,5	;RP0=1, select bank1
  3251  01B7  1303               	bcf	3,6	;RP1=0, select bank1
  3252  01B8  0830               	movf	?__Umul8_16^(0+128),w
  3253  01B9  1683               	bsf	3,5	;RP0=1, select bank3
  3254  01BA  1703               	bsf	3,6	;RP1=1, select bank3
  3255  01BB  00B0               	movwf	___flmul@temp^(0+384)
  3256  01BC                     l4358:
  3257  01BC  0830               	movf	___flmul@temp^(0+384),w
  3258  01BD  1683               	bsf	3,5	;RP0=1, select bank1
  3259  01BE  1303               	bcf	3,6	;RP1=0, select bank1
  3260  01BF  00CB               	movwf	??___flmul^(0+128)
  3261  01C0  01CC               	clrf	(??___flmul^(0+128)+1)
  3262  01C1  01CD               	clrf	(??___flmul^(0+128)+2)
  3263  01C2  01CE               	clrf	(??___flmul^(0+128)+3)
  3264  01C3  084B               	movf	??___flmul^(0+128),w
  3265  01C4  1683               	bsf	3,5	;RP0=1, select bank3
  3266  01C5  1703               	bsf	3,6	;RP1=1, select bank3
  3267  01C6  07A7               	addwf	___flmul@grs^(0+384),f
  3268  01C7  1683               	bsf	3,5	;RP0=1, select bank1
  3269  01C8  1303               	bcf	3,6	;RP1=0, select bank1
  3270  01C9  084C               	movf	(??___flmul+1)^(0+128),w
  3271  01CA  1103               	clrz
  3272  01CB  1803               	skipnc
  3273  01CC  3E01               	addlw	1
  3274  01CD  1903               	skipnz
  3275  01CE  29D2               	goto	u6931
  3276  01CF  1683               	bsf	3,5	;RP0=1, select bank3
  3277  01D0  1703               	bsf	3,6	;RP1=1, select bank3
  3278  01D1  07A8               	addwf	(___flmul@grs+1)^(0+384),f
  3279  01D2                     u6931:
  3280  01D2  1683               	bsf	3,5	;RP0=1, select bank1
  3281  01D3  1303               	bcf	3,6	;RP1=0, select bank1
  3282  01D4  084D               	movf	(??___flmul+2)^(0+128),w
  3283  01D5  1103               	clrz
  3284  01D6  1803               	skipnc
  3285  01D7  3E01               	addlw	1
  3286  01D8  1903               	skipnz
  3287  01D9  29DD               	goto	u6932
  3288  01DA  1683               	bsf	3,5	;RP0=1, select bank3
  3289  01DB  1703               	bsf	3,6	;RP1=1, select bank3
  3290  01DC  07A9               	addwf	(___flmul@grs+2)^(0+384),f
  3291  01DD                     u6932:
  3292  01DD  1683               	bsf	3,5	;RP0=1, select bank1
  3293  01DE  1303               	bcf	3,6	;RP1=0, select bank1
  3294  01DF  084E               	movf	(??___flmul+3)^(0+128),w
  3295  01E0  1103               	clrz
  3296  01E1  1803               	skipnc
  3297  01E2  3E01               	addlw	1
  3298  01E3  1903               	skipnz
  3299  01E4  29E8               	goto	u6933
  3300  01E5  1683               	bsf	3,5	;RP0=1, select bank3
  3301  01E6  1703               	bsf	3,6	;RP1=1, select bank3
  3302  01E7  07AA               	addwf	(___flmul@grs+3)^(0+384),f
  3303  01E8                     u6933:
  3304  01E8  1683               	bsf	3,5	;RP0=1, select bank1
  3305  01E9  1303               	bcf	3,6	;RP1=0, select bank1
  3306  01EA  1683               	bsf	3,5	;RP0=1, select bank3
  3307  01EB  1703               	bsf	3,6	;RP1=1, select bank3
  3308  01EC                     l4360:
  3309  01EC  0831               	movf	(___flmul@temp^(0+384)+1),w
  3310  01ED  1683               	bsf	3,5	;RP0=1, select bank1
  3311  01EE  1303               	bcf	3,6	;RP1=0, select bank1
  3312  01EF  00CB               	movwf	??___flmul^(0+128)
  3313  01F0  01CC               	clrf	(??___flmul^(0+128)+1)
  3314  01F1  01CD               	clrf	(??___flmul^(0+128)+2)
  3315  01F2  01CE               	clrf	(??___flmul^(0+128)+3)
  3316  01F3  084B               	movf	??___flmul^(0+128),w
  3317  01F4  1683               	bsf	3,5	;RP0=1, select bank3
  3318  01F5  1703               	bsf	3,6	;RP1=1, select bank3
  3319  01F6  07AC               	addwf	___flmul@prod^(0+384),f
  3320  01F7  1683               	bsf	3,5	;RP0=1, select bank1
  3321  01F8  1303               	bcf	3,6	;RP1=0, select bank1
  3322  01F9  084C               	movf	(??___flmul+1)^(0+128),w
  3323  01FA  1103               	clrz
  3324  01FB  1803               	skipnc
  3325  01FC  3E01               	addlw	1
  3326  01FD  1903               	skipnz
  3327  01FE  2A02               	goto	u6941
  3328  01FF  1683               	bsf	3,5	;RP0=1, select bank3
  3329  0200  1703               	bsf	3,6	;RP1=1, select bank3
  3330  0201  07AD               	addwf	(___flmul@prod+1)^(0+384),f
  3331  0202                     u6941:
  3332  0202  1683               	bsf	3,5	;RP0=1, select bank1
  3333  0203  1303               	bcf	3,6	;RP1=0, select bank1
  3334  0204  084D               	movf	(??___flmul+2)^(0+128),w
  3335  0205  1103               	clrz
  3336  0206  1803               	skipnc
  3337  0207  3E01               	addlw	1
  3338  0208  1903               	skipnz
  3339  0209  2A0D               	goto	u6942
  3340  020A  1683               	bsf	3,5	;RP0=1, select bank3
  3341  020B  1703               	bsf	3,6	;RP1=1, select bank3
  3342  020C  07AE               	addwf	(___flmul@prod+2)^(0+384),f
  3343  020D                     u6942:
  3344  020D  1683               	bsf	3,5	;RP0=1, select bank1
  3345  020E  1303               	bcf	3,6	;RP1=0, select bank1
  3346  020F  084E               	movf	(??___flmul+3)^(0+128),w
  3347  0210  1103               	clrz
  3348  0211  1803               	skipnc
  3349  0212  3E01               	addlw	1
  3350  0213  1903               	skipnz
  3351  0214  2A18               	goto	u6943
  3352  0215  1683               	bsf	3,5	;RP0=1, select bank3
  3353  0216  1703               	bsf	3,6	;RP1=1, select bank3
  3354  0217  07AF               	addwf	(___flmul@prod+3)^(0+384),f
  3355  0218                     u6943:
  3356  0218  1683               	bsf	3,5	;RP0=1, select bank1
  3357  0219  1303               	bcf	3,6	;RP1=0, select bank1
  3358  021A  1683               	bsf	3,5	;RP0=1, select bank3
  3359  021B  1703               	bsf	3,6	;RP1=1, select bank3
  3360  021C                     l4362:
  3361  021C  3008               	movlw	8
  3362  021D  1683               	bsf	3,5	;RP0=1, select bank1
  3363  021E  1303               	bcf	3,6	;RP1=0, select bank1
  3364  021F  00CB               	movwf	??___flmul^(0+128)
  3365  0220                     u6955:
  3366  0220  1003               	clrc
  3367  0221  1683               	bsf	3,5	;RP0=1, select bank3
  3368  0222  1703               	bsf	3,6	;RP1=1, select bank3
  3369  0223  0DA7               	rlf	___flmul@grs^(0+384),f
  3370  0224  0DA8               	rlf	(___flmul@grs+1)^(0+384),f
  3371  0225  0DA9               	rlf	(___flmul@grs+2)^(0+384),f
  3372  0226  0DAA               	rlf	(___flmul@grs+3)^(0+384),f
  3373  0227  1683               	bsf	3,5	;RP0=1, select bank1
  3374  0228  1303               	bcf	3,6	;RP1=0, select bank1
  3375  0229  0BCB               	decfsz	??___flmul^(0+128),f
  3376  022A  2A20               	goto	u6955
  3377  022B                     l4364:
  3378  022B  1683               	bsf	3,5	;RP0=1, select bank3
  3379  022C  1703               	bsf	3,6	;RP1=1, select bank3
  3380  022D  081E               	movf	(___flmul@b^(0+384)+1),w
  3381  022E  1683               	bsf	3,5	;RP0=1, select bank1
  3382  022F  1303               	bcf	3,6	;RP1=0, select bank1
  3383  0230  00CB               	movwf	??___flmul^(0+128)
  3384  0231  084B               	movf	??___flmul^(0+128),w
  3385  0232  00B0               	movwf	__Umul8_16@multiplicand^(0+128)
  3386  0233  1683               	bsf	3,5	;RP0=1, select bank3
  3387  0234  1703               	bsf	3,6	;RP1=1, select bank3
  3388  0235  0821               	movf	___flmul@a^(0+384),w
  3389  0236  160A  158A  20A9  120A  118A  	fcall	__Umul8_16
  3390  023B  1683               	bsf	3,5	;RP0=1, select bank1
  3391  023C  1303               	bcf	3,6	;RP1=0, select bank1
  3392  023D  0831               	movf	(?__Umul8_16+1)^(0+128),w
  3393  023E  1683               	bsf	3,5	;RP0=1, select bank3
  3394  023F  1703               	bsf	3,6	;RP1=1, select bank3
  3395  0240  00B1               	movwf	(___flmul@temp+1)^(0+384)
  3396  0241  1683               	bsf	3,5	;RP0=1, select bank1
  3397  0242  1303               	bcf	3,6	;RP1=0, select bank1
  3398  0243  0830               	movf	?__Umul8_16^(0+128),w
  3399  0244  1683               	bsf	3,5	;RP0=1, select bank3
  3400  0245  1703               	bsf	3,6	;RP1=1, select bank3
  3401  0246  00B0               	movwf	___flmul@temp^(0+384)
  3402  0247                     l4366:
  3403  0247  0830               	movf	___flmul@temp^(0+384),w
  3404  0248  1683               	bsf	3,5	;RP0=1, select bank1
  3405  0249  1303               	bcf	3,6	;RP1=0, select bank1
  3406  024A  00CB               	movwf	??___flmul^(0+128)
  3407  024B  1683               	bsf	3,5	;RP0=1, select bank3
  3408  024C  1703               	bsf	3,6	;RP1=1, select bank3
  3409  024D  0831               	movf	(___flmul@temp+1)^(0+384),w
  3410  024E  1683               	bsf	3,5	;RP0=1, select bank1
  3411  024F  1303               	bcf	3,6	;RP1=0, select bank1
  3412  0250  00CC               	movwf	(??___flmul^(0+128)+1)
  3413  0251  01CD               	clrf	(??___flmul^(0+128)+2)
  3414  0252  01CE               	clrf	(??___flmul^(0+128)+3)
  3415  0253  084B               	movf	??___flmul^(0+128),w
  3416  0254  1683               	bsf	3,5	;RP0=1, select bank3
  3417  0255  1703               	bsf	3,6	;RP1=1, select bank3
  3418  0256  07A7               	addwf	___flmul@grs^(0+384),f
  3419  0257  1683               	bsf	3,5	;RP0=1, select bank1
  3420  0258  1303               	bcf	3,6	;RP1=0, select bank1
  3421  0259  084C               	movf	(??___flmul+1)^(0+128),w
  3422  025A  1103               	clrz
  3423  025B  1803               	skipnc
  3424  025C  3E01               	addlw	1
  3425  025D  1903               	skipnz
  3426  025E  2A62               	goto	u6961
  3427  025F  1683               	bsf	3,5	;RP0=1, select bank3
  3428  0260  1703               	bsf	3,6	;RP1=1, select bank3
  3429  0261  07A8               	addwf	(___flmul@grs+1)^(0+384),f
  3430  0262                     u6961:
  3431  0262  1683               	bsf	3,5	;RP0=1, select bank1
  3432  0263  1303               	bcf	3,6	;RP1=0, select bank1
  3433  0264  084D               	movf	(??___flmul+2)^(0+128),w
  3434  0265  1103               	clrz
  3435  0266  1803               	skipnc
  3436  0267  3E01               	addlw	1
  3437  0268  1903               	skipnz
  3438  0269  2A6D               	goto	u6962
  3439  026A  1683               	bsf	3,5	;RP0=1, select bank3
  3440  026B  1703               	bsf	3,6	;RP1=1, select bank3
  3441  026C  07A9               	addwf	(___flmul@grs+2)^(0+384),f
  3442  026D                     u6962:
  3443  026D  1683               	bsf	3,5	;RP0=1, select bank1
  3444  026E  1303               	bcf	3,6	;RP1=0, select bank1
  3445  026F  084E               	movf	(??___flmul+3)^(0+128),w
  3446  0270  1103               	clrz
  3447  0271  1803               	skipnc
  3448  0272  3E01               	addlw	1
  3449  0273  1903               	skipnz
  3450  0274  2A78               	goto	u6963
  3451  0275  1683               	bsf	3,5	;RP0=1, select bank3
  3452  0276  1703               	bsf	3,6	;RP1=1, select bank3
  3453  0277  07AA               	addwf	(___flmul@grs+3)^(0+384),f
  3454  0278                     u6963:
  3455  0278  1683               	bsf	3,5	;RP0=1, select bank1
  3456  0279  1303               	bcf	3,6	;RP1=0, select bank1
  3457  027A  1683               	bsf	3,5	;RP0=1, select bank3
  3458  027B  1703               	bsf	3,6	;RP1=1, select bank3
  3459  027C                     l4368:
  3460  027C  081D               	movf	___flmul@b^(0+384),w
  3461  027D  1683               	bsf	3,5	;RP0=1, select bank1
  3462  027E  1303               	bcf	3,6	;RP1=0, select bank1
  3463  027F  00CB               	movwf	??___flmul^(0+128)
  3464  0280  084B               	movf	??___flmul^(0+128),w
  3465  0281  00B0               	movwf	__Umul8_16@multiplicand^(0+128)
  3466  0282  1683               	bsf	3,5	;RP0=1, select bank3
  3467  0283  1703               	bsf	3,6	;RP1=1, select bank3
  3468  0284  0822               	movf	(___flmul@a^(0+384)+1),w
  3469  0285  160A  158A  20A9  120A  118A  	fcall	__Umul8_16
  3470  028A  1683               	bsf	3,5	;RP0=1, select bank1
  3471  028B  1303               	bcf	3,6	;RP1=0, select bank1
  3472  028C  0831               	movf	(?__Umul8_16+1)^(0+128),w
  3473  028D  1683               	bsf	3,5	;RP0=1, select bank3
  3474  028E  1703               	bsf	3,6	;RP1=1, select bank3
  3475  028F  00B1               	movwf	(___flmul@temp+1)^(0+384)
  3476  0290  1683               	bsf	3,5	;RP0=1, select bank1
  3477  0291  1303               	bcf	3,6	;RP1=0, select bank1
  3478  0292  0830               	movf	?__Umul8_16^(0+128),w
  3479  0293  1683               	bsf	3,5	;RP0=1, select bank3
  3480  0294  1703               	bsf	3,6	;RP1=1, select bank3
  3481  0295  00B0               	movwf	___flmul@temp^(0+384)
  3482  0296                     l4370:
  3483  0296  0830               	movf	___flmul@temp^(0+384),w
  3484  0297  1683               	bsf	3,5	;RP0=1, select bank1
  3485  0298  1303               	bcf	3,6	;RP1=0, select bank1
  3486  0299  00CB               	movwf	??___flmul^(0+128)
  3487  029A  1683               	bsf	3,5	;RP0=1, select bank3
  3488  029B  1703               	bsf	3,6	;RP1=1, select bank3
  3489  029C  0831               	movf	(___flmul@temp+1)^(0+384),w
  3490  029D  1683               	bsf	3,5	;RP0=1, select bank1
  3491  029E  1303               	bcf	3,6	;RP1=0, select bank1
  3492  029F  00CC               	movwf	(??___flmul^(0+128)+1)
  3493  02A0  01CD               	clrf	(??___flmul^(0+128)+2)
  3494  02A1  01CE               	clrf	(??___flmul^(0+128)+3)
  3495  02A2  084B               	movf	??___flmul^(0+128),w
  3496  02A3  1683               	bsf	3,5	;RP0=1, select bank3
  3497  02A4  1703               	bsf	3,6	;RP1=1, select bank3
  3498  02A5  07A7               	addwf	___flmul@grs^(0+384),f
  3499  02A6  1683               	bsf	3,5	;RP0=1, select bank1
  3500  02A7  1303               	bcf	3,6	;RP1=0, select bank1
  3501  02A8  084C               	movf	(??___flmul+1)^(0+128),w
  3502  02A9  1103               	clrz
  3503  02AA  1803               	skipnc
  3504  02AB  3E01               	addlw	1
  3505  02AC  1903               	skipnz
  3506  02AD  2AB1               	goto	u6971
  3507  02AE  1683               	bsf	3,5	;RP0=1, select bank3
  3508  02AF  1703               	bsf	3,6	;RP1=1, select bank3
  3509  02B0  07A8               	addwf	(___flmul@grs+1)^(0+384),f
  3510  02B1                     u6971:
  3511  02B1  1683               	bsf	3,5	;RP0=1, select bank1
  3512  02B2  1303               	bcf	3,6	;RP1=0, select bank1
  3513  02B3  084D               	movf	(??___flmul+2)^(0+128),w
  3514  02B4  1103               	clrz
  3515  02B5  1803               	skipnc
  3516  02B6  3E01               	addlw	1
  3517  02B7  1903               	skipnz
  3518  02B8  2ABC               	goto	u6972
  3519  02B9  1683               	bsf	3,5	;RP0=1, select bank3
  3520  02BA  1703               	bsf	3,6	;RP1=1, select bank3
  3521  02BB  07A9               	addwf	(___flmul@grs+2)^(0+384),f
  3522  02BC                     u6972:
  3523  02BC  1683               	bsf	3,5	;RP0=1, select bank1
  3524  02BD  1303               	bcf	3,6	;RP1=0, select bank1
  3525  02BE  084E               	movf	(??___flmul+3)^(0+128),w
  3526  02BF  1103               	clrz
  3527  02C0  1803               	skipnc
  3528  02C1  3E01               	addlw	1
  3529  02C2  1903               	skipnz
  3530  02C3  2AC7               	goto	u6973
  3531  02C4  1683               	bsf	3,5	;RP0=1, select bank3
  3532  02C5  1703               	bsf	3,6	;RP1=1, select bank3
  3533  02C6  07AA               	addwf	(___flmul@grs+3)^(0+384),f
  3534  02C7                     u6973:
  3535  02C7  1683               	bsf	3,5	;RP0=1, select bank1
  3536  02C8  1303               	bcf	3,6	;RP1=0, select bank1
  3537  02C9  1683               	bsf	3,5	;RP0=1, select bank3
  3538  02CA  1703               	bsf	3,6	;RP1=1, select bank3
  3539  02CB                     l4372:
  3540  02CB  3008               	movlw	8
  3541  02CC  1683               	bsf	3,5	;RP0=1, select bank1
  3542  02CD  1303               	bcf	3,6	;RP1=0, select bank1
  3543  02CE  00CB               	movwf	??___flmul^(0+128)
  3544  02CF                     u6985:
  3545  02CF  1003               	clrc
  3546  02D0  1683               	bsf	3,5	;RP0=1, select bank3
  3547  02D1  1703               	bsf	3,6	;RP1=1, select bank3
  3548  02D2  0DA7               	rlf	___flmul@grs^(0+384),f
  3549  02D3  0DA8               	rlf	(___flmul@grs+1)^(0+384),f
  3550  02D4  0DA9               	rlf	(___flmul@grs+2)^(0+384),f
  3551  02D5  0DAA               	rlf	(___flmul@grs+3)^(0+384),f
  3552  02D6  1683               	bsf	3,5	;RP0=1, select bank1
  3553  02D7  1303               	bcf	3,6	;RP1=0, select bank1
  3554  02D8  0BCB               	decfsz	??___flmul^(0+128),f
  3555  02D9  2ACF               	goto	u6985
  3556  02DA  1683               	bsf	3,5	;RP0=1, select bank3
  3557  02DB  1703               	bsf	3,6	;RP1=1, select bank3
  3558  02DC  081D               	movf	___flmul@b^(0+384),w
  3559  02DD  1683               	bsf	3,5	;RP0=1, select bank1
  3560  02DE  1303               	bcf	3,6	;RP1=0, select bank1
  3561  02DF  00CB               	movwf	??___flmul^(0+128)
  3562  02E0  084B               	movf	??___flmul^(0+128),w
  3563  02E1  00B0               	movwf	__Umul8_16@multiplicand^(0+128)
  3564  02E2  1683               	bsf	3,5	;RP0=1, select bank3
  3565  02E3  1703               	bsf	3,6	;RP1=1, select bank3
  3566  02E4  0821               	movf	___flmul@a^(0+384),w
  3567  02E5  160A  158A  20A9  120A  118A  	fcall	__Umul8_16
  3568  02EA  1683               	bsf	3,5	;RP0=1, select bank1
  3569  02EB  1303               	bcf	3,6	;RP1=0, select bank1
  3570  02EC  0831               	movf	(?__Umul8_16+1)^(0+128),w
  3571  02ED  1683               	bsf	3,5	;RP0=1, select bank3
  3572  02EE  1703               	bsf	3,6	;RP1=1, select bank3
  3573  02EF  00B1               	movwf	(___flmul@temp+1)^(0+384)
  3574  02F0  1683               	bsf	3,5	;RP0=1, select bank1
  3575  02F1  1303               	bcf	3,6	;RP1=0, select bank1
  3576  02F2  0830               	movf	?__Umul8_16^(0+128),w
  3577  02F3  1683               	bsf	3,5	;RP0=1, select bank3
  3578  02F4  1703               	bsf	3,6	;RP1=1, select bank3
  3579  02F5  00B0               	movwf	___flmul@temp^(0+384)
  3580  02F6                     l4374:
  3581  02F6  0830               	movf	___flmul@temp^(0+384),w
  3582  02F7  1683               	bsf	3,5	;RP0=1, select bank1
  3583  02F8  1303               	bcf	3,6	;RP1=0, select bank1
  3584  02F9  00CB               	movwf	??___flmul^(0+128)
  3585  02FA  1683               	bsf	3,5	;RP0=1, select bank3
  3586  02FB  1703               	bsf	3,6	;RP1=1, select bank3
  3587  02FC  0831               	movf	(___flmul@temp+1)^(0+384),w
  3588  02FD  1683               	bsf	3,5	;RP0=1, select bank1
  3589  02FE  1303               	bcf	3,6	;RP1=0, select bank1
  3590  02FF  00CC               	movwf	(??___flmul^(0+128)+1)
  3591  0300  01CD               	clrf	(??___flmul^(0+128)+2)
  3592  0301  01CE               	clrf	(??___flmul^(0+128)+3)
  3593  0302  084B               	movf	??___flmul^(0+128),w
  3594  0303  1683               	bsf	3,5	;RP0=1, select bank3
  3595  0304  1703               	bsf	3,6	;RP1=1, select bank3
  3596  0305  07A7               	addwf	___flmul@grs^(0+384),f
  3597  0306  1683               	bsf	3,5	;RP0=1, select bank1
  3598  0307  1303               	bcf	3,6	;RP1=0, select bank1
  3599  0308  084C               	movf	(??___flmul+1)^(0+128),w
  3600  0309  1103               	clrz
  3601  030A  1803               	skipnc
  3602  030B  3E01               	addlw	1
  3603  030C  1903               	skipnz
  3604  030D  2B11               	goto	u6991
  3605  030E  1683               	bsf	3,5	;RP0=1, select bank3
  3606  030F  1703               	bsf	3,6	;RP1=1, select bank3
  3607  0310  07A8               	addwf	(___flmul@grs+1)^(0+384),f
  3608  0311                     u6991:
  3609  0311  1683               	bsf	3,5	;RP0=1, select bank1
  3610  0312  1303               	bcf	3,6	;RP1=0, select bank1
  3611  0313  084D               	movf	(??___flmul+2)^(0+128),w
  3612  0314  1103               	clrz
  3613  0315  1803               	skipnc
  3614  0316  3E01               	addlw	1
  3615  0317  1903               	skipnz
  3616  0318  2B1C               	goto	u6992
  3617  0319  1683               	bsf	3,5	;RP0=1, select bank3
  3618  031A  1703               	bsf	3,6	;RP1=1, select bank3
  3619  031B  07A9               	addwf	(___flmul@grs+2)^(0+384),f
  3620  031C                     u6992:
  3621  031C  1683               	bsf	3,5	;RP0=1, select bank1
  3622  031D  1303               	bcf	3,6	;RP1=0, select bank1
  3623  031E  084E               	movf	(??___flmul+3)^(0+128),w
  3624  031F  1103               	clrz
  3625  0320  1803               	skipnc
  3626  0321  3E01               	addlw	1
  3627  0322  1903               	skipnz
  3628  0323  2B27               	goto	u6993
  3629  0324  1683               	bsf	3,5	;RP0=1, select bank3
  3630  0325  1703               	bsf	3,6	;RP1=1, select bank3
  3631  0326  07AA               	addwf	(___flmul@grs+3)^(0+384),f
  3632  0327                     u6993:
  3633  0327  1683               	bsf	3,5	;RP0=1, select bank1
  3634  0328  1303               	bcf	3,6	;RP1=0, select bank1
  3635  0329  1683               	bsf	3,5	;RP0=1, select bank3
  3636  032A  1703               	bsf	3,6	;RP1=1, select bank3
  3637  032B                     l4376:
  3638  032B  081E               	movf	(___flmul@b^(0+384)+1),w
  3639  032C  1683               	bsf	3,5	;RP0=1, select bank1
  3640  032D  1303               	bcf	3,6	;RP1=0, select bank1
  3641  032E  00CB               	movwf	??___flmul^(0+128)
  3642  032F  084B               	movf	??___flmul^(0+128),w
  3643  0330  00B0               	movwf	__Umul8_16@multiplicand^(0+128)
  3644  0331  1683               	bsf	3,5	;RP0=1, select bank3
  3645  0332  1703               	bsf	3,6	;RP1=1, select bank3
  3646  0333  0823               	movf	(___flmul@a^(0+384)+2),w
  3647  0334  160A  158A  20A9  120A  118A  	fcall	__Umul8_16
  3648  0339  1683               	bsf	3,5	;RP0=1, select bank1
  3649  033A  1303               	bcf	3,6	;RP1=0, select bank1
  3650  033B  0831               	movf	(?__Umul8_16+1)^(0+128),w
  3651  033C  1683               	bsf	3,5	;RP0=1, select bank3
  3652  033D  1703               	bsf	3,6	;RP1=1, select bank3
  3653  033E  00B1               	movwf	(___flmul@temp+1)^(0+384)
  3654  033F  1683               	bsf	3,5	;RP0=1, select bank1
  3655  0340  1303               	bcf	3,6	;RP1=0, select bank1
  3656  0341  0830               	movf	?__Umul8_16^(0+128),w
  3657  0342  1683               	bsf	3,5	;RP0=1, select bank3
  3658  0343  1703               	bsf	3,6	;RP1=1, select bank3
  3659  0344  00B0               	movwf	___flmul@temp^(0+384)
  3660  0345  0830               	movf	___flmul@temp^(0+384),w
  3661  0346  1683               	bsf	3,5	;RP0=1, select bank1
  3662  0347  1303               	bcf	3,6	;RP1=0, select bank1
  3663  0348  00CB               	movwf	??___flmul^(0+128)
  3664  0349  1683               	bsf	3,5	;RP0=1, select bank3
  3665  034A  1703               	bsf	3,6	;RP1=1, select bank3
  3666  034B  0831               	movf	(___flmul@temp+1)^(0+384),w
  3667  034C  1683               	bsf	3,5	;RP0=1, select bank1
  3668  034D  1303               	bcf	3,6	;RP1=0, select bank1
  3669  034E  00CC               	movwf	(??___flmul^(0+128)+1)
  3670  034F  01CD               	clrf	(??___flmul^(0+128)+2)
  3671  0350  01CE               	clrf	(??___flmul^(0+128)+3)
  3672  0351  084B               	movf	??___flmul^(0+128),w
  3673  0352  1683               	bsf	3,5	;RP0=1, select bank3
  3674  0353  1703               	bsf	3,6	;RP1=1, select bank3
  3675  0354  07AC               	addwf	___flmul@prod^(0+384),f
  3676  0355  1683               	bsf	3,5	;RP0=1, select bank1
  3677  0356  1303               	bcf	3,6	;RP1=0, select bank1
  3678  0357  084C               	movf	(??___flmul+1)^(0+128),w
  3679  0358  1103               	clrz
  3680  0359  1803               	skipnc
  3681  035A  3E01               	addlw	1
  3682  035B  1903               	skipnz
  3683  035C  2B60               	goto	u7001
  3684  035D  1683               	bsf	3,5	;RP0=1, select bank3
  3685  035E  1703               	bsf	3,6	;RP1=1, select bank3
  3686  035F  07AD               	addwf	(___flmul@prod+1)^(0+384),f
  3687  0360                     u7001:
  3688  0360  1683               	bsf	3,5	;RP0=1, select bank1
  3689  0361  1303               	bcf	3,6	;RP1=0, select bank1
  3690  0362  084D               	movf	(??___flmul+2)^(0+128),w
  3691  0363  1103               	clrz
  3692  0364  1803               	skipnc
  3693  0365  3E01               	addlw	1
  3694  0366  1903               	skipnz
  3695  0367  2B6B               	goto	u7002
  3696  0368  1683               	bsf	3,5	;RP0=1, select bank3
  3697  0369  1703               	bsf	3,6	;RP1=1, select bank3
  3698  036A  07AE               	addwf	(___flmul@prod+2)^(0+384),f
  3699  036B                     u7002:
  3700  036B  1683               	bsf	3,5	;RP0=1, select bank1
  3701  036C  1303               	bcf	3,6	;RP1=0, select bank1
  3702  036D  084E               	movf	(??___flmul+3)^(0+128),w
  3703  036E  1103               	clrz
  3704  036F  1803               	skipnc
  3705  0370  3E01               	addlw	1
  3706  0371  1903               	skipnz
  3707  0372  2B76               	goto	u7003
  3708  0373  1683               	bsf	3,5	;RP0=1, select bank3
  3709  0374  1703               	bsf	3,6	;RP1=1, select bank3
  3710  0375  07AF               	addwf	(___flmul@prod+3)^(0+384),f
  3711  0376                     u7003:
  3712  0376  1683               	bsf	3,5	;RP0=1, select bank1
  3713  0377  1303               	bcf	3,6	;RP1=0, select bank1
  3714  0378  1683               	bsf	3,5	;RP0=1, select bank3
  3715  0379  1703               	bsf	3,6	;RP1=1, select bank3
  3716  037A                     l4378:
  3717  037A  081F               	movf	(___flmul@b^(0+384)+2),w
  3718  037B  1683               	bsf	3,5	;RP0=1, select bank1
  3719  037C  1303               	bcf	3,6	;RP1=0, select bank1
  3720  037D  00CB               	movwf	??___flmul^(0+128)
  3721  037E  084B               	movf	??___flmul^(0+128),w
  3722  037F  00B0               	movwf	__Umul8_16@multiplicand^(0+128)
  3723  0380  1683               	bsf	3,5	;RP0=1, select bank3
  3724  0381  1703               	bsf	3,6	;RP1=1, select bank3
  3725  0382  0822               	movf	(___flmul@a^(0+384)+1),w
  3726  0383  160A  158A  20A9  120A  118A  	fcall	__Umul8_16
  3727  0388  1683               	bsf	3,5	;RP0=1, select bank1
  3728  0389  1303               	bcf	3,6	;RP1=0, select bank1
  3729  038A  0831               	movf	(?__Umul8_16+1)^(0+128),w
  3730  038B  1683               	bsf	3,5	;RP0=1, select bank3
  3731  038C  1703               	bsf	3,6	;RP1=1, select bank3
  3732  038D  00B1               	movwf	(___flmul@temp+1)^(0+384)
  3733  038E  1683               	bsf	3,5	;RP0=1, select bank1
  3734  038F  1303               	bcf	3,6	;RP1=0, select bank1
  3735  0390  0830               	movf	?__Umul8_16^(0+128),w
  3736  0391  1683               	bsf	3,5	;RP0=1, select bank3
  3737  0392  1703               	bsf	3,6	;RP1=1, select bank3
  3738  0393  00B0               	movwf	___flmul@temp^(0+384)
  3739  0394                     l4380:
  3740  0394  0830               	movf	___flmul@temp^(0+384),w
  3741  0395  1683               	bsf	3,5	;RP0=1, select bank1
  3742  0396  1303               	bcf	3,6	;RP1=0, select bank1
  3743  0397  00CB               	movwf	??___flmul^(0+128)
  3744  0398  1683               	bsf	3,5	;RP0=1, select bank3
  3745  0399  1703               	bsf	3,6	;RP1=1, select bank3
  3746  039A  0831               	movf	(___flmul@temp+1)^(0+384),w
  3747  039B  1683               	bsf	3,5	;RP0=1, select bank1
  3748  039C  1303               	bcf	3,6	;RP1=0, select bank1
  3749  039D  00CC               	movwf	(??___flmul^(0+128)+1)
  3750  039E  01CD               	clrf	(??___flmul^(0+128)+2)
  3751  039F  01CE               	clrf	(??___flmul^(0+128)+3)
  3752  03A0  084B               	movf	??___flmul^(0+128),w
  3753  03A1  1683               	bsf	3,5	;RP0=1, select bank3
  3754  03A2  1703               	bsf	3,6	;RP1=1, select bank3
  3755  03A3  07AC               	addwf	___flmul@prod^(0+384),f
  3756  03A4  1683               	bsf	3,5	;RP0=1, select bank1
  3757  03A5  1303               	bcf	3,6	;RP1=0, select bank1
  3758  03A6  084C               	movf	(??___flmul+1)^(0+128),w
  3759  03A7  1103               	clrz
  3760  03A8  1803               	skipnc
  3761  03A9  3E01               	addlw	1
  3762  03AA  1903               	skipnz
  3763  03AB  2BAF               	goto	u7011
  3764  03AC  1683               	bsf	3,5	;RP0=1, select bank3
  3765  03AD  1703               	bsf	3,6	;RP1=1, select bank3
  3766  03AE  07AD               	addwf	(___flmul@prod+1)^(0+384),f
  3767  03AF                     u7011:
  3768  03AF  1683               	bsf	3,5	;RP0=1, select bank1
  3769  03B0  1303               	bcf	3,6	;RP1=0, select bank1
  3770  03B1  084D               	movf	(??___flmul+2)^(0+128),w
  3771  03B2  1103               	clrz
  3772  03B3  1803               	skipnc
  3773  03B4  3E01               	addlw	1
  3774  03B5  1903               	skipnz
  3775  03B6  2BBA               	goto	u7012
  3776  03B7  1683               	bsf	3,5	;RP0=1, select bank3
  3777  03B8  1703               	bsf	3,6	;RP1=1, select bank3
  3778  03B9  07AE               	addwf	(___flmul@prod+2)^(0+384),f
  3779  03BA                     u7012:
  3780  03BA  1683               	bsf	3,5	;RP0=1, select bank1
  3781  03BB  1303               	bcf	3,6	;RP1=0, select bank1
  3782  03BC  084E               	movf	(??___flmul+3)^(0+128),w
  3783  03BD  1103               	clrz
  3784  03BE  1803               	skipnc
  3785  03BF  3E01               	addlw	1
  3786  03C0  1903               	skipnz
  3787  03C1  2BC5               	goto	u7013
  3788  03C2  1683               	bsf	3,5	;RP0=1, select bank3
  3789  03C3  1703               	bsf	3,6	;RP1=1, select bank3
  3790  03C4  07AF               	addwf	(___flmul@prod+3)^(0+384),f
  3791  03C5                     u7013:
  3792  03C5  1683               	bsf	3,5	;RP0=1, select bank1
  3793  03C6  1303               	bcf	3,6	;RP1=0, select bank1
  3794  03C7  1683               	bsf	3,5	;RP0=1, select bank3
  3795  03C8  1703               	bsf	3,6	;RP1=1, select bank3
  3796  03C9  081F               	movf	(___flmul@b^(0+384)+2),w
  3797  03CA  1683               	bsf	3,5	;RP0=1, select bank1
  3798  03CB  1303               	bcf	3,6	;RP1=0, select bank1
  3799  03CC  00CB               	movwf	??___flmul^(0+128)
  3800  03CD  084B               	movf	??___flmul^(0+128),w
  3801  03CE  00B0               	movwf	__Umul8_16@multiplicand^(0+128)
  3802  03CF  1683               	bsf	3,5	;RP0=1, select bank3
  3803  03D0  1703               	bsf	3,6	;RP1=1, select bank3
  3804  03D1  0823               	movf	(___flmul@a^(0+384)+2),w
  3805  03D2  160A  158A  20A9  120A  118A  	fcall	__Umul8_16
  3806  03D7  1683               	bsf	3,5	;RP0=1, select bank1
  3807  03D8  1303               	bcf	3,6	;RP1=0, select bank1
  3808  03D9  0831               	movf	(?__Umul8_16+1)^(0+128),w
  3809  03DA  1683               	bsf	3,5	;RP0=1, select bank3
  3810  03DB  1703               	bsf	3,6	;RP1=1, select bank3
  3811  03DC  00B1               	movwf	(___flmul@temp+1)^(0+384)
  3812  03DD  1683               	bsf	3,5	;RP0=1, select bank1
  3813  03DE  1303               	bcf	3,6	;RP1=0, select bank1
  3814  03DF  0830               	movf	?__Umul8_16^(0+128),w
  3815  03E0  1683               	bsf	3,5	;RP0=1, select bank3
  3816  03E1  1703               	bsf	3,6	;RP1=1, select bank3
  3817  03E2  00B0               	movwf	___flmul@temp^(0+384)
  3818  03E3                     l4382:
  3819  03E3  0830               	movf	___flmul@temp^(0+384),w
  3820  03E4  1683               	bsf	3,5	;RP0=1, select bank1
  3821  03E5  1303               	bcf	3,6	;RP1=0, select bank1
  3822  03E6  00CB               	movwf	??___flmul^(0+128)
  3823  03E7  1683               	bsf	3,5	;RP0=1, select bank3
  3824  03E8  1703               	bsf	3,6	;RP1=1, select bank3
  3825  03E9  0831               	movf	(___flmul@temp+1)^(0+384),w
  3826  03EA  1683               	bsf	3,5	;RP0=1, select bank1
  3827  03EB  1303               	bcf	3,6	;RP1=0, select bank1
  3828  03EC  00CC               	movwf	(??___flmul^(0+128)+1)
  3829  03ED  01CD               	clrf	(??___flmul^(0+128)+2)
  3830  03EE  01CE               	clrf	(??___flmul^(0+128)+3)
  3831  03EF  3008               	movlw	8
  3832  03F0                     u7025:
  3833  03F0  1003               	clrc
  3834  03F1  0DCB               	rlf	??___flmul^(0+128),f
  3835  03F2  0DCC               	rlf	(??___flmul^(0+128)+1),f
  3836  03F3  0DCD               	rlf	(??___flmul^(0+128)+2),f
  3837  03F4  0DCE               	rlf	(??___flmul^(0+128)+3),f
  3838  03F5                     u7020:
  3839  03F5  3EFF               	addlw	-1
  3840  03F6  1D03               	skipz
  3841  03F7  2BF0               	goto	u7025
  3842  03F8  084B               	movf	??___flmul^(0+128),w
  3843  03F9  1683               	bsf	3,5	;RP0=1, select bank3
  3844  03FA  1703               	bsf	3,6	;RP1=1, select bank3
  3845  03FB  07AC               	addwf	___flmul@prod^(0+384),f
  3846  03FC  1683               	bsf	3,5	;RP0=1, select bank1
  3847  03FD  1303               	bcf	3,6	;RP1=0, select bank1
  3848  03FE  084C               	movf	(??___flmul+1)^(0+128),w
  3849  03FF  1103               	clrz
  3850  0400  1803               	skipnc
  3851  0401  3E01               	addlw	1
  3852  0402  1903               	skipnz
  3853  0403  2C07               	goto	u7031
  3854  0404  1683               	bsf	3,5	;RP0=1, select bank3
  3855  0405  1703               	bsf	3,6	;RP1=1, select bank3
  3856  0406  07AD               	addwf	(___flmul@prod+1)^(0+384),f
  3857  0407                     u7031:
  3858  0407  1683               	bsf	3,5	;RP0=1, select bank1
  3859  0408  1303               	bcf	3,6	;RP1=0, select bank1
  3860  0409  084D               	movf	(??___flmul+2)^(0+128),w
  3861  040A  1103               	clrz
  3862  040B  1803               	skipnc
  3863  040C  3E01               	addlw	1
  3864  040D  1903               	skipnz
  3865  040E  2C12               	goto	u7032
  3866  040F  1683               	bsf	3,5	;RP0=1, select bank3
  3867  0410  1703               	bsf	3,6	;RP1=1, select bank3
  3868  0411  07AE               	addwf	(___flmul@prod+2)^(0+384),f
  3869  0412                     u7032:
  3870  0412  1683               	bsf	3,5	;RP0=1, select bank1
  3871  0413  1303               	bcf	3,6	;RP1=0, select bank1
  3872  0414  084E               	movf	(??___flmul+3)^(0+128),w
  3873  0415  1103               	clrz
  3874  0416  1803               	skipnc
  3875  0417  3E01               	addlw	1
  3876  0418  1903               	skipnz
  3877  0419  2C1D               	goto	u7033
  3878  041A  1683               	bsf	3,5	;RP0=1, select bank3
  3879  041B  1703               	bsf	3,6	;RP1=1, select bank3
  3880  041C  07AF               	addwf	(___flmul@prod+3)^(0+384),f
  3881  041D                     u7033:
  3882  041D  1683               	bsf	3,5	;RP0=1, select bank1
  3883  041E  1303               	bcf	3,6	;RP1=0, select bank1
  3884  041F  1683               	bsf	3,5	;RP0=1, select bank3
  3885  0420  1703               	bsf	3,6	;RP1=1, select bank3
  3886  0421                     l4384:
  3887  0421  0827               	movf	___flmul@grs^(0+384),w
  3888  0422  1683               	bsf	3,5	;RP0=1, select bank1
  3889  0423  1303               	bcf	3,6	;RP1=0, select bank1
  3890  0424  00CB               	movwf	??___flmul^(0+128)
  3891  0425  1683               	bsf	3,5	;RP0=1, select bank3
  3892  0426  1703               	bsf	3,6	;RP1=1, select bank3
  3893  0427  0828               	movf	(___flmul@grs+1)^(0+384),w
  3894  0428  1683               	bsf	3,5	;RP0=1, select bank1
  3895  0429  1303               	bcf	3,6	;RP1=0, select bank1
  3896  042A  00CC               	movwf	(??___flmul^(0+128)+1)
  3897  042B  1683               	bsf	3,5	;RP0=1, select bank3
  3898  042C  1703               	bsf	3,6	;RP1=1, select bank3
  3899  042D  0829               	movf	(___flmul@grs+2)^(0+384),w
  3900  042E  1683               	bsf	3,5	;RP0=1, select bank1
  3901  042F  1303               	bcf	3,6	;RP1=0, select bank1
  3902  0430  00CD               	movwf	(??___flmul^(0+128)+2)
  3903  0431  1683               	bsf	3,5	;RP0=1, select bank3
  3904  0432  1703               	bsf	3,6	;RP1=1, select bank3
  3905  0433  082A               	movf	(___flmul@grs+3)^(0+384),w
  3906  0434  1683               	bsf	3,5	;RP0=1, select bank1
  3907  0435  1303               	bcf	3,6	;RP1=0, select bank1
  3908  0436  00CE               	movwf	(??___flmul^(0+128)+3)
  3909  0437  3018               	movlw	24
  3910  0438                     u7045:
  3911  0438  1003               	clrc
  3912  0439  0CCE               	rrf	(??___flmul^(0+128)+3),f
  3913  043A  0CCD               	rrf	(??___flmul^(0+128)+2),f
  3914  043B  0CCC               	rrf	(??___flmul^(0+128)+1),f
  3915  043C  0CCB               	rrf	??___flmul^(0+128),f
  3916  043D                     u7040:
  3917  043D  3EFF               	addlw	-1
  3918  043E  1D03               	skipz
  3919  043F  2C38               	goto	u7045
  3920  0440  084B               	movf	??___flmul^(0+128),w
  3921  0441  1683               	bsf	3,5	;RP0=1, select bank3
  3922  0442  1703               	bsf	3,6	;RP1=1, select bank3
  3923  0443  07AC               	addwf	___flmul@prod^(0+384),f
  3924  0444  1683               	bsf	3,5	;RP0=1, select bank1
  3925  0445  1303               	bcf	3,6	;RP1=0, select bank1
  3926  0446  084C               	movf	(??___flmul+1)^(0+128),w
  3927  0447  1103               	clrz
  3928  0448  1803               	skipnc
  3929  0449  3E01               	addlw	1
  3930  044A  1903               	skipnz
  3931  044B  2C4F               	goto	u7051
  3932  044C  1683               	bsf	3,5	;RP0=1, select bank3
  3933  044D  1703               	bsf	3,6	;RP1=1, select bank3
  3934  044E  07AD               	addwf	(___flmul@prod+1)^(0+384),f
  3935  044F                     u7051:
  3936  044F  1683               	bsf	3,5	;RP0=1, select bank1
  3937  0450  1303               	bcf	3,6	;RP1=0, select bank1
  3938  0451  084D               	movf	(??___flmul+2)^(0+128),w
  3939  0452  1103               	clrz
  3940  0453  1803               	skipnc
  3941  0454  3E01               	addlw	1
  3942  0455  1903               	skipnz
  3943  0456  2C5A               	goto	u7052
  3944  0457  1683               	bsf	3,5	;RP0=1, select bank3
  3945  0458  1703               	bsf	3,6	;RP1=1, select bank3
  3946  0459  07AE               	addwf	(___flmul@prod+2)^(0+384),f
  3947  045A                     u7052:
  3948  045A  1683               	bsf	3,5	;RP0=1, select bank1
  3949  045B  1303               	bcf	3,6	;RP1=0, select bank1
  3950  045C  084E               	movf	(??___flmul+3)^(0+128),w
  3951  045D  1103               	clrz
  3952  045E  1803               	skipnc
  3953  045F  3E01               	addlw	1
  3954  0460  1903               	skipnz
  3955  0461  2C65               	goto	u7053
  3956  0462  1683               	bsf	3,5	;RP0=1, select bank3
  3957  0463  1703               	bsf	3,6	;RP1=1, select bank3
  3958  0464  07AF               	addwf	(___flmul@prod+3)^(0+384),f
  3959  0465                     u7053:
  3960  0465  1683               	bsf	3,5	;RP0=1, select bank1
  3961  0466  1303               	bcf	3,6	;RP1=0, select bank1
  3962  0467  1683               	bsf	3,5	;RP0=1, select bank3
  3963  0468  1703               	bsf	3,6	;RP1=1, select bank3
  3964  0469                     l4386:
  3965  0469  3008               	movlw	8
  3966  046A  1683               	bsf	3,5	;RP0=1, select bank1
  3967  046B  1303               	bcf	3,6	;RP1=0, select bank1
  3968  046C  00CB               	movwf	??___flmul^(0+128)
  3969  046D                     u7065:
  3970  046D  1003               	clrc
  3971  046E  1683               	bsf	3,5	;RP0=1, select bank3
  3972  046F  1703               	bsf	3,6	;RP1=1, select bank3
  3973  0470  0DA7               	rlf	___flmul@grs^(0+384),f
  3974  0471  0DA8               	rlf	(___flmul@grs+1)^(0+384),f
  3975  0472  0DA9               	rlf	(___flmul@grs+2)^(0+384),f
  3976  0473  0DAA               	rlf	(___flmul@grs+3)^(0+384),f
  3977  0474  1683               	bsf	3,5	;RP0=1, select bank1
  3978  0475  1303               	bcf	3,6	;RP1=0, select bank1
  3979  0476  0BCB               	decfsz	??___flmul^(0+128),f
  3980  0477  2C6D               	goto	u7065
  3981  0478                     l4388:
  3982  0478  1683               	bsf	3,5	;RP0=1, select bank3
  3983  0479  1703               	bsf	3,6	;RP1=1, select bank3
  3984  047A  082B               	movf	___flmul@bexp^(0+384),w
  3985  047B  0726               	addwf	___flmul@aexp^(0+384),w
  3986  047C  1683               	bsf	3,5	;RP0=1, select bank1
  3987  047D  1303               	bcf	3,6	;RP1=0, select bank1
  3988  047E  00CB               	movwf	??___flmul^(0+128)
  3989  047F  01CC               	clrf	(??___flmul^(0+128)+1)
  3990  0480  0DCC               	rlf	(??___flmul+1)^(0+128),f
  3991  0481  084B               	movf	??___flmul^(0+128),w
  3992  0482  3E82               	addlw	130
  3993  0483  1683               	bsf	3,5	;RP0=1, select bank3
  3994  0484  1703               	bsf	3,6	;RP1=1, select bank3
  3995  0485  00B0               	movwf	___flmul@temp^(0+384)
  3996  0486  1683               	bsf	3,5	;RP0=1, select bank1
  3997  0487  1303               	bcf	3,6	;RP1=0, select bank1
  3998  0488  084C               	movf	(??___flmul+1)^(0+128),w
  3999  0489  1803               	skipnc
  4000  048A  3E01               	addlw	1
  4001  048B  3EFF               	addlw	255
  4002  048C  1683               	bsf	3,5	;RP0=1, select bank3
  4003  048D  1703               	bsf	3,6	;RP1=1, select bank3
  4004  048E  00B1               	movwf	(___flmul@temp+1)^(0+384)
  4005  048F  2CBD               	goto	l4400
  4006  0490                     l4390:
  4007  0490  3001               	movlw	1
  4008  0491  1683               	bsf	3,5	;RP0=1, select bank1
  4009  0492  1303               	bcf	3,6	;RP1=0, select bank1
  4010  0493  00CB               	movwf	??___flmul^(0+128)
  4011  0494                     u7075:
  4012  0494  1003               	clrc
  4013  0495  1683               	bsf	3,5	;RP0=1, select bank3
  4014  0496  1703               	bsf	3,6	;RP1=1, select bank3
  4015  0497  0DAC               	rlf	___flmul@prod^(0+384),f
  4016  0498  0DAD               	rlf	(___flmul@prod+1)^(0+384),f
  4017  0499  0DAE               	rlf	(___flmul@prod+2)^(0+384),f
  4018  049A  0DAF               	rlf	(___flmul@prod+3)^(0+384),f
  4019  049B  1683               	bsf	3,5	;RP0=1, select bank1
  4020  049C  1303               	bcf	3,6	;RP1=0, select bank1
  4021  049D  0BCB               	decfsz	??___flmul^(0+128),f
  4022  049E  2C94               	goto	u7075
  4023  049F                     l4392:
  4024  049F  1683               	bsf	3,5	;RP0=1, select bank3
  4025  04A0  1703               	bsf	3,6	;RP1=1, select bank3
  4026  04A1  1FAA               	btfss	(___flmul@grs+3)^(0+384),7
  4027  04A2  2CA4               	goto	u7081
  4028  04A3  2CA5               	goto	u7080
  4029  04A4                     u7081:
  4030  04A4  2CA6               	goto	l4396
  4031  04A5                     u7080:
  4032  04A5                     l4394:
  4033  04A5  142C               	bsf	___flmul@prod^(0+384),0
  4034  04A6                     l4396:
  4035  04A6  3001               	movlw	1
  4036  04A7  1683               	bsf	3,5	;RP0=1, select bank1
  4037  04A8  1303               	bcf	3,6	;RP1=0, select bank1
  4038  04A9  00CB               	movwf	??___flmul^(0+128)
  4039  04AA                     u7095:
  4040  04AA  1003               	clrc
  4041  04AB  1683               	bsf	3,5	;RP0=1, select bank3
  4042  04AC  1703               	bsf	3,6	;RP1=1, select bank3
  4043  04AD  0DA7               	rlf	___flmul@grs^(0+384),f
  4044  04AE  0DA8               	rlf	(___flmul@grs+1)^(0+384),f
  4045  04AF  0DA9               	rlf	(___flmul@grs+2)^(0+384),f
  4046  04B0  0DAA               	rlf	(___flmul@grs+3)^(0+384),f
  4047  04B1  1683               	bsf	3,5	;RP0=1, select bank1
  4048  04B2  1303               	bcf	3,6	;RP1=0, select bank1
  4049  04B3  0BCB               	decfsz	??___flmul^(0+128),f
  4050  04B4  2CAA               	goto	u7095
  4051  04B5                     l4398:
  4052  04B5  30FF               	movlw	255
  4053  04B6  1683               	bsf	3,5	;RP0=1, select bank3
  4054  04B7  1703               	bsf	3,6	;RP1=1, select bank3
  4055  04B8  07B0               	addwf	___flmul@temp^(0+384),f
  4056  04B9  1803               	skipnc
  4057  04BA  0AB1               	incf	(___flmul@temp+1)^(0+384),f
  4058  04BB  30FF               	movlw	255
  4059  04BC  07B1               	addwf	(___flmul@temp+1)^(0+384),f
  4060  04BD                     l4400:
  4061  04BD  1FAE               	btfss	(___flmul@prod+2)^(0+384),7
  4062  04BE  2CC0               	goto	u7101
  4063  04BF  2CC1               	goto	u7100
  4064  04C0                     u7101:
  4065  04C0  2C90               	goto	l4390
  4066  04C1                     u7100:
  4067  04C1                     l4402:
  4068  04C1  01A6               	clrf	___flmul@aexp^(0+384)
  4069  04C2                     l4404:
  4070  04C2  1FAA               	btfss	(___flmul@grs+3)^(0+384),7
  4071  04C3  2CC5               	goto	u7111
  4072  04C4  2CC6               	goto	u7110
  4073  04C5                     u7111:
  4074  04C5  2CF4               	goto	l4412
  4075  04C6                     u7110:
  4076  04C6                     l4406:
  4077  04C6  30FF               	movlw	255
  4078  04C7  0527               	andwf	___flmul@grs^(0+384),w
  4079  04C8  1683               	bsf	3,5	;RP0=1, select bank1
  4080  04C9  1303               	bcf	3,6	;RP1=0, select bank1
  4081  04CA  00CB               	movwf	??___flmul^(0+128)
  4082  04CB  30FF               	movlw	255
  4083  04CC  1683               	bsf	3,5	;RP0=1, select bank3
  4084  04CD  1703               	bsf	3,6	;RP1=1, select bank3
  4085  04CE  0528               	andwf	(___flmul@grs+1)^(0+384),w
  4086  04CF  1683               	bsf	3,5	;RP0=1, select bank1
  4087  04D0  1303               	bcf	3,6	;RP1=0, select bank1
  4088  04D1  00CC               	movwf	(??___flmul^(0+128)+1)
  4089  04D2  30FF               	movlw	255
  4090  04D3  1683               	bsf	3,5	;RP0=1, select bank3
  4091  04D4  1703               	bsf	3,6	;RP1=1, select bank3
  4092  04D5  0529               	andwf	(___flmul@grs+2)^(0+384),w
  4093  04D6  1683               	bsf	3,5	;RP0=1, select bank1
  4094  04D7  1303               	bcf	3,6	;RP1=0, select bank1
  4095  04D8  00CD               	movwf	(??___flmul^(0+128)+2)
  4096  04D9  307F               	movlw	127
  4097  04DA  1683               	bsf	3,5	;RP0=1, select bank3
  4098  04DB  1703               	bsf	3,6	;RP1=1, select bank3
  4099  04DC  052A               	andwf	(___flmul@grs+3)^(0+384),w
  4100  04DD  1683               	bsf	3,5	;RP0=1, select bank1
  4101  04DE  1303               	bcf	3,6	;RP1=0, select bank1
  4102  04DF  00CE               	movwf	(??___flmul^(0+128)+3)
  4103  04E0  084E               	movf	(??___flmul+3)^(0+128),w
  4104  04E1  044D               	iorwf	(??___flmul+2)^(0+128),w
  4105  04E2  044C               	iorwf	(??___flmul+1)^(0+128),w
  4106  04E3  044B               	iorwf	??___flmul^(0+128),w
  4107  04E4  1903               	skipnz
  4108  04E5  2CE7               	goto	u7121
  4109  04E6  2CE8               	goto	u7120
  4110  04E7                     u7121:
  4111  04E7  2CED               	goto	l739
  4112  04E8                     u7120:
  4113  04E8                     l4408:
  4114  04E8  1683               	bsf	3,5	;RP0=1, select bank3
  4115  04E9  1703               	bsf	3,6	;RP1=1, select bank3
  4116  04EA  01A6               	clrf	___flmul@aexp^(0+384)
  4117  04EB  0AA6               	incf	___flmul@aexp^(0+384),f
  4118  04EC  2CF4               	goto	l4412
  4119  04ED                     l739:
  4120  04ED  1683               	bsf	3,5	;RP0=1, select bank3
  4121  04EE  1703               	bsf	3,6	;RP1=1, select bank3
  4122  04EF  1C2C               	btfss	___flmul@prod^(0+384),0
  4123  04F0  2CF2               	goto	u7131
  4124  04F1  2CF3               	goto	u7130
  4125  04F2                     u7131:
  4126  04F2  2CF4               	goto	l4412
  4127  04F3                     u7130:
  4128  04F3  2CE8               	goto	l4408
  4129  04F4                     l4412:
  4130  04F4  0826               	movf	___flmul@aexp^(0+384),w
  4131  04F5  1903               	btfsc	3,2
  4132  04F6  2CF8               	goto	u7141
  4133  04F7  2CF9               	goto	u7140
  4134  04F8                     u7141:
  4135  04F8  2D46               	goto	l4422
  4136  04F9                     u7140:
  4137  04F9                     l4414:
  4138  04F9  3001               	movlw	1
  4139  04FA  07AC               	addwf	___flmul@prod^(0+384),f
  4140  04FB  3000               	movlw	0
  4141  04FC  1803               	skipnc
  4142  04FD  3001               	movlw	1
  4143  04FE  07AD               	addwf	(___flmul@prod+1)^(0+384),f
  4144  04FF  3000               	movlw	0
  4145  0500  1803               	skipnc
  4146  0501  3001               	movlw	1
  4147  0502  07AE               	addwf	(___flmul@prod+2)^(0+384),f
  4148  0503  3000               	movlw	0
  4149  0504  1803               	skipnc
  4150  0505  3001               	movlw	1
  4151  0506  07AF               	addwf	(___flmul@prod+3)^(0+384),f
  4152  0507                     l4416:
  4153  0507  1C2F               	btfss	(___flmul@prod+3)^(0+384),0
  4154  0508  2D0A               	goto	u7151
  4155  0509  2D0B               	goto	u7150
  4156  050A                     u7151:
  4157  050A  2D46               	goto	l4422
  4158  050B                     u7150:
  4159  050B                     l4418:
  4160  050B  082C               	movf	___flmul@prod^(0+384),w
  4161  050C  1683               	bsf	3,5	;RP0=1, select bank1
  4162  050D  1303               	bcf	3,6	;RP1=0, select bank1
  4163  050E  00CB               	movwf	??___flmul^(0+128)
  4164  050F  1683               	bsf	3,5	;RP0=1, select bank3
  4165  0510  1703               	bsf	3,6	;RP1=1, select bank3
  4166  0511  082D               	movf	(___flmul@prod+1)^(0+384),w
  4167  0512  1683               	bsf	3,5	;RP0=1, select bank1
  4168  0513  1303               	bcf	3,6	;RP1=0, select bank1
  4169  0514  00CC               	movwf	(??___flmul^(0+128)+1)
  4170  0515  1683               	bsf	3,5	;RP0=1, select bank3
  4171  0516  1703               	bsf	3,6	;RP1=1, select bank3
  4172  0517  082E               	movf	(___flmul@prod+2)^(0+384),w
  4173  0518  1683               	bsf	3,5	;RP0=1, select bank1
  4174  0519  1303               	bcf	3,6	;RP1=0, select bank1
  4175  051A  00CD               	movwf	(??___flmul^(0+128)+2)
  4176  051B  1683               	bsf	3,5	;RP0=1, select bank3
  4177  051C  1703               	bsf	3,6	;RP1=1, select bank3
  4178  051D  082F               	movf	(___flmul@prod+3)^(0+384),w
  4179  051E  1683               	bsf	3,5	;RP0=1, select bank1
  4180  051F  1303               	bcf	3,6	;RP1=0, select bank1
  4181  0520  00CE               	movwf	(??___flmul^(0+128)+3)
  4182  0521  3001               	movlw	1
  4183  0522  00CF               	movwf	(??___flmul+4)^(0+128)
  4184  0523                     u7165:
  4185  0523  0D4E               	rlf	(??___flmul^(0+128)+3),w
  4186  0524  0CCE               	rrf	(??___flmul^(0+128)+3),f
  4187  0525  0CCD               	rrf	(??___flmul^(0+128)+2),f
  4188  0526  0CCC               	rrf	(??___flmul^(0+128)+1),f
  4189  0527  0CCB               	rrf	??___flmul^(0+128),f
  4190  0528                     u7160:
  4191  0528  0BCF               	decfsz	(??___flmul+4)^(0+128),f
  4192  0529  2D23               	goto	u7165
  4193  052A  084E               	movf	(??___flmul+3)^(0+128),w
  4194  052B  1683               	bsf	3,5	;RP0=1, select bank3
  4195  052C  1703               	bsf	3,6	;RP1=1, select bank3
  4196  052D  00AF               	movwf	(___flmul@prod+3)^(0+384)
  4197  052E  1683               	bsf	3,5	;RP0=1, select bank1
  4198  052F  1303               	bcf	3,6	;RP1=0, select bank1
  4199  0530  084D               	movf	(??___flmul+2)^(0+128),w
  4200  0531  1683               	bsf	3,5	;RP0=1, select bank3
  4201  0532  1703               	bsf	3,6	;RP1=1, select bank3
  4202  0533  00AE               	movwf	(___flmul@prod+2)^(0+384)
  4203  0534  1683               	bsf	3,5	;RP0=1, select bank1
  4204  0535  1303               	bcf	3,6	;RP1=0, select bank1
  4205  0536  084C               	movf	(??___flmul+1)^(0+128),w
  4206  0537  1683               	bsf	3,5	;RP0=1, select bank3
  4207  0538  1703               	bsf	3,6	;RP1=1, select bank3
  4208  0539  00AD               	movwf	(___flmul@prod+1)^(0+384)
  4209  053A  1683               	bsf	3,5	;RP0=1, select bank1
  4210  053B  1303               	bcf	3,6	;RP1=0, select bank1
  4211  053C  084B               	movf	??___flmul^(0+128),w
  4212  053D  1683               	bsf	3,5	;RP0=1, select bank3
  4213  053E  1703               	bsf	3,6	;RP1=1, select bank3
  4214  053F  00AC               	movwf	___flmul@prod^(0+384)
  4215  0540                     l4420:
  4216  0540  3001               	movlw	1
  4217  0541  07B0               	addwf	___flmul@temp^(0+384),f
  4218  0542  1803               	skipnc
  4219  0543  0AB1               	incf	(___flmul@temp+1)^(0+384),f
  4220  0544  3000               	movlw	0
  4221  0545  07B1               	addwf	(___flmul@temp+1)^(0+384),f
  4222  0546                     l4422:
  4223  0546  0831               	movf	(___flmul@temp+1)^(0+384),w
  4224  0547  3A80               	xorlw	128
  4225  0548  00FF               	movwf	btemp+1
  4226  0549  3080               	movlw	128
  4227  054A  027F               	subwf	btemp+1,w
  4228  054B  1D03               	skipz
  4229  054C  2D4F               	goto	u7175
  4230  054D  30FF               	movlw	255
  4231  054E  0230               	subwf	___flmul@temp^(0+384),w
  4232  054F                     u7175:
  4233  054F  1C03               	skipc
  4234  0550  2D52               	goto	u7171
  4235  0551  2D53               	goto	u7170
  4236  0552                     u7171:
  4237  0552  2D5E               	goto	l4426
  4238  0553                     u7170:
  4239  0553                     l4424:
  4240  0553  307F               	movlw	127
  4241  0554  1683               	bsf	3,5	;RP0=1, select bank3
  4242  0555  1703               	bsf	3,6	;RP1=1, select bank3
  4243  0556  00AF               	movwf	(___flmul@prod+3)^(0+384)
  4244  0557  3080               	movlw	128
  4245  0558  00AE               	movwf	(___flmul@prod+2)^(0+384)
  4246  0559  3000               	movlw	0
  4247  055A  00AD               	movwf	(___flmul@prod+1)^(0+384)
  4248  055B  3000               	movlw	0
  4249  055C  00AC               	movwf	___flmul@prod^(0+384)
  4250  055D  2D9B               	goto	l745
  4251  055E                     l4426:
  4252  055E  1683               	bsf	3,5	;RP0=1, select bank3
  4253  055F  1703               	bsf	3,6	;RP1=1, select bank3
  4254  0560  0831               	movf	(___flmul@temp+1)^(0+384),w
  4255  0561  3A80               	xorlw	128
  4256  0562  00FF               	movwf	btemp+1
  4257  0563  3080               	movlw	128
  4258  0564  027F               	subwf	btemp+1,w
  4259  0565  1D03               	skipz
  4260  0566  2D69               	goto	u7185
  4261  0567  3001               	movlw	1
  4262  0568  0230               	subwf	___flmul@temp^(0+384),w
  4263  0569                     u7185:
  4264  0569  1803               	skipnc
  4265  056A  2D6C               	goto	u7181
  4266  056B  2D6D               	goto	u7180
  4267  056C                     u7181:
  4268  056C  2D79               	goto	l4432
  4269  056D                     u7180:
  4270  056D                     l4428:
  4271  056D  3000               	movlw	0
  4272  056E  1683               	bsf	3,5	;RP0=1, select bank3
  4273  056F  1703               	bsf	3,6	;RP1=1, select bank3
  4274  0570  00AF               	movwf	(___flmul@prod+3)^(0+384)
  4275  0571  3000               	movlw	0
  4276  0572  00AE               	movwf	(___flmul@prod+2)^(0+384)
  4277  0573  3000               	movlw	0
  4278  0574  00AD               	movwf	(___flmul@prod+1)^(0+384)
  4279  0575  3000               	movlw	0
  4280  0576  00AC               	movwf	___flmul@prod^(0+384)
  4281  0577                     l4430:
  4282  0577  01A5               	clrf	___flmul@sign^(0+384)
  4283  0578  2D9B               	goto	l745
  4284  0579                     l4432:
  4285  0579  1683               	bsf	3,5	;RP0=1, select bank3
  4286  057A  1703               	bsf	3,6	;RP1=1, select bank3
  4287  057B  0830               	movf	___flmul@temp^(0+384),w
  4288  057C  1683               	bsf	3,5	;RP0=1, select bank1
  4289  057D  1303               	bcf	3,6	;RP1=0, select bank1
  4290  057E  00CB               	movwf	??___flmul^(0+128)
  4291  057F  084B               	movf	??___flmul^(0+128),w
  4292  0580  1683               	bsf	3,5	;RP0=1, select bank3
  4293  0581  1703               	bsf	3,6	;RP1=1, select bank3
  4294  0582  00AB               	movwf	___flmul@bexp^(0+384)
  4295  0583  30FF               	movlw	255
  4296  0584  05AC               	andwf	___flmul@prod^(0+384),f
  4297  0585  30FF               	movlw	255
  4298  0586  05AD               	andwf	(___flmul@prod+1)^(0+384),f
  4299  0587  307F               	movlw	127
  4300  0588  05AE               	andwf	(___flmul@prod+2)^(0+384),f
  4301  0589  3000               	movlw	0
  4302  058A  05AF               	andwf	(___flmul@prod+3)^(0+384),f
  4303  058B                     l4434:
  4304  058B  1C2B               	btfss	___flmul@bexp^(0+384),0
  4305  058C  2D8E               	goto	u7191
  4306  058D  2D8F               	goto	u7190
  4307  058E                     u7191:
  4308  058E  2D90               	goto	l4438
  4309  058F                     u7190:
  4310  058F                     l4436:
  4311  058F  17AE               	bsf	(___flmul@prod^(0+384)+2),7
  4312  0590                     l4438:
  4313  0590  082B               	movf	___flmul@bexp^(0+384),w
  4314  0591  1683               	bsf	3,5	;RP0=1, select bank1
  4315  0592  1303               	bcf	3,6	;RP1=0, select bank1
  4316  0593  00CB               	movwf	??___flmul^(0+128)
  4317  0594  1003               	clrc
  4318  0595  0C4B               	rrf	??___flmul^(0+128),w
  4319  0596  00CC               	movwf	(??___flmul+1)^(0+128)
  4320  0597  084C               	movf	(??___flmul+1)^(0+128),w
  4321  0598  1683               	bsf	3,5	;RP0=1, select bank3
  4322  0599  1703               	bsf	3,6	;RP1=1, select bank3
  4323  059A  00AF               	movwf	(___flmul@prod^(0+384)+3)
  4324  059B                     l745:
  4325  059B  0825               	movf	___flmul@sign^(0+384),w
  4326  059C  1683               	bsf	3,5	;RP0=1, select bank1
  4327  059D  1303               	bcf	3,6	;RP1=0, select bank1
  4328  059E  00CB               	movwf	??___flmul^(0+128)
  4329  059F  084B               	movf	??___flmul^(0+128),w
  4330  05A0  1683               	bsf	3,5	;RP0=1, select bank3
  4331  05A1  1703               	bsf	3,6	;RP1=1, select bank3
  4332  05A2  04AF               	iorwf	(___flmul@prod^(0+384)+3),f
  4333  05A3                     l4440:
  4334  05A3  082F               	movf	(___flmul@prod+3)^(0+384),w
  4335  05A4  00A0               	movwf	(?___flmul+3)^(0+384)
  4336  05A5  082E               	movf	(___flmul@prod+2)^(0+384),w
  4337  05A6  009F               	movwf	(?___flmul+2)^(0+384)
  4338  05A7  082D               	movf	(___flmul@prod+1)^(0+384),w
  4339  05A8  009E               	movwf	(?___flmul+1)^(0+384)
  4340  05A9  082C               	movf	___flmul@prod^(0+384),w
  4341  05AA  009D               	movwf	?___flmul^(0+384)
  4342  05AB                     l733:
  4343  05AB  0008               	return
  4344  05AC                     __end_of___flmul:
  4345                           
  4346                           	psect	text6
  4347  18A9                     __ptext6:	
  4348 ;; *************** function __Umul8_16 *****************
  4349 ;; Defined at:
  4350 ;;		line 4 in file "C:\Program Files\Microchip\xc8\v2.35\pic\sources\c90\common\Umul8_16.c"
  4351 ;; Parameters:    Size  Location     Type
  4352 ;;  multiplier      1    wreg     unsigned char 
  4353 ;;  multiplicand    1   16[BANK1 ] unsigned char 
  4354 ;; Auto vars:     Size  Location     Type
  4355 ;;  multiplier      1   24[BANK1 ] unsigned char 
  4356 ;;  word_mpld       2   22[BANK1 ] unsigned int 
  4357 ;;  product         2   20[BANK1 ] unsigned int 
  4358 ;; Return value:  Size  Location     Type
  4359 ;;                  2   16[BANK1 ] unsigned int 
  4360 ;; Registers used:
  4361 ;;		wreg, status,2, status,0
  4362 ;; Tracked objects:
  4363 ;;		On entry : 0/0
  4364 ;;		On exit  : 0/0
  4365 ;;		Unchanged: 0/0
  4366 ;; Data sizes:     COMMON   BANK0   BANK1   BANK3   BANK2
  4367 ;;      Params:         0       0       2       0       0
  4368 ;;      Locals:         0       0       5       0       0
  4369 ;;      Temps:          0       0       2       0       0
  4370 ;;      Totals:         0       0       9       0       0
  4371 ;;Total ram usage:        9 bytes
  4372 ;; Hardware stack levels used: 1
  4373 ;; Hardware stack levels required when called: 4
  4374 ;; This function calls:
  4375 ;;		Nothing
  4376 ;; This function is called by:
  4377 ;;		___flmul
  4378 ;; This function uses a non-reentrant model
  4379 ;;
  4380                           
  4381  18A9                     __Umul8_16:	
  4382                           ;psect for function __Umul8_16
  4383                           
  4384                           
  4385                           ;incstack = 0
  4386                           ; Regs used in __Umul8_16: [wreg+status,2+status,0]
  4387                           ;__Umul8_16@multiplier stored from wreg
  4388  18A9  1683               	bsf	3,5	;RP0=1, select bank1
  4389  18AA  1303               	bcf	3,6	;RP1=0, select bank1
  4390  18AB  00B8               	movwf	__Umul8_16@multiplier^(0+128)
  4391  18AC                     l2506:
  4392  18AC  01B4               	clrf	__Umul8_16@product^(0+128)
  4393  18AD  01B5               	clrf	(__Umul8_16@product+1)^(0+128)
  4394  18AE                     l2508:
  4395  18AE  0830               	movf	__Umul8_16@multiplicand^(0+128),w
  4396  18AF  00B2               	movwf	??__Umul8_16^(0+128)
  4397  18B0  01B3               	clrf	(??__Umul8_16^(0+128)+1)
  4398  18B1  0832               	movf	??__Umul8_16^(0+128),w
  4399  18B2  00B6               	movwf	__Umul8_16@word_mpld^(0+128)
  4400  18B3  0833               	movf	(??__Umul8_16+1)^(0+128),w
  4401  18B4  00B7               	movwf	(__Umul8_16@word_mpld+1)^(0+128)
  4402  18B5                     l2510:
  4403  18B5  1C38               	btfss	__Umul8_16@multiplier^(0+128),0
  4404  18B6  28B8               	goto	u3271
  4405  18B7  28B9               	goto	u3270
  4406  18B8                     u3271:
  4407  18B8  28BF               	goto	l752
  4408  18B9                     u3270:
  4409  18B9                     l2512:
  4410  18B9  0836               	movf	__Umul8_16@word_mpld^(0+128),w
  4411  18BA  07B4               	addwf	__Umul8_16@product^(0+128),f
  4412  18BB  1803               	skipnc
  4413  18BC  0AB5               	incf	(__Umul8_16@product+1)^(0+128),f
  4414  18BD  0837               	movf	(__Umul8_16@word_mpld+1)^(0+128),w
  4415  18BE  07B5               	addwf	(__Umul8_16@product+1)^(0+128),f
  4416  18BF                     l752:
  4417  18BF  3001               	movlw	1
  4418  18C0                     u3285:
  4419  18C0  1003               	clrc
  4420  18C1  0DB6               	rlf	__Umul8_16@word_mpld^(0+128),f
  4421  18C2  0DB7               	rlf	(__Umul8_16@word_mpld+1)^(0+128),f
  4422  18C3  3EFF               	addlw	-1
  4423  18C4  1D03               	skipz
  4424  18C5  28C0               	goto	u3285
  4425  18C6  1003               	clrc
  4426  18C7  0CB8               	rrf	__Umul8_16@multiplier^(0+128),f
  4427  18C8                     l2514:
  4428  18C8  0838               	movf	__Umul8_16@multiplier^(0+128),w
  4429  18C9  1D03               	btfss	3,2
  4430  18CA  28CC               	goto	u3291
  4431  18CB  28CD               	goto	u3290
  4432  18CC                     u3291:
  4433  18CC  28B5               	goto	l2510
  4434  18CD                     u3290:
  4435  18CD                     l2516:
  4436  18CD  0835               	movf	(__Umul8_16@product+1)^(0+128),w
  4437  18CE  00B1               	movwf	(?__Umul8_16+1)^(0+128)
  4438  18CF  0834               	movf	__Umul8_16@product^(0+128),w
  4439  18D0  00B0               	movwf	?__Umul8_16^(0+128)
  4440  18D1                     l754:
  4441  18D1  0008               	return
  4442  18D2                     __end_of__Umul8_16:
  4443                           
  4444                           	psect	text7
  4445  08B9                     __ptext7:	
  4446 ;; *************** function ___fldiv *****************
  4447 ;; Defined at:
  4448 ;;		line 8 in file "C:\Program Files\Microchip\xc8\v2.35\pic\sources\c90\common\sprcdiv.c"
  4449 ;; Parameters:    Size  Location     Type
  4450 ;;  a               4   30[BANK1 ] unsigned int 
  4451 ;;  b               4   34[BANK1 ] unsigned int 
  4452 ;; Auto vars:     Size  Location     Type
  4453 ;;  grs             4    7[BANK3 ] unsigned long 
  4454 ;;  rem             4    0[BANK3 ] unsigned long 
  4455 ;;  new_exp         2    5[BANK3 ] int 
  4456 ;;  aexp            1   12[BANK3 ] unsigned char 
  4457 ;;  bexp            1   11[BANK3 ] unsigned char 
  4458 ;;  sign            1    4[BANK3 ] unsigned char 
  4459 ;; Return value:  Size  Location     Type
  4460 ;;                  4   30[BANK1 ] unsigned char 
  4461 ;; Registers used:
  4462 ;;		wreg, status,2, status,0, btemp+1
  4463 ;; Tracked objects:
  4464 ;;		On entry : 0/0
  4465 ;;		On exit  : 0/0
  4466 ;;		Unchanged: 0/0
  4467 ;; Data sizes:     COMMON   BANK0   BANK1   BANK3   BANK2
  4468 ;;      Params:         0       0       8       0       0
  4469 ;;      Locals:         0       0       0      13       0
  4470 ;;      Temps:          0       0       5       0       0
  4471 ;;      Totals:         0       0      13      13       0
  4472 ;;Total ram usage:       26 bytes
  4473 ;; Hardware stack levels used: 1
  4474 ;; Hardware stack levels required when called: 4
  4475 ;; This function calls:
  4476 ;;		Nothing
  4477 ;; This function is called by:
  4478 ;;		_map
  4479 ;; This function uses a non-reentrant model
  4480 ;;
  4481                           
  4482  08B9                     ___fldiv:	
  4483                           ;psect for function ___fldiv
  4484                           
  4485  08B9                     l4162:	
  4486                           ;incstack = 0
  4487                           ; Regs used in ___fldiv: [wreg+status,2+status,0+btemp+1]
  4488                           
  4489  08B9  1683               	bsf	3,5	;RP0=1, select bank1
  4490  08BA  1303               	bcf	3,6	;RP1=0, select bank1
  4491  08BB  0845               	movf	(___fldiv@b^(0+128)+3),w
  4492  08BC  3980               	andlw	128
  4493  08BD  00C6               	movwf	??___fldiv^(0+128)
  4494  08BE  0846               	movf	??___fldiv^(0+128),w
  4495  08BF  1683               	bsf	3,5	;RP0=1, select bank3
  4496  08C0  1703               	bsf	3,6	;RP1=1, select bank3
  4497  08C1  0094               	movwf	___fldiv@sign^(0+384)
  4498  08C2                     l4164:
  4499  08C2  1683               	bsf	3,5	;RP0=1, select bank1
  4500  08C3  1303               	bcf	3,6	;RP1=0, select bank1
  4501  08C4  0845               	movf	(___fldiv@b^(0+128)+3),w
  4502  08C5  00C6               	movwf	??___fldiv^(0+128)
  4503  08C6  0746               	addwf	??___fldiv^(0+128),w
  4504  08C7  00C7               	movwf	(??___fldiv+1)^(0+128)
  4505  08C8  0847               	movf	(??___fldiv+1)^(0+128),w
  4506  08C9  1683               	bsf	3,5	;RP0=1, select bank3
  4507  08CA  1703               	bsf	3,6	;RP1=1, select bank3
  4508  08CB  009B               	movwf	___fldiv@bexp^(0+384)
  4509  08CC                     l4166:
  4510  08CC  1683               	bsf	3,5	;RP0=1, select bank1
  4511  08CD  1303               	bcf	3,6	;RP1=0, select bank1
  4512  08CE  1FC4               	btfss	(___fldiv@b^(0+128)+2),7
  4513  08CF  28D1               	goto	u6531
  4514  08D0  28D2               	goto	u6530
  4515  08D1                     u6531:
  4516  08D1  28D5               	goto	l4170
  4517  08D2                     u6530:
  4518  08D2                     l4168:
  4519  08D2  1683               	bsf	3,5	;RP0=1, select bank3
  4520  08D3  1703               	bsf	3,6	;RP1=1, select bank3
  4521  08D4  141B               	bsf	___fldiv@bexp^(0+384),0
  4522  08D5                     l4170:
  4523  08D5  1683               	bsf	3,5	;RP0=1, select bank3
  4524  08D6  1703               	bsf	3,6	;RP1=1, select bank3
  4525  08D7  081B               	movf	___fldiv@bexp^(0+384),w
  4526  08D8  1903               	btfsc	3,2
  4527  08D9  28DB               	goto	u6541
  4528  08DA  28DC               	goto	u6540
  4529  08DB                     u6541:
  4530  08DB  28EF               	goto	l4180
  4531  08DC                     u6540:
  4532  08DC                     l4172:
  4533  08DC  0A1B               	incf	___fldiv@bexp^(0+384),w
  4534  08DD  1D03               	btfss	3,2
  4535  08DE  28E0               	goto	u6551
  4536  08DF  28E1               	goto	u6550
  4537  08E0                     u6551:
  4538  08E0  28EB               	goto	l4176
  4539  08E1                     u6550:
  4540  08E1                     l4174:
  4541  08E1  3000               	movlw	0
  4542  08E2  1683               	bsf	3,5	;RP0=1, select bank1
  4543  08E3  1303               	bcf	3,6	;RP1=0, select bank1
  4544  08E4  00C5               	movwf	(___fldiv@b+3)^(0+128)
  4545  08E5  3000               	movlw	0
  4546  08E6  00C4               	movwf	(___fldiv@b+2)^(0+128)
  4547  08E7  3000               	movlw	0
  4548  08E8  00C3               	movwf	(___fldiv@b+1)^(0+128)
  4549  08E9  3000               	movlw	0
  4550  08EA  00C2               	movwf	___fldiv@b^(0+128)
  4551  08EB                     l4176:
  4552  08EB  1303               	bcf	3,6	;RP1=0, select bank1
  4553  08EC  17C4               	bsf	(___fldiv@b^(0+128)+2),7
  4554  08ED                     l4178:
  4555  08ED  01C5               	clrf	(___fldiv@b^(0+128)+3)
  4556  08EE  28F9               	goto	l4182
  4557  08EF                     l4180:
  4558  08EF  3000               	movlw	0
  4559  08F0  1683               	bsf	3,5	;RP0=1, select bank1
  4560  08F1  1303               	bcf	3,6	;RP1=0, select bank1
  4561  08F2  00C5               	movwf	(___fldiv@b+3)^(0+128)
  4562  08F3  3000               	movlw	0
  4563  08F4  00C4               	movwf	(___fldiv@b+2)^(0+128)
  4564  08F5  3000               	movlw	0
  4565  08F6  00C3               	movwf	(___fldiv@b+1)^(0+128)
  4566  08F7  3000               	movlw	0
  4567  08F8  00C2               	movwf	___fldiv@b^(0+128)
  4568  08F9                     l4182:
  4569  08F9  0841               	movf	(___fldiv@a^(0+128)+3),w
  4570  08FA  3980               	andlw	128
  4571  08FB  00C6               	movwf	??___fldiv^(0+128)
  4572  08FC  0846               	movf	??___fldiv^(0+128),w
  4573  08FD  1683               	bsf	3,5	;RP0=1, select bank3
  4574  08FE  1703               	bsf	3,6	;RP1=1, select bank3
  4575  08FF  0694               	xorwf	___fldiv@sign^(0+384),f
  4576  0900                     l4184:
  4577  0900  1683               	bsf	3,5	;RP0=1, select bank1
  4578  0901  1303               	bcf	3,6	;RP1=0, select bank1
  4579  0902  0841               	movf	(___fldiv@a^(0+128)+3),w
  4580  0903  00C6               	movwf	??___fldiv^(0+128)
  4581  0904  0746               	addwf	??___fldiv^(0+128),w
  4582  0905  00C7               	movwf	(??___fldiv+1)^(0+128)
  4583  0906  0847               	movf	(??___fldiv+1)^(0+128),w
  4584  0907  1683               	bsf	3,5	;RP0=1, select bank3
  4585  0908  1703               	bsf	3,6	;RP1=1, select bank3
  4586  0909  009C               	movwf	___fldiv@aexp^(0+384)
  4587  090A                     l4186:
  4588  090A  1683               	bsf	3,5	;RP0=1, select bank1
  4589  090B  1303               	bcf	3,6	;RP1=0, select bank1
  4590  090C  1FC0               	btfss	(___fldiv@a^(0+128)+2),7
  4591  090D  290F               	goto	u6561
  4592  090E  2910               	goto	u6560
  4593  090F                     u6561:
  4594  090F  2913               	goto	l4190
  4595  0910                     u6560:
  4596  0910                     l4188:
  4597  0910  1683               	bsf	3,5	;RP0=1, select bank3
  4598  0911  1703               	bsf	3,6	;RP1=1, select bank3
  4599  0912  141C               	bsf	___fldiv@aexp^(0+384),0
  4600  0913                     l4190:
  4601  0913  1683               	bsf	3,5	;RP0=1, select bank3
  4602  0914  1703               	bsf	3,6	;RP1=1, select bank3
  4603  0915  081C               	movf	___fldiv@aexp^(0+384),w
  4604  0916  1903               	btfsc	3,2
  4605  0917  2919               	goto	u6571
  4606  0918  291A               	goto	u6570
  4607  0919                     u6571:
  4608  0919  292D               	goto	l4200
  4609  091A                     u6570:
  4610  091A                     l4192:
  4611  091A  0A1C               	incf	___fldiv@aexp^(0+384),w
  4612  091B  1D03               	btfss	3,2
  4613  091C  291E               	goto	u6581
  4614  091D  291F               	goto	u6580
  4615  091E                     u6581:
  4616  091E  2929               	goto	l4196
  4617  091F                     u6580:
  4618  091F                     l4194:
  4619  091F  3000               	movlw	0
  4620  0920  1683               	bsf	3,5	;RP0=1, select bank1
  4621  0921  1303               	bcf	3,6	;RP1=0, select bank1
  4622  0922  00C1               	movwf	(___fldiv@a+3)^(0+128)
  4623  0923  3000               	movlw	0
  4624  0924  00C0               	movwf	(___fldiv@a+2)^(0+128)
  4625  0925  3000               	movlw	0
  4626  0926  00BF               	movwf	(___fldiv@a+1)^(0+128)
  4627  0927  3000               	movlw	0
  4628  0928  00BE               	movwf	___fldiv@a^(0+128)
  4629  0929                     l4196:
  4630  0929  1303               	bcf	3,6	;RP1=0, select bank1
  4631  092A  17C0               	bsf	(___fldiv@a^(0+128)+2),7
  4632  092B                     l4198:
  4633  092B  01C1               	clrf	(___fldiv@a^(0+128)+3)
  4634  092C  2937               	goto	l693
  4635  092D                     l4200:
  4636  092D  3000               	movlw	0
  4637  092E  1683               	bsf	3,5	;RP0=1, select bank1
  4638  092F  1303               	bcf	3,6	;RP1=0, select bank1
  4639  0930  00C1               	movwf	(___fldiv@a+3)^(0+128)
  4640  0931  3000               	movlw	0
  4641  0932  00C0               	movwf	(___fldiv@a+2)^(0+128)
  4642  0933  3000               	movlw	0
  4643  0934  00BF               	movwf	(___fldiv@a+1)^(0+128)
  4644  0935  3000               	movlw	0
  4645  0936  00BE               	movwf	___fldiv@a^(0+128)
  4646  0937                     l693:
  4647  0937  0841               	movf	(___fldiv@a+3)^(0+128),w
  4648  0938  0440               	iorwf	(___fldiv@a+2)^(0+128),w
  4649  0939  043F               	iorwf	(___fldiv@a+1)^(0+128),w
  4650  093A  043E               	iorwf	___fldiv@a^(0+128),w
  4651  093B  1D03               	skipz
  4652  093C  293E               	goto	u6591
  4653  093D  293F               	goto	u6590
  4654  093E                     u6591:
  4655  093E  295C               	goto	l4210
  4656  093F                     u6590:
  4657  093F                     l4202:
  4658  093F  3000               	movlw	0
  4659  0940  00C5               	movwf	(___fldiv@b+3)^(0+128)
  4660  0941  3000               	movlw	0
  4661  0942  00C4               	movwf	(___fldiv@b+2)^(0+128)
  4662  0943  3000               	movlw	0
  4663  0944  00C3               	movwf	(___fldiv@b+1)^(0+128)
  4664  0945  3000               	movlw	0
  4665  0946  00C2               	movwf	___fldiv@b^(0+128)
  4666  0947  3080               	movlw	128
  4667  0948  04C4               	iorwf	(___fldiv@b^(0+128)+2),f
  4668  0949  307F               	movlw	127
  4669  094A  04C5               	iorwf	((___fldiv@b+1)^(0+128)+2),f
  4670  094B                     l4204:
  4671  094B  1683               	bsf	3,5	;RP0=1, select bank3
  4672  094C  1703               	bsf	3,6	;RP1=1, select bank3
  4673  094D  0814               	movf	___fldiv@sign^(0+384),w
  4674  094E  1683               	bsf	3,5	;RP0=1, select bank1
  4675  094F  1303               	bcf	3,6	;RP1=0, select bank1
  4676  0950  00C6               	movwf	??___fldiv^(0+128)
  4677  0951  0846               	movf	??___fldiv^(0+128),w
  4678  0952  04C5               	iorwf	(___fldiv@b^(0+128)+3),f
  4679  0953                     l4206:
  4680  0953  0845               	movf	(___fldiv@b+3)^(0+128),w
  4681  0954  00C1               	movwf	(?___fldiv+3)^(0+128)
  4682  0955  0844               	movf	(___fldiv@b+2)^(0+128),w
  4683  0956  00C0               	movwf	(?___fldiv+2)^(0+128)
  4684  0957  0843               	movf	(___fldiv@b+1)^(0+128),w
  4685  0958  00BF               	movwf	(?___fldiv+1)^(0+128)
  4686  0959  0842               	movf	___fldiv@b^(0+128),w
  4687  095A  00BE               	movwf	?___fldiv^(0+128)
  4688  095B  2B58               	goto	l695
  4689  095C                     l4210:
  4690  095C  1683               	bsf	3,5	;RP0=1, select bank3
  4691  095D  1703               	bsf	3,6	;RP1=1, select bank3
  4692  095E  081B               	movf	___fldiv@bexp^(0+384),w
  4693  095F  1D03               	btfss	3,2
  4694  0960  2962               	goto	u6601
  4695  0961  2963               	goto	u6600
  4696  0962                     u6601:
  4697  0962  296E               	goto	l4216
  4698  0963                     u6600:
  4699  0963                     l4212:
  4700  0963  3000               	movlw	0
  4701  0964  1683               	bsf	3,5	;RP0=1, select bank1
  4702  0965  1303               	bcf	3,6	;RP1=0, select bank1
  4703  0966  00C1               	movwf	(?___fldiv+3)^(0+128)
  4704  0967  3000               	movlw	0
  4705  0968  00C0               	movwf	(?___fldiv+2)^(0+128)
  4706  0969  3000               	movlw	0
  4707  096A  00BF               	movwf	(?___fldiv+1)^(0+128)
  4708  096B  3000               	movlw	0
  4709  096C  00BE               	movwf	?___fldiv^(0+128)
  4710  096D  2B58               	goto	l695
  4711  096E                     l4216:
  4712  096E  081B               	movf	___fldiv@bexp^(0+384),w
  4713  096F  1683               	bsf	3,5	;RP0=1, select bank1
  4714  0970  1303               	bcf	3,6	;RP1=0, select bank1
  4715  0971  00C6               	movwf	??___fldiv^(0+128)
  4716  0972  01C7               	clrf	(??___fldiv^(0+128)+1)
  4717  0973  0847               	movf	(??___fldiv+1)^(0+128),w
  4718  0974  00C9               	movwf	((??___fldiv+2)^(0+128)+1)
  4719  0975  1683               	bsf	3,5	;RP0=1, select bank3
  4720  0976  1703               	bsf	3,6	;RP1=1, select bank3
  4721  0977  081C               	movf	___fldiv@aexp^(0+384),w
  4722  0978  1683               	bsf	3,5	;RP0=1, select bank1
  4723  0979  1303               	bcf	3,6	;RP1=0, select bank1
  4724  097A  0246               	subwf	??___fldiv^(0+128),w
  4725  097B  00C8               	movwf	(??___fldiv+2)^(0+128)
  4726  097C  1C03               	skipc
  4727  097D  03C9               	decf	((??___fldiv+2)^(0+128)+1),f
  4728  097E  0848               	movf	(??___fldiv+2)^(0+128),w
  4729  097F  3E7F               	addlw	127
  4730  0980  1683               	bsf	3,5	;RP0=1, select bank3
  4731  0981  1703               	bsf	3,6	;RP1=1, select bank3
  4732  0982  0095               	movwf	___fldiv@new_exp^(0+384)
  4733  0983  1683               	bsf	3,5	;RP0=1, select bank1
  4734  0984  1303               	bcf	3,6	;RP1=0, select bank1
  4735  0985  0849               	movf	(??___fldiv+3)^(0+128),w
  4736  0986  1803               	skipnc
  4737  0987  3E01               	addlw	1
  4738  0988  3E00               	addlw	0
  4739  0989  1683               	bsf	3,5	;RP0=1, select bank3
  4740  098A  1703               	bsf	3,6	;RP1=1, select bank3
  4741  098B  0096               	movwf	(___fldiv@new_exp+1)^(0+384)
  4742  098C                     l4218:
  4743  098C  1683               	bsf	3,5	;RP0=1, select bank1
  4744  098D  1303               	bcf	3,6	;RP1=0, select bank1
  4745  098E  0845               	movf	(___fldiv@b+3)^(0+128),w
  4746  098F  1683               	bsf	3,5	;RP0=1, select bank3
  4747  0990  1703               	bsf	3,6	;RP1=1, select bank3
  4748  0991  0093               	movwf	(___fldiv@rem+3)^(0+384)
  4749  0992  1683               	bsf	3,5	;RP0=1, select bank1
  4750  0993  1303               	bcf	3,6	;RP1=0, select bank1
  4751  0994  0844               	movf	(___fldiv@b+2)^(0+128),w
  4752  0995  1683               	bsf	3,5	;RP0=1, select bank3
  4753  0996  1703               	bsf	3,6	;RP1=1, select bank3
  4754  0997  0092               	movwf	(___fldiv@rem+2)^(0+384)
  4755  0998  1683               	bsf	3,5	;RP0=1, select bank1
  4756  0999  1303               	bcf	3,6	;RP1=0, select bank1
  4757  099A  0843               	movf	(___fldiv@b+1)^(0+128),w
  4758  099B  1683               	bsf	3,5	;RP0=1, select bank3
  4759  099C  1703               	bsf	3,6	;RP1=1, select bank3
  4760  099D  0091               	movwf	(___fldiv@rem+1)^(0+384)
  4761  099E  1683               	bsf	3,5	;RP0=1, select bank1
  4762  099F  1303               	bcf	3,6	;RP1=0, select bank1
  4763  09A0  0842               	movf	___fldiv@b^(0+128),w
  4764  09A1  1683               	bsf	3,5	;RP0=1, select bank3
  4765  09A2  1703               	bsf	3,6	;RP1=1, select bank3
  4766  09A3  0090               	movwf	___fldiv@rem^(0+384)
  4767  09A4                     l4220:
  4768  09A4  3000               	movlw	0
  4769  09A5  1683               	bsf	3,5	;RP0=1, select bank1
  4770  09A6  1303               	bcf	3,6	;RP1=0, select bank1
  4771  09A7  00C5               	movwf	(___fldiv@b+3)^(0+128)
  4772  09A8  3000               	movlw	0
  4773  09A9  00C4               	movwf	(___fldiv@b+2)^(0+128)
  4774  09AA  3000               	movlw	0
  4775  09AB  00C3               	movwf	(___fldiv@b+1)^(0+128)
  4776  09AC  3000               	movlw	0
  4777  09AD  00C2               	movwf	___fldiv@b^(0+128)
  4778  09AE                     l4222:
  4779  09AE  3000               	movlw	0
  4780  09AF  1683               	bsf	3,5	;RP0=1, select bank3
  4781  09B0  1703               	bsf	3,6	;RP1=1, select bank3
  4782  09B1  009A               	movwf	(___fldiv@grs+3)^(0+384)
  4783  09B2  3000               	movlw	0
  4784  09B3  0099               	movwf	(___fldiv@grs+2)^(0+384)
  4785  09B4  3000               	movlw	0
  4786  09B5  0098               	movwf	(___fldiv@grs+1)^(0+384)
  4787  09B6  3000               	movlw	0
  4788  09B7  0097               	movwf	___fldiv@grs^(0+384)
  4789  09B8                     l4224:
  4790  09B8  019C               	clrf	___fldiv@aexp^(0+384)
  4791  09B9  2A40               	goto	l4244
  4792  09BA                     l4226:
  4793  09BA  081C               	movf	___fldiv@aexp^(0+384),w
  4794  09BB  1903               	btfsc	3,2
  4795  09BC  29BE               	goto	u6611
  4796  09BD  29BF               	goto	u6610
  4797  09BE                     u6611:
  4798  09BE  29EE               	goto	l4236
  4799  09BF                     u6610:
  4800  09BF                     l4228:
  4801  09BF  3001               	movlw	1
  4802  09C0  1683               	bsf	3,5	;RP0=1, select bank1
  4803  09C1  1303               	bcf	3,6	;RP1=0, select bank1
  4804  09C2  00C6               	movwf	??___fldiv^(0+128)
  4805  09C3                     u6625:
  4806  09C3  1003               	clrc
  4807  09C4  1683               	bsf	3,5	;RP0=1, select bank3
  4808  09C5  1703               	bsf	3,6	;RP1=1, select bank3
  4809  09C6  0D90               	rlf	___fldiv@rem^(0+384),f
  4810  09C7  0D91               	rlf	(___fldiv@rem+1)^(0+384),f
  4811  09C8  0D92               	rlf	(___fldiv@rem+2)^(0+384),f
  4812  09C9  0D93               	rlf	(___fldiv@rem+3)^(0+384),f
  4813  09CA  1683               	bsf	3,5	;RP0=1, select bank1
  4814  09CB  1303               	bcf	3,6	;RP1=0, select bank1
  4815  09CC  0BC6               	decfsz	??___fldiv^(0+128),f
  4816  09CD  29C3               	goto	u6625
  4817  09CE  3001               	movlw	1
  4818  09CF  00C6               	movwf	??___fldiv^(0+128)
  4819  09D0                     u6635:
  4820  09D0  1003               	clrc
  4821  09D1  0DC2               	rlf	___fldiv@b^(0+128),f
  4822  09D2  0DC3               	rlf	(___fldiv@b+1)^(0+128),f
  4823  09D3  0DC4               	rlf	(___fldiv@b+2)^(0+128),f
  4824  09D4  0DC5               	rlf	(___fldiv@b+3)^(0+128),f
  4825  09D5  0BC6               	decfsz	??___fldiv^(0+128),f
  4826  09D6  29D0               	goto	u6635
  4827  09D7                     l4230:
  4828  09D7  1683               	bsf	3,5	;RP0=1, select bank3
  4829  09D8  1703               	bsf	3,6	;RP1=1, select bank3
  4830  09D9  1F9A               	btfss	(___fldiv@grs+3)^(0+384),7
  4831  09DA  29DC               	goto	u6641
  4832  09DB  29DD               	goto	u6640
  4833  09DC                     u6641:
  4834  09DC  29E0               	goto	l4234
  4835  09DD                     u6640:
  4836  09DD                     l4232:
  4837  09DD  1683               	bsf	3,5	;RP0=1, select bank1
  4838  09DE  1303               	bcf	3,6	;RP1=0, select bank1
  4839  09DF  1442               	bsf	___fldiv@b^(0+128),0
  4840  09E0                     l4234:
  4841  09E0  3001               	movlw	1
  4842  09E1  1303               	bcf	3,6	;RP1=0, select bank1
  4843  09E2  00C6               	movwf	??___fldiv^(0+128)
  4844  09E3                     u6655:
  4845  09E3  1003               	clrc
  4846  09E4  1683               	bsf	3,5	;RP0=1, select bank3
  4847  09E5  1703               	bsf	3,6	;RP1=1, select bank3
  4848  09E6  0D97               	rlf	___fldiv@grs^(0+384),f
  4849  09E7  0D98               	rlf	(___fldiv@grs+1)^(0+384),f
  4850  09E8  0D99               	rlf	(___fldiv@grs+2)^(0+384),f
  4851  09E9  0D9A               	rlf	(___fldiv@grs+3)^(0+384),f
  4852  09EA  1683               	bsf	3,5	;RP0=1, select bank1
  4853  09EB  1303               	bcf	3,6	;RP1=0, select bank1
  4854  09EC  0BC6               	decfsz	??___fldiv^(0+128),f
  4855  09ED  29E3               	goto	u6655
  4856  09EE                     l4236:
  4857  09EE  1303               	bcf	3,6	;RP1=0, select bank1
  4858  09EF  0841               	movf	(___fldiv@a+3)^(0+128),w
  4859  09F0  1683               	bsf	3,5	;RP0=1, select bank3
  4860  09F1  1703               	bsf	3,6	;RP1=1, select bank3
  4861  09F2  0213               	subwf	(___fldiv@rem+3)^(0+384),w
  4862  09F3  1D03               	skipz
  4863  09F4  2A0B               	goto	u6665
  4864  09F5  1683               	bsf	3,5	;RP0=1, select bank1
  4865  09F6  1303               	bcf	3,6	;RP1=0, select bank1
  4866  09F7  0840               	movf	(___fldiv@a+2)^(0+128),w
  4867  09F8  1683               	bsf	3,5	;RP0=1, select bank3
  4868  09F9  1703               	bsf	3,6	;RP1=1, select bank3
  4869  09FA  0212               	subwf	(___fldiv@rem+2)^(0+384),w
  4870  09FB  1D03               	skipz
  4871  09FC  2A0B               	goto	u6665
  4872  09FD  1683               	bsf	3,5	;RP0=1, select bank1
  4873  09FE  1303               	bcf	3,6	;RP1=0, select bank1
  4874  09FF  083F               	movf	(___fldiv@a+1)^(0+128),w
  4875  0A00  1683               	bsf	3,5	;RP0=1, select bank3
  4876  0A01  1703               	bsf	3,6	;RP1=1, select bank3
  4877  0A02  0211               	subwf	(___fldiv@rem+1)^(0+384),w
  4878  0A03  1D03               	skipz
  4879  0A04  2A0B               	goto	u6665
  4880  0A05  1683               	bsf	3,5	;RP0=1, select bank1
  4881  0A06  1303               	bcf	3,6	;RP1=0, select bank1
  4882  0A07  083E               	movf	___fldiv@a^(0+128),w
  4883  0A08  1683               	bsf	3,5	;RP0=1, select bank3
  4884  0A09  1703               	bsf	3,6	;RP1=1, select bank3
  4885  0A0A  0210               	subwf	___fldiv@rem^(0+384),w
  4886  0A0B                     u6665:
  4887  0A0B  1C03               	skipc
  4888  0A0C  2A0E               	goto	u6661
  4889  0A0D  2A0F               	goto	u6660
  4890  0A0E                     u6661:
  4891  0A0E  2A38               	goto	l4242
  4892  0A0F                     u6660:
  4893  0A0F                     l4238:
  4894  0A0F  171A               	bsf	(___fldiv@grs^(0+384)+3),6
  4895  0A10                     l4240:
  4896  0A10  1683               	bsf	3,5	;RP0=1, select bank1
  4897  0A11  1303               	bcf	3,6	;RP1=0, select bank1
  4898  0A12  083E               	movf	___fldiv@a^(0+128),w
  4899  0A13  1683               	bsf	3,5	;RP0=1, select bank3
  4900  0A14  1703               	bsf	3,6	;RP1=1, select bank3
  4901  0A15  0290               	subwf	___fldiv@rem^(0+384),f
  4902  0A16  1683               	bsf	3,5	;RP0=1, select bank1
  4903  0A17  1303               	bcf	3,6	;RP1=0, select bank1
  4904  0A18  083F               	movf	(___fldiv@a+1)^(0+128),w
  4905  0A19  1C03               	skipc
  4906  0A1A  0F3F               	incfsz	(___fldiv@a+1)^(0+128),w
  4907  0A1B  2A1D               	goto	u6675
  4908  0A1C  2A20               	goto	u6676
  4909  0A1D                     u6675:
  4910  0A1D  1683               	bsf	3,5	;RP0=1, select bank3
  4911  0A1E  1703               	bsf	3,6	;RP1=1, select bank3
  4912  0A1F  0291               	subwf	(___fldiv@rem+1)^(0+384),f
  4913  0A20                     u6676:
  4914  0A20  1683               	bsf	3,5	;RP0=1, select bank1
  4915  0A21  1303               	bcf	3,6	;RP1=0, select bank1
  4916  0A22  0840               	movf	(___fldiv@a+2)^(0+128),w
  4917  0A23  1C03               	skipc
  4918  0A24  0F40               	incfsz	(___fldiv@a+2)^(0+128),w
  4919  0A25  2A27               	goto	u6677
  4920  0A26  2A2A               	goto	u6678
  4921  0A27                     u6677:
  4922  0A27  1683               	bsf	3,5	;RP0=1, select bank3
  4923  0A28  1703               	bsf	3,6	;RP1=1, select bank3
  4924  0A29  0292               	subwf	(___fldiv@rem+2)^(0+384),f
  4925  0A2A                     u6678:
  4926  0A2A  1683               	bsf	3,5	;RP0=1, select bank1
  4927  0A2B  1303               	bcf	3,6	;RP1=0, select bank1
  4928  0A2C  0841               	movf	(___fldiv@a+3)^(0+128),w
  4929  0A2D  1C03               	skipc
  4930  0A2E  0F41               	incfsz	(___fldiv@a+3)^(0+128),w
  4931  0A2F  2A31               	goto	u6679
  4932  0A30  2A34               	goto	u6670
  4933  0A31                     u6679:
  4934  0A31  1683               	bsf	3,5	;RP0=1, select bank3
  4935  0A32  1703               	bsf	3,6	;RP1=1, select bank3
  4936  0A33  0293               	subwf	(___fldiv@rem+3)^(0+384),f
  4937  0A34                     u6670:
  4938  0A34  1683               	bsf	3,5	;RP0=1, select bank1
  4939  0A35  1303               	bcf	3,6	;RP1=0, select bank1
  4940  0A36  1683               	bsf	3,5	;RP0=1, select bank3
  4941  0A37  1703               	bsf	3,6	;RP1=1, select bank3
  4942  0A38                     l4242:
  4943  0A38  3001               	movlw	1
  4944  0A39  1683               	bsf	3,5	;RP0=1, select bank1
  4945  0A3A  1303               	bcf	3,6	;RP1=0, select bank1
  4946  0A3B  00C6               	movwf	??___fldiv^(0+128)
  4947  0A3C  0846               	movf	??___fldiv^(0+128),w
  4948  0A3D  1683               	bsf	3,5	;RP0=1, select bank3
  4949  0A3E  1703               	bsf	3,6	;RP1=1, select bank3
  4950  0A3F  079C               	addwf	___fldiv@aexp^(0+384),f
  4951  0A40                     l4244:
  4952  0A40  301A               	movlw	26
  4953  0A41  021C               	subwf	___fldiv@aexp^(0+384),w
  4954  0A42  1C03               	skipc
  4955  0A43  2A45               	goto	u6681
  4956  0A44  2A46               	goto	u6680
  4957  0A45                     u6681:
  4958  0A45  29BA               	goto	l4226
  4959  0A46                     u6680:
  4960  0A46                     l4246:
  4961  0A46  0813               	movf	(___fldiv@rem+3)^(0+384),w
  4962  0A47  0412               	iorwf	(___fldiv@rem+2)^(0+384),w
  4963  0A48  0411               	iorwf	(___fldiv@rem+1)^(0+384),w
  4964  0A49  0410               	iorwf	___fldiv@rem^(0+384),w
  4965  0A4A  1903               	skipnz
  4966  0A4B  2A4D               	goto	u6691
  4967  0A4C  2A4E               	goto	u6690
  4968  0A4D                     u6691:
  4969  0A4D  2A78               	goto	l4260
  4970  0A4E                     u6690:
  4971  0A4E                     l4248:
  4972  0A4E  1417               	bsf	___fldiv@grs^(0+384),0
  4973  0A4F  2A78               	goto	l4260
  4974  0A50                     l4250:
  4975  0A50  3001               	movlw	1
  4976  0A51  00C6               	movwf	??___fldiv^(0+128)
  4977  0A52                     u6705:
  4978  0A52  1003               	clrc
  4979  0A53  0DC2               	rlf	___fldiv@b^(0+128),f
  4980  0A54  0DC3               	rlf	(___fldiv@b+1)^(0+128),f
  4981  0A55  0DC4               	rlf	(___fldiv@b+2)^(0+128),f
  4982  0A56  0DC5               	rlf	(___fldiv@b+3)^(0+128),f
  4983  0A57  0BC6               	decfsz	??___fldiv^(0+128),f
  4984  0A58  2A52               	goto	u6705
  4985  0A59                     l4252:
  4986  0A59  1683               	bsf	3,5	;RP0=1, select bank3
  4987  0A5A  1703               	bsf	3,6	;RP1=1, select bank3
  4988  0A5B  1F9A               	btfss	(___fldiv@grs+3)^(0+384),7
  4989  0A5C  2A5E               	goto	u6711
  4990  0A5D  2A5F               	goto	u6710
  4991  0A5E                     u6711:
  4992  0A5E  2A62               	goto	l4256
  4993  0A5F                     u6710:
  4994  0A5F                     l4254:
  4995  0A5F  1683               	bsf	3,5	;RP0=1, select bank1
  4996  0A60  1303               	bcf	3,6	;RP1=0, select bank1
  4997  0A61  1442               	bsf	___fldiv@b^(0+128),0
  4998  0A62                     l4256:
  4999  0A62  3001               	movlw	1
  5000  0A63  1303               	bcf	3,6	;RP1=0, select bank1
  5001  0A64  00C6               	movwf	??___fldiv^(0+128)
  5002  0A65                     u6725:
  5003  0A65  1003               	clrc
  5004  0A66  1683               	bsf	3,5	;RP0=1, select bank3
  5005  0A67  1703               	bsf	3,6	;RP1=1, select bank3
  5006  0A68  0D97               	rlf	___fldiv@grs^(0+384),f
  5007  0A69  0D98               	rlf	(___fldiv@grs+1)^(0+384),f
  5008  0A6A  0D99               	rlf	(___fldiv@grs+2)^(0+384),f
  5009  0A6B  0D9A               	rlf	(___fldiv@grs+3)^(0+384),f
  5010  0A6C  1683               	bsf	3,5	;RP0=1, select bank1
  5011  0A6D  1303               	bcf	3,6	;RP1=0, select bank1
  5012  0A6E  0BC6               	decfsz	??___fldiv^(0+128),f
  5013  0A6F  2A65               	goto	u6725
  5014  0A70                     l4258:
  5015  0A70  30FF               	movlw	255
  5016  0A71  1683               	bsf	3,5	;RP0=1, select bank3
  5017  0A72  1703               	bsf	3,6	;RP1=1, select bank3
  5018  0A73  0795               	addwf	___fldiv@new_exp^(0+384),f
  5019  0A74  1803               	skipnc
  5020  0A75  0A96               	incf	(___fldiv@new_exp+1)^(0+384),f
  5021  0A76  30FF               	movlw	255
  5022  0A77  0796               	addwf	(___fldiv@new_exp+1)^(0+384),f
  5023  0A78                     l4260:
  5024  0A78  1683               	bsf	3,5	;RP0=1, select bank1
  5025  0A79  1303               	bcf	3,6	;RP1=0, select bank1
  5026  0A7A  1FC4               	btfss	(___fldiv@b+2)^(0+128),7
  5027  0A7B  2A7D               	goto	u6731
  5028  0A7C  2A7E               	goto	u6730
  5029  0A7D                     u6731:
  5030  0A7D  2A50               	goto	l4250
  5031  0A7E                     u6730:
  5032  0A7E                     l4262:
  5033  0A7E  1683               	bsf	3,5	;RP0=1, select bank3
  5034  0A7F  1703               	bsf	3,6	;RP1=1, select bank3
  5035  0A80  019C               	clrf	___fldiv@aexp^(0+384)
  5036  0A81                     l4264:
  5037  0A81  1F9A               	btfss	(___fldiv@grs+3)^(0+384),7
  5038  0A82  2A84               	goto	u6741
  5039  0A83  2A85               	goto	u6740
  5040  0A84                     u6741:
  5041  0A84  2AB1               	goto	l4272
  5042  0A85                     u6740:
  5043  0A85                     l4266:
  5044  0A85  30FF               	movlw	255
  5045  0A86  0517               	andwf	___fldiv@grs^(0+384),w
  5046  0A87  1683               	bsf	3,5	;RP0=1, select bank1
  5047  0A88  1303               	bcf	3,6	;RP1=0, select bank1
  5048  0A89  00C6               	movwf	??___fldiv^(0+128)
  5049  0A8A  30FF               	movlw	255
  5050  0A8B  1683               	bsf	3,5	;RP0=1, select bank3
  5051  0A8C  1703               	bsf	3,6	;RP1=1, select bank3
  5052  0A8D  0518               	andwf	(___fldiv@grs+1)^(0+384),w
  5053  0A8E  1683               	bsf	3,5	;RP0=1, select bank1
  5054  0A8F  1303               	bcf	3,6	;RP1=0, select bank1
  5055  0A90  00C7               	movwf	(??___fldiv^(0+128)+1)
  5056  0A91  30FF               	movlw	255
  5057  0A92  1683               	bsf	3,5	;RP0=1, select bank3
  5058  0A93  1703               	bsf	3,6	;RP1=1, select bank3
  5059  0A94  0519               	andwf	(___fldiv@grs+2)^(0+384),w
  5060  0A95  1683               	bsf	3,5	;RP0=1, select bank1
  5061  0A96  1303               	bcf	3,6	;RP1=0, select bank1
  5062  0A97  00C8               	movwf	(??___fldiv^(0+128)+2)
  5063  0A98  307F               	movlw	127
  5064  0A99  1683               	bsf	3,5	;RP0=1, select bank3
  5065  0A9A  1703               	bsf	3,6	;RP1=1, select bank3
  5066  0A9B  051A               	andwf	(___fldiv@grs+3)^(0+384),w
  5067  0A9C  1683               	bsf	3,5	;RP0=1, select bank1
  5068  0A9D  1303               	bcf	3,6	;RP1=0, select bank1
  5069  0A9E  00C9               	movwf	(??___fldiv^(0+128)+3)
  5070  0A9F  0849               	movf	(??___fldiv+3)^(0+128),w
  5071  0AA0  0448               	iorwf	(??___fldiv+2)^(0+128),w
  5072  0AA1  0447               	iorwf	(??___fldiv+1)^(0+128),w
  5073  0AA2  0446               	iorwf	??___fldiv^(0+128),w
  5074  0AA3  1903               	skipnz
  5075  0AA4  2AA6               	goto	u6751
  5076  0AA5  2AA7               	goto	u6750
  5077  0AA6                     u6751:
  5078  0AA6  2AAC               	goto	l709
  5079  0AA7                     u6750:
  5080  0AA7                     l4268:
  5081  0AA7  1683               	bsf	3,5	;RP0=1, select bank3
  5082  0AA8  1703               	bsf	3,6	;RP1=1, select bank3
  5083  0AA9  019C               	clrf	___fldiv@aexp^(0+384)
  5084  0AAA  0A9C               	incf	___fldiv@aexp^(0+384),f
  5085  0AAB  2AB1               	goto	l4272
  5086  0AAC                     l709:
  5087  0AAC  1C42               	btfss	___fldiv@b^(0+128),0
  5088  0AAD  2AAF               	goto	u6761
  5089  0AAE  2AB0               	goto	u6760
  5090  0AAF                     u6761:
  5091  0AAF  2AB1               	goto	l4272
  5092  0AB0                     u6760:
  5093  0AB0  2AA7               	goto	l4268
  5094  0AB1                     l4272:
  5095  0AB1  1683               	bsf	3,5	;RP0=1, select bank3
  5096  0AB2  1703               	bsf	3,6	;RP1=1, select bank3
  5097  0AB3  081C               	movf	___fldiv@aexp^(0+384),w
  5098  0AB4  1903               	btfsc	3,2
  5099  0AB5  2AB7               	goto	u6771
  5100  0AB6  2AB8               	goto	u6770
  5101  0AB7                     u6771:
  5102  0AB7  2AED               	goto	l4282
  5103  0AB8                     u6770:
  5104  0AB8                     l4274:
  5105  0AB8  3001               	movlw	1
  5106  0AB9  1683               	bsf	3,5	;RP0=1, select bank1
  5107  0ABA  1303               	bcf	3,6	;RP1=0, select bank1
  5108  0ABB  07C2               	addwf	___fldiv@b^(0+128),f
  5109  0ABC  3000               	movlw	0
  5110  0ABD  1803               	skipnc
  5111  0ABE  3001               	movlw	1
  5112  0ABF  07C3               	addwf	(___fldiv@b+1)^(0+128),f
  5113  0AC0  3000               	movlw	0
  5114  0AC1  1803               	skipnc
  5115  0AC2  3001               	movlw	1
  5116  0AC3  07C4               	addwf	(___fldiv@b+2)^(0+128),f
  5117  0AC4  3000               	movlw	0
  5118  0AC5  1803               	skipnc
  5119  0AC6  3001               	movlw	1
  5120  0AC7  07C5               	addwf	(___fldiv@b+3)^(0+128),f
  5121  0AC8                     l4276:
  5122  0AC8  1C45               	btfss	(___fldiv@b+3)^(0+128),0
  5123  0AC9  2ACB               	goto	u6781
  5124  0ACA  2ACC               	goto	u6780
  5125  0ACB                     u6781:
  5126  0ACB  2AED               	goto	l4282
  5127  0ACC                     u6780:
  5128  0ACC                     l4278:
  5129  0ACC  0842               	movf	___fldiv@b^(0+128),w
  5130  0ACD  00C6               	movwf	??___fldiv^(0+128)
  5131  0ACE  0843               	movf	(___fldiv@b+1)^(0+128),w
  5132  0ACF  00C7               	movwf	(??___fldiv^(0+128)+1)
  5133  0AD0  0844               	movf	(___fldiv@b+2)^(0+128),w
  5134  0AD1  00C8               	movwf	(??___fldiv^(0+128)+2)
  5135  0AD2  0845               	movf	(___fldiv@b+3)^(0+128),w
  5136  0AD3  00C9               	movwf	(??___fldiv^(0+128)+3)
  5137  0AD4  3001               	movlw	1
  5138  0AD5  00CA               	movwf	(??___fldiv+4)^(0+128)
  5139  0AD6                     u6795:
  5140  0AD6  0D49               	rlf	(??___fldiv^(0+128)+3),w
  5141  0AD7  0CC9               	rrf	(??___fldiv^(0+128)+3),f
  5142  0AD8  0CC8               	rrf	(??___fldiv^(0+128)+2),f
  5143  0AD9  0CC7               	rrf	(??___fldiv^(0+128)+1),f
  5144  0ADA  0CC6               	rrf	??___fldiv^(0+128),f
  5145  0ADB                     u6790:
  5146  0ADB  0BCA               	decfsz	(??___fldiv+4)^(0+128),f
  5147  0ADC  2AD6               	goto	u6795
  5148  0ADD  0849               	movf	(??___fldiv+3)^(0+128),w
  5149  0ADE  00C5               	movwf	(___fldiv@b+3)^(0+128)
  5150  0ADF  0848               	movf	(??___fldiv+2)^(0+128),w
  5151  0AE0  00C4               	movwf	(___fldiv@b+2)^(0+128)
  5152  0AE1  0847               	movf	(??___fldiv+1)^(0+128),w
  5153  0AE2  00C3               	movwf	(___fldiv@b+1)^(0+128)
  5154  0AE3  0846               	movf	??___fldiv^(0+128),w
  5155  0AE4  00C2               	movwf	___fldiv@b^(0+128)
  5156  0AE5                     l4280:
  5157  0AE5  3001               	movlw	1
  5158  0AE6  1683               	bsf	3,5	;RP0=1, select bank3
  5159  0AE7  1703               	bsf	3,6	;RP1=1, select bank3
  5160  0AE8  0795               	addwf	___fldiv@new_exp^(0+384),f
  5161  0AE9  1803               	skipnc
  5162  0AEA  0A96               	incf	(___fldiv@new_exp+1)^(0+384),f
  5163  0AEB  3000               	movlw	0
  5164  0AEC  0796               	addwf	(___fldiv@new_exp+1)^(0+384),f
  5165  0AED                     l4282:
  5166  0AED  1683               	bsf	3,5	;RP0=1, select bank3
  5167  0AEE  1703               	bsf	3,6	;RP1=1, select bank3
  5168  0AEF  0816               	movf	(___fldiv@new_exp+1)^(0+384),w
  5169  0AF0  3A80               	xorlw	128
  5170  0AF1  00FF               	movwf	btemp+1
  5171  0AF2  3080               	movlw	128
  5172  0AF3  027F               	subwf	btemp+1,w
  5173  0AF4  1D03               	skipz
  5174  0AF5  2AF8               	goto	u6805
  5175  0AF6  30FF               	movlw	255
  5176  0AF7  0215               	subwf	___fldiv@new_exp^(0+384),w
  5177  0AF8                     u6805:
  5178  0AF8  1C03               	skipc
  5179  0AF9  2AFB               	goto	u6801
  5180  0AFA  2AFC               	goto	u6800
  5181  0AFB                     u6801:
  5182  0AFB  2B0C               	goto	l4286
  5183  0AFC                     u6800:
  5184  0AFC                     l4284:
  5185  0AFC  30FF               	movlw	255
  5186  0AFD  1683               	bsf	3,5	;RP0=1, select bank3
  5187  0AFE  1703               	bsf	3,6	;RP1=1, select bank3
  5188  0AFF  0095               	movwf	___fldiv@new_exp^(0+384)
  5189  0B00  3000               	movlw	0
  5190  0B01  0096               	movwf	(___fldiv@new_exp^(0+384)+1)
  5191  0B02  3000               	movlw	0
  5192  0B03  1683               	bsf	3,5	;RP0=1, select bank1
  5193  0B04  1303               	bcf	3,6	;RP1=0, select bank1
  5194  0B05  00C5               	movwf	(___fldiv@b+3)^(0+128)
  5195  0B06  3000               	movlw	0
  5196  0B07  00C4               	movwf	(___fldiv@b+2)^(0+128)
  5197  0B08  3000               	movlw	0
  5198  0B09  00C3               	movwf	(___fldiv@b+1)^(0+128)
  5199  0B0A  3000               	movlw	0
  5200  0B0B  00C2               	movwf	___fldiv@b^(0+128)
  5201  0B0C                     l4286:
  5202  0B0C  1683               	bsf	3,5	;RP0=1, select bank3
  5203  0B0D  1703               	bsf	3,6	;RP1=1, select bank3
  5204  0B0E  0816               	movf	(___fldiv@new_exp+1)^(0+384),w
  5205  0B0F  3A80               	xorlw	128
  5206  0B10  00FF               	movwf	btemp+1
  5207  0B11  3080               	movlw	128
  5208  0B12  027F               	subwf	btemp+1,w
  5209  0B13  1D03               	skipz
  5210  0B14  2B17               	goto	u6815
  5211  0B15  3001               	movlw	1
  5212  0B16  0215               	subwf	___fldiv@new_exp^(0+384),w
  5213  0B17                     u6815:
  5214  0B17  1803               	skipnc
  5215  0B18  2B1A               	goto	u6811
  5216  0B19  2B1B               	goto	u6810
  5217  0B1A                     u6811:
  5218  0B1A  2B2C               	goto	l715
  5219  0B1B                     u6810:
  5220  0B1B                     l4288:
  5221  0B1B  1683               	bsf	3,5	;RP0=1, select bank3
  5222  0B1C  1703               	bsf	3,6	;RP1=1, select bank3
  5223  0B1D  0195               	clrf	___fldiv@new_exp^(0+384)
  5224  0B1E  0196               	clrf	(___fldiv@new_exp+1)^(0+384)
  5225  0B1F                     l4290:
  5226  0B1F  3000               	movlw	0
  5227  0B20  1683               	bsf	3,5	;RP0=1, select bank1
  5228  0B21  1303               	bcf	3,6	;RP1=0, select bank1
  5229  0B22  00C5               	movwf	(___fldiv@b+3)^(0+128)
  5230  0B23  3000               	movlw	0
  5231  0B24  00C4               	movwf	(___fldiv@b+2)^(0+128)
  5232  0B25  3000               	movlw	0
  5233  0B26  00C3               	movwf	(___fldiv@b+1)^(0+128)
  5234  0B27  3000               	movlw	0
  5235  0B28  00C2               	movwf	___fldiv@b^(0+128)
  5236  0B29                     l4292:
  5237  0B29  1683               	bsf	3,5	;RP0=1, select bank3
  5238  0B2A  1703               	bsf	3,6	;RP1=1, select bank3
  5239  0B2B  0194               	clrf	___fldiv@sign^(0+384)
  5240  0B2C                     l715:
  5241  0B2C  1683               	bsf	3,5	;RP0=1, select bank3
  5242  0B2D  1703               	bsf	3,6	;RP1=1, select bank3
  5243  0B2E  0815               	movf	___fldiv@new_exp^(0+384),w
  5244  0B2F  1683               	bsf	3,5	;RP0=1, select bank1
  5245  0B30  1303               	bcf	3,6	;RP1=0, select bank1
  5246  0B31  00C6               	movwf	??___fldiv^(0+128)
  5247  0B32  0846               	movf	??___fldiv^(0+128),w
  5248  0B33  1683               	bsf	3,5	;RP0=1, select bank3
  5249  0B34  1703               	bsf	3,6	;RP1=1, select bank3
  5250  0B35  009B               	movwf	___fldiv@bexp^(0+384)
  5251  0B36                     l4294:
  5252  0B36  1C1B               	btfss	___fldiv@bexp^(0+384),0
  5253  0B37  2B39               	goto	u6821
  5254  0B38  2B3A               	goto	u6820
  5255  0B39                     u6821:
  5256  0B39  2B3E               	goto	l4298
  5257  0B3A                     u6820:
  5258  0B3A                     l4296:
  5259  0B3A  1683               	bsf	3,5	;RP0=1, select bank1
  5260  0B3B  1303               	bcf	3,6	;RP1=0, select bank1
  5261  0B3C  17C4               	bsf	(___fldiv@b^(0+128)+2),7
  5262  0B3D  2B44               	goto	l717
  5263  0B3E                     l4298:
  5264  0B3E  307F               	movlw	127
  5265  0B3F  1683               	bsf	3,5	;RP0=1, select bank1
  5266  0B40  1303               	bcf	3,6	;RP1=0, select bank1
  5267  0B41  00C6               	movwf	??___fldiv^(0+128)
  5268  0B42  0846               	movf	??___fldiv^(0+128),w
  5269  0B43  05C4               	andwf	(___fldiv@b^(0+128)+2),f
  5270  0B44                     l717:
  5271  0B44  1683               	bsf	3,5	;RP0=1, select bank3
  5272  0B45  1703               	bsf	3,6	;RP1=1, select bank3
  5273  0B46  081B               	movf	___fldiv@bexp^(0+384),w
  5274  0B47  1683               	bsf	3,5	;RP0=1, select bank1
  5275  0B48  1303               	bcf	3,6	;RP1=0, select bank1
  5276  0B49  00C6               	movwf	??___fldiv^(0+128)
  5277  0B4A  1003               	clrc
  5278  0B4B  0C46               	rrf	??___fldiv^(0+128),w
  5279  0B4C  00C7               	movwf	(??___fldiv+1)^(0+128)
  5280  0B4D  0847               	movf	(??___fldiv+1)^(0+128),w
  5281  0B4E  00C5               	movwf	(___fldiv@b^(0+128)+3)
  5282  0B4F  1683               	bsf	3,5	;RP0=1, select bank3
  5283  0B50  1703               	bsf	3,6	;RP1=1, select bank3
  5284  0B51  0814               	movf	___fldiv@sign^(0+384),w
  5285  0B52  1683               	bsf	3,5	;RP0=1, select bank1
  5286  0B53  1303               	bcf	3,6	;RP1=0, select bank1
  5287  0B54  00C6               	movwf	??___fldiv^(0+128)
  5288  0B55  0846               	movf	??___fldiv^(0+128),w
  5289  0B56  04C5               	iorwf	(___fldiv@b^(0+128)+3),f
  5290  0B57  2953               	goto	l4206
  5291  0B58                     l695:
  5292  0B58  0008               	return
  5293  0B59                     __end_of___fldiv:
  5294                           
  5295                           	psect	text8
  5296  1217                     __ptext8:	
  5297 ;; *************** function ___fladd *****************
  5298 ;; Defined at:
  5299 ;;		line 10 in file "C:\Program Files\Microchip\xc8\v2.35\pic\sources\c90\common\sprcadd.c"
  5300 ;; Parameters:    Size  Location     Type
  5301 ;;  b               4   34[BANK3 ] unsigned char 
  5302 ;;  a               4   38[BANK3 ] unsigned char 
  5303 ;; Auto vars:     Size  Location     Type
  5304 ;;  grs             1   53[BANK3 ] unsigned char 
  5305 ;;  bexp            1   52[BANK3 ] unsigned char 
  5306 ;;  aexp            1   51[BANK3 ] unsigned char 
  5307 ;;  signs           1   50[BANK3 ] unsigned char 
  5308 ;; Return value:  Size  Location     Type
  5309 ;;                  4   34[BANK3 ] unsigned char 
  5310 ;; Registers used:
  5311 ;;		wreg, status,2, status,0, btemp+1
  5312 ;; Tracked objects:
  5313 ;;		On entry : 0/0
  5314 ;;		On exit  : 0/0
  5315 ;;		Unchanged: 0/0
  5316 ;; Data sizes:     COMMON   BANK0   BANK1   BANK3   BANK2
  5317 ;;      Params:         0       0       0       8       0
  5318 ;;      Locals:         0       0       0       4       0
  5319 ;;      Temps:          0       0       0       8       0
  5320 ;;      Totals:         0       0       0      20       0
  5321 ;;Total ram usage:       20 bytes
  5322 ;; Hardware stack levels used: 1
  5323 ;; Hardware stack levels required when called: 4
  5324 ;; This function calls:
  5325 ;;		Nothing
  5326 ;; This function is called by:
  5327 ;;		_map
  5328 ;; This function uses a non-reentrant model
  5329 ;;
  5330                           
  5331  1217                     ___fladd:	
  5332                           ;psect for function ___fladd
  5333                           
  5334  1217                     l2586:	
  5335                           ;incstack = 0
  5336                           ; Regs used in ___fladd: [wreg+status,2+status,0+btemp+1]
  5337                           
  5338  1217  1683               	bsf	3,5	;RP0=1, select bank3
  5339  1218  1703               	bsf	3,6	;RP1=1, select bank3
  5340  1219  0835               	movf	(___fladd@b^(0+384)+3),w
  5341  121A  3980               	andlw	128
  5342  121B  00BA               	movwf	??___fladd^(0+384)
  5343  121C  083A               	movf	??___fladd^(0+384),w
  5344  121D  00C2               	movwf	___fladd@signs^(0+384)
  5345  121E                     l2588:
  5346  121E  0835               	movf	(___fladd@b^(0+384)+3),w
  5347  121F  00BA               	movwf	??___fladd^(0+384)
  5348  1220  073A               	addwf	??___fladd^(0+384),w
  5349  1221  00BB               	movwf	(??___fladd+1)^(0+384)
  5350  1222  083B               	movf	(??___fladd+1)^(0+384),w
  5351  1223  00C4               	movwf	___fladd@bexp^(0+384)
  5352  1224                     l2590:
  5353  1224  1FB4               	btfss	(___fladd@b^(0+384)+2),7
  5354  1225  2A27               	goto	u3431
  5355  1226  2A28               	goto	u3430
  5356  1227                     u3431:
  5357  1227  2A29               	goto	l2594
  5358  1228                     u3430:
  5359  1228                     l2592:
  5360  1228  1444               	bsf	___fladd@bexp^(0+384),0
  5361  1229                     l2594:
  5362  1229  0844               	movf	___fladd@bexp^(0+384),w
  5363  122A  1903               	btfsc	3,2
  5364  122B  2A2D               	goto	u3441
  5365  122C  2A2E               	goto	u3440
  5366  122D                     u3441:
  5367  122D  2A3E               	goto	l2604
  5368  122E                     u3440:
  5369  122E                     l2596:
  5370  122E  0A44               	incf	___fladd@bexp^(0+384),w
  5371  122F  1D03               	btfss	3,2
  5372  1230  2A32               	goto	u3451
  5373  1231  2A33               	goto	u3450
  5374  1232                     u3451:
  5375  1232  2A3B               	goto	l2600
  5376  1233                     u3450:
  5377  1233                     l2598:
  5378  1233  3000               	movlw	0
  5379  1234  00B5               	movwf	(___fladd@b+3)^(0+384)
  5380  1235  3000               	movlw	0
  5381  1236  00B4               	movwf	(___fladd@b+2)^(0+384)
  5382  1237  3000               	movlw	0
  5383  1238  00B3               	movwf	(___fladd@b+1)^(0+384)
  5384  1239  3000               	movlw	0
  5385  123A  00B2               	movwf	___fladd@b^(0+384)
  5386  123B                     l2600:
  5387  123B  17B4               	bsf	(___fladd@b^(0+384)+2),7
  5388  123C                     l2602:
  5389  123C  01B5               	clrf	(___fladd@b^(0+384)+3)
  5390  123D  2A46               	goto	l2606
  5391  123E                     l2604:
  5392  123E  3000               	movlw	0
  5393  123F  00B5               	movwf	(___fladd@b+3)^(0+384)
  5394  1240  3000               	movlw	0
  5395  1241  00B4               	movwf	(___fladd@b+2)^(0+384)
  5396  1242  3000               	movlw	0
  5397  1243  00B3               	movwf	(___fladd@b+1)^(0+384)
  5398  1244  3000               	movlw	0
  5399  1245  00B2               	movwf	___fladd@b^(0+384)
  5400  1246                     l2606:
  5401  1246  0839               	movf	(___fladd@a^(0+384)+3),w
  5402  1247  3980               	andlw	128
  5403  1248  00BA               	movwf	??___fladd^(0+384)
  5404  1249  083A               	movf	??___fladd^(0+384),w
  5405  124A  00C3               	movwf	___fladd@aexp^(0+384)
  5406  124B                     l2608:
  5407  124B  0843               	movf	___fladd@aexp^(0+384),w
  5408  124C  0642               	xorwf	___fladd@signs^(0+384),w
  5409  124D  1903               	skipnz
  5410  124E  2A50               	goto	u3461
  5411  124F  2A51               	goto	u3460
  5412  1250                     u3461:
  5413  1250  2A52               	goto	l2612
  5414  1251                     u3460:
  5415  1251                     l2610:
  5416  1251  1742               	bsf	___fladd@signs^(0+384),6
  5417  1252                     l2612:
  5418  1252  0839               	movf	(___fladd@a^(0+384)+3),w
  5419  1253  00BA               	movwf	??___fladd^(0+384)
  5420  1254  073A               	addwf	??___fladd^(0+384),w
  5421  1255  00BB               	movwf	(??___fladd+1)^(0+384)
  5422  1256  083B               	movf	(??___fladd+1)^(0+384),w
  5423  1257  00C3               	movwf	___fladd@aexp^(0+384)
  5424  1258                     l2614:
  5425  1258  1FB8               	btfss	(___fladd@a^(0+384)+2),7
  5426  1259  2A5B               	goto	u3471
  5427  125A  2A5C               	goto	u3470
  5428  125B                     u3471:
  5429  125B  2A5D               	goto	l2618
  5430  125C                     u3470:
  5431  125C                     l2616:
  5432  125C  1443               	bsf	___fladd@aexp^(0+384),0
  5433  125D                     l2618:
  5434  125D  0843               	movf	___fladd@aexp^(0+384),w
  5435  125E  1903               	btfsc	3,2
  5436  125F  2A61               	goto	u3481
  5437  1260  2A62               	goto	u3480
  5438  1261                     u3481:
  5439  1261  2A72               	goto	l2628
  5440  1262                     u3480:
  5441  1262                     l2620:
  5442  1262  0A43               	incf	___fladd@aexp^(0+384),w
  5443  1263  1D03               	btfss	3,2
  5444  1264  2A66               	goto	u3491
  5445  1265  2A67               	goto	u3490
  5446  1266                     u3491:
  5447  1266  2A6F               	goto	l2624
  5448  1267                     u3490:
  5449  1267                     l2622:
  5450  1267  3000               	movlw	0
  5451  1268  00B9               	movwf	(___fladd@a+3)^(0+384)
  5452  1269  3000               	movlw	0
  5453  126A  00B8               	movwf	(___fladd@a+2)^(0+384)
  5454  126B  3000               	movlw	0
  5455  126C  00B7               	movwf	(___fladd@a+1)^(0+384)
  5456  126D  3000               	movlw	0
  5457  126E  00B6               	movwf	___fladd@a^(0+384)
  5458  126F                     l2624:
  5459  126F  17B8               	bsf	(___fladd@a^(0+384)+2),7
  5460  1270                     l2626:
  5461  1270  01B9               	clrf	(___fladd@a^(0+384)+3)
  5462  1271  2A7A               	goto	l637
  5463  1272                     l2628:
  5464  1272  3000               	movlw	0
  5465  1273  00B9               	movwf	(___fladd@a+3)^(0+384)
  5466  1274  3000               	movlw	0
  5467  1275  00B8               	movwf	(___fladd@a+2)^(0+384)
  5468  1276  3000               	movlw	0
  5469  1277  00B7               	movwf	(___fladd@a+1)^(0+384)
  5470  1278  3000               	movlw	0
  5471  1279  00B6               	movwf	___fladd@a^(0+384)
  5472  127A                     l637:
  5473  127A  0844               	movf	___fladd@bexp^(0+384),w
  5474  127B  0243               	subwf	___fladd@aexp^(0+384),w
  5475  127C  1803               	skipnc
  5476  127D  2A7F               	goto	u3501
  5477  127E  2A80               	goto	u3500
  5478  127F                     u3501:
  5479  127F  2AC4               	goto	l2664
  5480  1280                     u3500:
  5481  1280                     l2630:
  5482  1280  1F42               	btfss	___fladd@signs^(0+384),6
  5483  1281  2A83               	goto	u3511
  5484  1282  2A84               	goto	u3510
  5485  1283                     u3511:
  5486  1283  2A88               	goto	l2634
  5487  1284                     u3510:
  5488  1284                     l2632:
  5489  1284  3080               	movlw	128
  5490  1285  00BA               	movwf	??___fladd^(0+384)
  5491  1286  083A               	movf	??___fladd^(0+384),w
  5492  1287  06C2               	xorwf	___fladd@signs^(0+384),f
  5493  1288                     l2634:
  5494  1288  0844               	movf	___fladd@bexp^(0+384),w
  5495  1289  00BA               	movwf	??___fladd^(0+384)
  5496  128A  083A               	movf	??___fladd^(0+384),w
  5497  128B  00C5               	movwf	___fladd@grs^(0+384)
  5498  128C                     l2636:
  5499  128C  0843               	movf	___fladd@aexp^(0+384),w
  5500  128D  00BA               	movwf	??___fladd^(0+384)
  5501  128E  083A               	movf	??___fladd^(0+384),w
  5502  128F  00C4               	movwf	___fladd@bexp^(0+384)
  5503  1290                     l2638:
  5504  1290  0845               	movf	___fladd@grs^(0+384),w
  5505  1291  00BA               	movwf	??___fladd^(0+384)
  5506  1292  083A               	movf	??___fladd^(0+384),w
  5507  1293  00C3               	movwf	___fladd@aexp^(0+384)
  5508  1294                     l2640:
  5509  1294  0832               	movf	___fladd@b^(0+384),w
  5510  1295  00BA               	movwf	??___fladd^(0+384)
  5511  1296  083A               	movf	??___fladd^(0+384),w
  5512  1297  00C5               	movwf	___fladd@grs^(0+384)
  5513  1298                     l2642:
  5514  1298  0836               	movf	___fladd@a^(0+384),w
  5515  1299  00BA               	movwf	??___fladd^(0+384)
  5516  129A  083A               	movf	??___fladd^(0+384),w
  5517  129B  00B2               	movwf	___fladd@b^(0+384)
  5518  129C                     l2644:
  5519  129C  0845               	movf	___fladd@grs^(0+384),w
  5520  129D  00BA               	movwf	??___fladd^(0+384)
  5521  129E  083A               	movf	??___fladd^(0+384),w
  5522  129F  00B6               	movwf	___fladd@a^(0+384)
  5523  12A0                     l2646:
  5524  12A0  0833               	movf	(___fladd@b^(0+384)+1),w
  5525  12A1  00BA               	movwf	??___fladd^(0+384)
  5526  12A2  083A               	movf	??___fladd^(0+384),w
  5527  12A3  00C5               	movwf	___fladd@grs^(0+384)
  5528  12A4                     l2648:
  5529  12A4  0837               	movf	(___fladd@a^(0+384)+1),w
  5530  12A5  00BA               	movwf	??___fladd^(0+384)
  5531  12A6  083A               	movf	??___fladd^(0+384),w
  5532  12A7  00B3               	movwf	(___fladd@b^(0+384)+1)
  5533  12A8                     l2650:
  5534  12A8  0845               	movf	___fladd@grs^(0+384),w
  5535  12A9  00BA               	movwf	??___fladd^(0+384)
  5536  12AA  083A               	movf	??___fladd^(0+384),w
  5537  12AB  00B7               	movwf	(___fladd@a^(0+384)+1)
  5538  12AC                     l2652:
  5539  12AC  0834               	movf	(___fladd@b^(0+384)+2),w
  5540  12AD  00BA               	movwf	??___fladd^(0+384)
  5541  12AE  083A               	movf	??___fladd^(0+384),w
  5542  12AF  00C5               	movwf	___fladd@grs^(0+384)
  5543  12B0                     l2654:
  5544  12B0  0838               	movf	(___fladd@a^(0+384)+2),w
  5545  12B1  00BA               	movwf	??___fladd^(0+384)
  5546  12B2  083A               	movf	??___fladd^(0+384),w
  5547  12B3  00B4               	movwf	(___fladd@b^(0+384)+2)
  5548  12B4                     l2656:
  5549  12B4  0845               	movf	___fladd@grs^(0+384),w
  5550  12B5  00BA               	movwf	??___fladd^(0+384)
  5551  12B6  083A               	movf	??___fladd^(0+384),w
  5552  12B7  00B8               	movwf	(___fladd@a^(0+384)+2)
  5553  12B8                     l2658:
  5554  12B8  0835               	movf	(___fladd@b^(0+384)+3),w
  5555  12B9  00BA               	movwf	??___fladd^(0+384)
  5556  12BA  083A               	movf	??___fladd^(0+384),w
  5557  12BB  00C5               	movwf	___fladd@grs^(0+384)
  5558  12BC                     l2660:
  5559  12BC  0839               	movf	(___fladd@a^(0+384)+3),w
  5560  12BD  00BA               	movwf	??___fladd^(0+384)
  5561  12BE  083A               	movf	??___fladd^(0+384),w
  5562  12BF  00B5               	movwf	(___fladd@b^(0+384)+3)
  5563  12C0                     l2662:
  5564  12C0  0845               	movf	___fladd@grs^(0+384),w
  5565  12C1  00BA               	movwf	??___fladd^(0+384)
  5566  12C2  083A               	movf	??___fladd^(0+384),w
  5567  12C3  00B9               	movwf	(___fladd@a^(0+384)+3)
  5568  12C4                     l2664:
  5569  12C4  01C5               	clrf	___fladd@grs^(0+384)
  5570  12C5                     l2666:
  5571  12C5  0843               	movf	___fladd@aexp^(0+384),w
  5572  12C6  00BA               	movwf	??___fladd^(0+384)
  5573  12C7  01BB               	clrf	(??___fladd^(0+384)+1)
  5574  12C8  083B               	movf	(??___fladd+1)^(0+384),w
  5575  12C9  00BD               	movwf	((??___fladd+2)^(0+384)+1)
  5576  12CA  0844               	movf	___fladd@bexp^(0+384),w
  5577  12CB  023A               	subwf	??___fladd^(0+384),w
  5578  12CC  00BC               	movwf	(??___fladd+2)^(0+384)
  5579  12CD  1C03               	skipc
  5580  12CE  03BD               	decf	((??___fladd+2)^(0+384)+1),f
  5581  12CF  083D               	movf	(??___fladd+3)^(0+384),w
  5582  12D0  3A80               	xorlw	128
  5583  12D1  00FF               	movwf	btemp+1
  5584  12D2  3080               	movlw	128
  5585  12D3  027F               	subwf	btemp+1,w
  5586  12D4  1D03               	skipz
  5587  12D5  2AD8               	goto	u3525
  5588  12D6  301A               	movlw	26
  5589  12D7  023C               	subwf	(??___fladd+2)^(0+384),w
  5590  12D8                     u3525:
  5591  12D8  1C03               	skipc
  5592  12D9  2ADB               	goto	u3521
  5593  12DA  2ADC               	goto	u3520
  5594  12DB                     u3521:
  5595  12DB  2B19               	goto	l2682
  5596  12DC                     u3520:
  5597  12DC                     l2668:
  5598  12DC  1683               	bsf	3,5	;RP0=1, select bank3
  5599  12DD  1703               	bsf	3,6	;RP1=1, select bank3
  5600  12DE  0835               	movf	(___fladd@b+3)^(0+384),w
  5601  12DF  0434               	iorwf	(___fladd@b+2)^(0+384),w
  5602  12E0  0433               	iorwf	(___fladd@b+1)^(0+384),w
  5603  12E1  0432               	iorwf	___fladd@b^(0+384),w
  5604  12E2  1D03               	skipz
  5605  12E3  2AE5               	goto	u3531
  5606  12E4  2AE7               	goto	u3530
  5607  12E5                     u3531:
  5608  12E5  3001               	movlw	1
  5609  12E6  2AE8               	goto	u3540
  5610  12E7                     u3530:
  5611  12E7  3000               	movlw	0
  5612  12E8                     u3540:
  5613  12E8  00BA               	movwf	??___fladd^(0+384)
  5614  12E9  083A               	movf	??___fladd^(0+384),w
  5615  12EA  00C5               	movwf	___fladd@grs^(0+384)
  5616  12EB  3000               	movlw	0
  5617  12EC  00B5               	movwf	(___fladd@b+3)^(0+384)
  5618  12ED  3000               	movlw	0
  5619  12EE  00B4               	movwf	(___fladd@b+2)^(0+384)
  5620  12EF  3000               	movlw	0
  5621  12F0  00B3               	movwf	(___fladd@b+1)^(0+384)
  5622  12F1  3000               	movlw	0
  5623  12F2  00B2               	movwf	___fladd@b^(0+384)
  5624  12F3  0843               	movf	___fladd@aexp^(0+384),w
  5625  12F4  00BA               	movwf	??___fladd^(0+384)
  5626  12F5  083A               	movf	??___fladd^(0+384),w
  5627  12F6  00C4               	movwf	___fladd@bexp^(0+384)
  5628  12F7  2B21               	goto	l641
  5629  12F8                     l643:
  5630  12F8  1C45               	btfss	___fladd@grs^(0+384),0
  5631  12F9  2AFB               	goto	u3551
  5632  12FA  2AFC               	goto	u3550
  5633  12FB                     u3551:
  5634  12FB  2B05               	goto	l2672
  5635  12FC                     u3550:
  5636  12FC                     l2670:
  5637  12FC  0845               	movf	___fladd@grs^(0+384),w
  5638  12FD  00BA               	movwf	??___fladd^(0+384)
  5639  12FE  1003               	clrc
  5640  12FF  0C3A               	rrf	??___fladd^(0+384),w
  5641  1300  3801               	iorlw	1
  5642  1301  00BB               	movwf	(??___fladd+1)^(0+384)
  5643  1302  083B               	movf	(??___fladd+1)^(0+384),w
  5644  1303  00C5               	movwf	___fladd@grs^(0+384)
  5645  1304  2B07               	goto	l2674
  5646  1305                     l2672:
  5647  1305  1003               	clrc
  5648  1306  0CC5               	rrf	___fladd@grs^(0+384),f
  5649  1307                     l2674:
  5650  1307  1C32               	btfss	___fladd@b^(0+384),0
  5651  1308  2B0A               	goto	u3561
  5652  1309  2B0B               	goto	u3560
  5653  130A                     u3561:
  5654  130A  2B0C               	goto	l2678
  5655  130B                     u3560:
  5656  130B                     l2676:
  5657  130B  17C5               	bsf	___fladd@grs^(0+384),7
  5658  130C                     l2678:
  5659  130C  3001               	movlw	1
  5660  130D  00BA               	movwf	??___fladd^(0+384)
  5661  130E                     u3575:
  5662  130E  0D35               	rlf	(___fladd@b+3)^(0+384),w
  5663  130F  0CB5               	rrf	(___fladd@b+3)^(0+384),f
  5664  1310  0CB4               	rrf	(___fladd@b+2)^(0+384),f
  5665  1311  0CB3               	rrf	(___fladd@b+1)^(0+384),f
  5666  1312  0CB2               	rrf	___fladd@b^(0+384),f
  5667  1313  0BBA               	decfsz	(??___fladd^(0+384))& (0+127),f
  5668  1314  2B0E               	goto	u3575
  5669  1315                     l2680:
  5670  1315  3001               	movlw	1
  5671  1316  00BA               	movwf	??___fladd^(0+384)
  5672  1317  083A               	movf	??___fladd^(0+384),w
  5673  1318  07C4               	addwf	___fladd@bexp^(0+384),f
  5674  1319                     l2682:
  5675  1319  1683               	bsf	3,5	;RP0=1, select bank3
  5676  131A  1703               	bsf	3,6	;RP1=1, select bank3
  5677  131B  0843               	movf	___fladd@aexp^(0+384),w
  5678  131C  0244               	subwf	___fladd@bexp^(0+384),w
  5679  131D  1C03               	skipc
  5680  131E  2B20               	goto	u3581
  5681  131F  2B21               	goto	u3580
  5682  1320                     u3581:
  5683  1320  2AF8               	goto	l643
  5684  1321                     u3580:
  5685  1321                     l641:
  5686  1321  1B42               	btfsc	___fladd@signs^(0+384),6
  5687  1322  2B24               	goto	u3591
  5688  1323  2B25               	goto	u3590
  5689  1324                     u3591:
  5690  1324  2B70               	goto	l2708
  5691  1325                     u3590:
  5692  1325                     l2684:
  5693  1325  0844               	movf	___fladd@bexp^(0+384),w
  5694  1326  1D03               	btfss	3,2
  5695  1327  2B29               	goto	u3601
  5696  1328  2B2A               	goto	u3600
  5697  1329                     u3601:
  5698  1329  2B33               	goto	l2690
  5699  132A                     u3600:
  5700  132A                     l2686:
  5701  132A  3000               	movlw	0
  5702  132B  00B5               	movwf	(?___fladd+3)^(0+384)
  5703  132C  3000               	movlw	0
  5704  132D  00B4               	movwf	(?___fladd+2)^(0+384)
  5705  132E  3000               	movlw	0
  5706  132F  00B3               	movwf	(?___fladd+1)^(0+384)
  5707  1330  3000               	movlw	0
  5708  1331  00B2               	movwf	?___fladd^(0+384)
  5709  1332  2C9E               	goto	l650
  5710  1333                     l2690:
  5711  1333  0836               	movf	___fladd@a^(0+384),w
  5712  1334  07B2               	addwf	___fladd@b^(0+384),f
  5713  1335  0837               	movf	(___fladd@a+1)^(0+384),w
  5714  1336  1103               	clrz
  5715  1337  1803               	skipnc
  5716  1338  3E01               	addlw	1
  5717  1339  1903               	skipnz
  5718  133A  2B3C               	goto	u3611
  5719  133B  07B3               	addwf	(___fladd@b+1)^(0+384),f
  5720  133C                     u3611:
  5721  133C  0838               	movf	(___fladd@a+2)^(0+384),w
  5722  133D  1103               	clrz
  5723  133E  1803               	skipnc
  5724  133F  3E01               	addlw	1
  5725  1340  1903               	skipnz
  5726  1341  2B43               	goto	u3612
  5727  1342  07B4               	addwf	(___fladd@b+2)^(0+384),f
  5728  1343                     u3612:
  5729  1343  0839               	movf	(___fladd@a+3)^(0+384),w
  5730  1344  1103               	clrz
  5731  1345  1803               	skipnc
  5732  1346  3E01               	addlw	1
  5733  1347  1903               	skipnz
  5734  1348  2B4A               	goto	u3613
  5735  1349  07B5               	addwf	(___fladd@b+3)^(0+384),f
  5736  134A                     u3613:
  5737  134A                     l2692:
  5738  134A  1C35               	btfss	(___fladd@b+3)^(0+384),0
  5739  134B  2B4D               	goto	u3621
  5740  134C  2B4E               	goto	u3620
  5741  134D                     u3621:
  5742  134D  2C24               	goto	l2742
  5743  134E                     u3620:
  5744  134E                     l2694:
  5745  134E  1C45               	btfss	___fladd@grs^(0+384),0
  5746  134F  2B51               	goto	u3631
  5747  1350  2B52               	goto	u3630
  5748  1351                     u3631:
  5749  1351  2B5B               	goto	l2698
  5750  1352                     u3630:
  5751  1352                     l2696:
  5752  1352  0845               	movf	___fladd@grs^(0+384),w
  5753  1353  00BA               	movwf	??___fladd^(0+384)
  5754  1354  1003               	clrc
  5755  1355  0C3A               	rrf	??___fladd^(0+384),w
  5756  1356  3801               	iorlw	1
  5757  1357  00BB               	movwf	(??___fladd+1)^(0+384)
  5758  1358  083B               	movf	(??___fladd+1)^(0+384),w
  5759  1359  00C5               	movwf	___fladd@grs^(0+384)
  5760  135A  2B5D               	goto	l2700
  5761  135B                     l2698:
  5762  135B  1003               	clrc
  5763  135C  0CC5               	rrf	___fladd@grs^(0+384),f
  5764  135D                     l2700:
  5765  135D  1C32               	btfss	___fladd@b^(0+384),0
  5766  135E  2B60               	goto	u3641
  5767  135F  2B61               	goto	u3640
  5768  1360                     u3641:
  5769  1360  2B62               	goto	l2704
  5770  1361                     u3640:
  5771  1361                     l2702:
  5772  1361  17C5               	bsf	___fladd@grs^(0+384),7
  5773  1362                     l2704:
  5774  1362  3001               	movlw	1
  5775  1363  00BA               	movwf	??___fladd^(0+384)
  5776  1364                     u3655:
  5777  1364  0D35               	rlf	(___fladd@b+3)^(0+384),w
  5778  1365  0CB5               	rrf	(___fladd@b+3)^(0+384),f
  5779  1366  0CB4               	rrf	(___fladd@b+2)^(0+384),f
  5780  1367  0CB3               	rrf	(___fladd@b+1)^(0+384),f
  5781  1368  0CB2               	rrf	___fladd@b^(0+384),f
  5782  1369  0BBA               	decfsz	(??___fladd^(0+384))& (0+127),f
  5783  136A  2B64               	goto	u3655
  5784  136B                     l2706:
  5785  136B  3001               	movlw	1
  5786  136C  00BA               	movwf	??___fladd^(0+384)
  5787  136D  083A               	movf	??___fladd^(0+384),w
  5788  136E  07C4               	addwf	___fladd@bexp^(0+384),f
  5789  136F  2C24               	goto	l2742
  5790  1370                     l2708:
  5791  1370  0835               	movf	(___fladd@b+3)^(0+384),w
  5792  1371  3A80               	xorlw	128
  5793  1372  00FF               	movwf	btemp+1
  5794  1373  0839               	movf	(___fladd@a+3)^(0+384),w
  5795  1374  3A80               	xorlw	128
  5796  1375  027F               	subwf	btemp+1,w
  5797  1376  1D03               	skipz
  5798  1377  2B82               	goto	u3663
  5799  1378  0838               	movf	(___fladd@a+2)^(0+384),w
  5800  1379  0234               	subwf	(___fladd@b+2)^(0+384),w
  5801  137A  1D03               	skipz
  5802  137B  2B82               	goto	u3663
  5803  137C  0837               	movf	(___fladd@a+1)^(0+384),w
  5804  137D  0233               	subwf	(___fladd@b+1)^(0+384),w
  5805  137E  1D03               	skipz
  5806  137F  2B82               	goto	u3663
  5807  1380  0836               	movf	___fladd@a^(0+384),w
  5808  1381  0232               	subwf	___fladd@b^(0+384),w
  5809  1382                     u3663:
  5810  1382  1803               	skipnc
  5811  1383  2B85               	goto	u3661
  5812  1384  2B86               	goto	u3660
  5813  1385                     u3661:
  5814  1385  2BDE               	goto	l2718
  5815  1386                     u3660:
  5816  1386                     l2710:
  5817  1386  30FF               	movlw	255
  5818  1387  00BA               	movwf	??___fladd^(0+384)
  5819  1388  30FF               	movlw	255
  5820  1389  00BB               	movwf	(??___fladd^(0+384)+1)
  5821  138A  30FF               	movlw	255
  5822  138B  00BC               	movwf	(??___fladd^(0+384)+2)
  5823  138C  30FF               	movlw	255
  5824  138D  00BD               	movwf	(??___fladd^(0+384)+3)
  5825  138E  0836               	movf	___fladd@a^(0+384),w
  5826  138F  00BE               	movwf	(??___fladd+4)^(0+384)
  5827  1390  0837               	movf	(___fladd@a+1)^(0+384),w
  5828  1391  00BF               	movwf	((??___fladd+4)^(0+384)+1)
  5829  1392  0838               	movf	(___fladd@a+2)^(0+384),w
  5830  1393  00C0               	movwf	((??___fladd+4)^(0+384)+2)
  5831  1394  0839               	movf	(___fladd@a+3)^(0+384),w
  5832  1395  00C1               	movwf	((??___fladd+4)^(0+384)+3)
  5833  1396  0832               	movf	___fladd@b^(0+384),w
  5834  1397  02BE               	subwf	(??___fladd+4)^(0+384),f
  5835  1398  0833               	movf	(___fladd@b+1)^(0+384),w
  5836  1399  1C03               	skipc
  5837  139A  0F33               	incfsz	(___fladd@b+1)^(0+384),w
  5838  139B  2B9D               	goto	u3671
  5839  139C  2B9E               	goto	u3672
  5840  139D                     u3671:
  5841  139D  02BF               	subwf	((??___fladd+4)^(0+384)+1),f
  5842  139E                     u3672:
  5843  139E  0834               	movf	(___fladd@b+2)^(0+384),w
  5844  139F  1C03               	skipc
  5845  13A0  0F34               	incfsz	(___fladd@b+2)^(0+384),w
  5846  13A1  2BA3               	goto	u3673
  5847  13A2  2BA4               	goto	u3674
  5848  13A3                     u3673:
  5849  13A3  02C0               	subwf	((??___fladd+4)^(0+384)+2),f
  5850  13A4                     u3674:
  5851  13A4  0835               	movf	(___fladd@b+3)^(0+384),w
  5852  13A5  1C03               	skipc
  5853  13A6  0F35               	incfsz	(___fladd@b+3)^(0+384),w
  5854  13A7  2BA9               	goto	u3675
  5855  13A8  2BAA               	goto	u3676
  5856  13A9                     u3675:
  5857  13A9  02C1               	subwf	((??___fladd+4)^(0+384)+3),f
  5858  13AA                     u3676:
  5859  13AA  083E               	movf	(??___fladd+4)^(0+384),w
  5860  13AB  07BA               	addwf	??___fladd^(0+384),f
  5861  13AC  083F               	movf	(??___fladd+5)^(0+384),w
  5862  13AD  1803               	skipnc
  5863  13AE  0F3F               	incfsz	(??___fladd+5)^(0+384),w
  5864  13AF  2BB1               	goto	u3680
  5865  13B0  2BB2               	goto	u3681
  5866  13B1                     u3680:
  5867  13B1  07BB               	addwf	(??___fladd^(0+384)+1),f
  5868  13B2                     u3681:
  5869  13B2  0840               	movf	(??___fladd+6)^(0+384),w
  5870  13B3  1803               	skipnc
  5871  13B4  0F40               	incfsz	(??___fladd+6)^(0+384),w
  5872  13B5  2BB7               	goto	u3682
  5873  13B6  2BB8               	goto	u3683
  5874  13B7                     u3682:
  5875  13B7  07BC               	addwf	(??___fladd^(0+384)+2),f
  5876  13B8                     u3683:
  5877  13B8  0841               	movf	(??___fladd+7)^(0+384),w
  5878  13B9  1803               	skipnc
  5879  13BA  0A41               	incf	(??___fladd+7)^(0+384),w
  5880  13BB  07BD               	addwf	(??___fladd^(0+384)+3),f
  5881  13BC  083D               	movf	(??___fladd+3)^(0+384),w
  5882  13BD  00B5               	movwf	(___fladd@b+3)^(0+384)
  5883  13BE  083C               	movf	(??___fladd+2)^(0+384),w
  5884  13BF  00B4               	movwf	(___fladd@b+2)^(0+384)
  5885  13C0  083B               	movf	(??___fladd+1)^(0+384),w
  5886  13C1  00B3               	movwf	(___fladd@b+1)^(0+384)
  5887  13C2  083A               	movf	??___fladd^(0+384),w
  5888  13C3  00B2               	movwf	___fladd@b^(0+384)
  5889  13C4                     l2712:
  5890  13C4  3080               	movlw	128
  5891  13C5  00BA               	movwf	??___fladd^(0+384)
  5892  13C6  083A               	movf	??___fladd^(0+384),w
  5893  13C7  06C2               	xorwf	___fladd@signs^(0+384),f
  5894  13C8  09C5               	comf	___fladd@grs^(0+384),f
  5895  13C9  0AC5               	incf	___fladd@grs^(0+384),f
  5896  13CA                     l2714:
  5897  13CA  0845               	movf	___fladd@grs^(0+384),w
  5898  13CB  1D03               	btfss	3,2
  5899  13CC  2BCE               	goto	u3691
  5900  13CD  2BCF               	goto	u3690
  5901  13CE                     u3691:
  5902  13CE  2BEC               	goto	l658
  5903  13CF                     u3690:
  5904  13CF                     l2716:
  5905  13CF  3001               	movlw	1
  5906  13D0  07B2               	addwf	___fladd@b^(0+384),f
  5907  13D1  3000               	movlw	0
  5908  13D2  1803               	skipnc
  5909  13D3  3001               	movlw	1
  5910  13D4  07B3               	addwf	(___fladd@b+1)^(0+384),f
  5911  13D5  3000               	movlw	0
  5912  13D6  1803               	skipnc
  5913  13D7  3001               	movlw	1
  5914  13D8  07B4               	addwf	(___fladd@b+2)^(0+384),f
  5915  13D9  3000               	movlw	0
  5916  13DA  1803               	skipnc
  5917  13DB  3001               	movlw	1
  5918  13DC  07B5               	addwf	(___fladd@b+3)^(0+384),f
  5919  13DD  2BEC               	goto	l658
  5920  13DE                     l2718:
  5921  13DE  0836               	movf	___fladd@a^(0+384),w
  5922  13DF  02B2               	subwf	___fladd@b^(0+384),f
  5923  13E0  0837               	movf	(___fladd@a+1)^(0+384),w
  5924  13E1  1C03               	skipc
  5925  13E2  0F37               	incfsz	(___fladd@a+1)^(0+384),w
  5926  13E3  02B3               	subwf	(___fladd@b+1)^(0+384),f
  5927  13E4  0838               	movf	(___fladd@a+2)^(0+384),w
  5928  13E5  1C03               	skipc
  5929  13E6  0F38               	incfsz	(___fladd@a+2)^(0+384),w
  5930  13E7  02B4               	subwf	(___fladd@b+2)^(0+384),f
  5931  13E8  0839               	movf	(___fladd@a+3)^(0+384),w
  5932  13E9  1C03               	skipc
  5933  13EA  0F39               	incfsz	(___fladd@a+3)^(0+384),w
  5934  13EB  02B5               	subwf	(___fladd@b+3)^(0+384),f
  5935  13EC                     l658:
  5936  13EC  0835               	movf	(___fladd@b+3)^(0+384),w
  5937  13ED  0434               	iorwf	(___fladd@b+2)^(0+384),w
  5938  13EE  0433               	iorwf	(___fladd@b+1)^(0+384),w
  5939  13EF  0432               	iorwf	___fladd@b^(0+384),w
  5940  13F0  1D03               	skipz
  5941  13F1  2BF3               	goto	u3701
  5942  13F2  2BF4               	goto	u3700
  5943  13F3                     u3701:
  5944  13F3  2C20               	goto	l2740
  5945  13F4                     u3700:
  5946  13F4                     l2720:
  5947  13F4  0845               	movf	___fladd@grs^(0+384),w
  5948  13F5  1D03               	btfss	3,2
  5949  13F6  2BF8               	goto	u3711
  5950  13F7  2BF9               	goto	u3710
  5951  13F8                     u3711:
  5952  13F8  2C20               	goto	l2740
  5953  13F9                     u3710:
  5954  13F9                     l2722:
  5955  13F9  3000               	movlw	0
  5956  13FA  00B5               	movwf	(?___fladd+3)^(0+384)
  5957  13FB  3000               	movlw	0
  5958  13FC  00B4               	movwf	(?___fladd+2)^(0+384)
  5959  13FD  3000               	movlw	0
  5960  13FE  00B3               	movwf	(?___fladd+1)^(0+384)
  5961  13FF  3000               	movlw	0
  5962  1400  00B2               	movwf	?___fladd^(0+384)
  5963  1401  2C9E               	goto	l650
  5964  1402                     l2726:
  5965  1402  3001               	movlw	1
  5966  1403  00BA               	movwf	??___fladd^(0+384)
  5967  1404                     u3725:
  5968  1404  1003               	clrc
  5969  1405  0DB2               	rlf	___fladd@b^(0+384),f
  5970  1406  0DB3               	rlf	(___fladd@b+1)^(0+384),f
  5971  1407  0DB4               	rlf	(___fladd@b+2)^(0+384),f
  5972  1408  0DB5               	rlf	(___fladd@b+3)^(0+384),f
  5973  1409  0BBA               	decfsz	??___fladd^(0+384),f
  5974  140A  2C04               	goto	u3725
  5975  140B                     l2728:
  5976  140B  1FC5               	btfss	___fladd@grs^(0+384),7
  5977  140C  2C0E               	goto	u3731
  5978  140D  2C0F               	goto	u3730
  5979  140E                     u3731:
  5980  140E  2C10               	goto	l662
  5981  140F                     u3730:
  5982  140F                     l2730:
  5983  140F  1432               	bsf	___fladd@b^(0+384),0
  5984  1410                     l662:
  5985  1410  1C45               	btfss	___fladd@grs^(0+384),0
  5986  1411  2C13               	goto	u3741
  5987  1412  2C14               	goto	u3740
  5988  1413                     u3741:
  5989  1413  2C17               	goto	l2734
  5990  1414                     u3740:
  5991  1414                     l2732:
  5992  1414  1403               	setc
  5993  1415  0DC5               	rlf	___fladd@grs^(0+384),f
  5994  1416  2C19               	goto	l2736
  5995  1417                     l2734:
  5996  1417  1003               	clrc
  5997  1418  0DC5               	rlf	___fladd@grs^(0+384),f
  5998  1419                     l2736:
  5999  1419  0844               	movf	___fladd@bexp^(0+384),w
  6000  141A  1903               	btfsc	3,2
  6001  141B  2C1D               	goto	u3751
  6002  141C  2C1E               	goto	u3750
  6003  141D                     u3751:
  6004  141D  2C20               	goto	l2740
  6005  141E                     u3750:
  6006  141E                     l2738:
  6007  141E  3001               	movlw	1
  6008  141F  02C4               	subwf	___fladd@bexp^(0+384),f
  6009  1420                     l2740:
  6010  1420  1FB4               	btfss	(___fladd@b+2)^(0+384),7
  6011  1421  2C23               	goto	u3761
  6012  1422  2C24               	goto	u3760
  6013  1423                     u3761:
  6014  1423  2C02               	goto	l2726
  6015  1424                     u3760:
  6016  1424                     l2742:
  6017  1424  01C3               	clrf	___fladd@aexp^(0+384)
  6018  1425                     l2744:
  6019  1425  1FC5               	btfss	___fladd@grs^(0+384),7
  6020  1426  2C28               	goto	u3771
  6021  1427  2C29               	goto	u3770
  6022  1428                     u3771:
  6023  1428  2C37               	goto	l2752
  6024  1429                     u3770:
  6025  1429                     l2746:
  6026  1429  0845               	movf	___fladd@grs^(0+384),w
  6027  142A  397F               	andlw	127
  6028  142B  1903               	btfsc	3,2
  6029  142C  2C2E               	goto	u3781
  6030  142D  2C2F               	goto	u3780
  6031  142E                     u3781:
  6032  142E  2C32               	goto	l668
  6033  142F                     u3780:
  6034  142F                     l2748:
  6035  142F  01C3               	clrf	___fladd@aexp^(0+384)
  6036  1430  0AC3               	incf	___fladd@aexp^(0+384),f
  6037  1431  2C37               	goto	l2752
  6038  1432                     l668:
  6039  1432  1C32               	btfss	___fladd@b^(0+384),0
  6040  1433  2C35               	goto	u3791
  6041  1434  2C36               	goto	u3790
  6042  1435                     u3791:
  6043  1435  2C37               	goto	l2752
  6044  1436                     u3790:
  6045  1436  2C2F               	goto	l2748
  6046  1437                     l2752:
  6047  1437  0843               	movf	___fladd@aexp^(0+384),w
  6048  1438  1903               	btfsc	3,2
  6049  1439  2C3B               	goto	u3801
  6050  143A  2C3C               	goto	u3800
  6051  143B                     u3801:
  6052  143B  2C70               	goto	l671
  6053  143C                     u3800:
  6054  143C                     l2754:
  6055  143C  3001               	movlw	1
  6056  143D  07B2               	addwf	___fladd@b^(0+384),f
  6057  143E  3000               	movlw	0
  6058  143F  1803               	skipnc
  6059  1440  3001               	movlw	1
  6060  1441  07B3               	addwf	(___fladd@b+1)^(0+384),f
  6061  1442  3000               	movlw	0
  6062  1443  1803               	skipnc
  6063  1444  3001               	movlw	1
  6064  1445  07B4               	addwf	(___fladd@b+2)^(0+384),f
  6065  1446  3000               	movlw	0
  6066  1447  1803               	skipnc
  6067  1448  3001               	movlw	1
  6068  1449  07B5               	addwf	(___fladd@b+3)^(0+384),f
  6069  144A                     l2756:
  6070  144A  1C35               	btfss	(___fladd@b+3)^(0+384),0
  6071  144B  2C4D               	goto	u3811
  6072  144C  2C4E               	goto	u3810
  6073  144D                     u3811:
  6074  144D  2C70               	goto	l671
  6075  144E                     u3810:
  6076  144E                     l2758:
  6077  144E  0832               	movf	___fladd@b^(0+384),w
  6078  144F  00BA               	movwf	??___fladd^(0+384)
  6079  1450  0833               	movf	(___fladd@b+1)^(0+384),w
  6080  1451  00BB               	movwf	(??___fladd^(0+384)+1)
  6081  1452  0834               	movf	(___fladd@b+2)^(0+384),w
  6082  1453  00BC               	movwf	(??___fladd^(0+384)+2)
  6083  1454  0835               	movf	(___fladd@b+3)^(0+384),w
  6084  1455  00BD               	movwf	(??___fladd^(0+384)+3)
  6085  1456  3001               	movlw	1
  6086  1457  00BE               	movwf	(??___fladd+4)^(0+384)
  6087  1458                     u3825:
  6088  1458  0D3D               	rlf	(??___fladd^(0+384)+3),w
  6089  1459  0CBD               	rrf	(??___fladd^(0+384)+3),f
  6090  145A  0CBC               	rrf	(??___fladd^(0+384)+2),f
  6091  145B  0CBB               	rrf	(??___fladd^(0+384)+1),f
  6092  145C  0CBA               	rrf	??___fladd^(0+384),f
  6093  145D                     u3820:
  6094  145D  0BBE               	decfsz	(??___fladd+4)^(0+384),f
  6095  145E  2C58               	goto	u3825
  6096  145F  083D               	movf	(??___fladd+3)^(0+384),w
  6097  1460  00B5               	movwf	(___fladd@b+3)^(0+384)
  6098  1461  083C               	movf	(??___fladd+2)^(0+384),w
  6099  1462  00B4               	movwf	(___fladd@b+2)^(0+384)
  6100  1463  083B               	movf	(??___fladd+1)^(0+384),w
  6101  1464  00B3               	movwf	(___fladd@b+1)^(0+384)
  6102  1465  083A               	movf	??___fladd^(0+384),w
  6103  1466  00B2               	movwf	___fladd@b^(0+384)
  6104  1467  0A44               	incf	___fladd@bexp^(0+384),w
  6105  1468  1903               	btfsc	3,2
  6106  1469  2C6B               	goto	u3831
  6107  146A  2C6C               	goto	u3830
  6108  146B                     u3831:
  6109  146B  2C70               	goto	l671
  6110  146C                     u3830:
  6111  146C                     l2760:
  6112  146C  3001               	movlw	1
  6113  146D  00BA               	movwf	??___fladd^(0+384)
  6114  146E  083A               	movf	??___fladd^(0+384),w
  6115  146F  07C4               	addwf	___fladd@bexp^(0+384),f
  6116  1470                     l671:
  6117  1470  0A44               	incf	___fladd@bexp^(0+384),w
  6118  1471  1903               	btfsc	3,2
  6119  1472  2C74               	goto	u3841
  6120  1473  2C75               	goto	u3840
  6121  1474                     u3841:
  6122  1474  2C7A               	goto	l2764
  6123  1475                     u3840:
  6124  1475                     l2762:
  6125  1475  0844               	movf	___fladd@bexp^(0+384),w
  6126  1476  1D03               	btfss	3,2
  6127  1477  2C79               	goto	u3851
  6128  1478  2C7A               	goto	u3850
  6129  1479                     u3851:
  6130  1479  2C88               	goto	l2770
  6131  147A                     u3850:
  6132  147A                     l2764:
  6133  147A  3000               	movlw	0
  6134  147B  00B5               	movwf	(___fladd@b+3)^(0+384)
  6135  147C  3000               	movlw	0
  6136  147D  00B4               	movwf	(___fladd@b+2)^(0+384)
  6137  147E  3000               	movlw	0
  6138  147F  00B3               	movwf	(___fladd@b+1)^(0+384)
  6139  1480  3000               	movlw	0
  6140  1481  00B2               	movwf	___fladd@b^(0+384)
  6141  1482                     l2766:
  6142  1482  0844               	movf	___fladd@bexp^(0+384),w
  6143  1483  1D03               	btfss	3,2
  6144  1484  2C86               	goto	u3861
  6145  1485  2C87               	goto	u3860
  6146  1486                     u3861:
  6147  1486  2C88               	goto	l2770
  6148  1487                     u3860:
  6149  1487                     l2768:
  6150  1487  01C2               	clrf	___fladd@signs^(0+384)
  6151  1488                     l2770:
  6152  1488  1C44               	btfss	___fladd@bexp^(0+384),0
  6153  1489  2C8B               	goto	u3871
  6154  148A  2C8C               	goto	u3870
  6155  148B                     u3871:
  6156  148B  2C8E               	goto	l2774
  6157  148C                     u3870:
  6158  148C                     l2772:
  6159  148C  17B4               	bsf	(___fladd@b^(0+384)+2),7
  6160  148D  2C92               	goto	l679
  6161  148E                     l2774:
  6162  148E  307F               	movlw	127
  6163  148F  00BA               	movwf	??___fladd^(0+384)
  6164  1490  083A               	movf	??___fladd^(0+384),w
  6165  1491  05B4               	andwf	(___fladd@b^(0+384)+2),f
  6166  1492                     l679:
  6167  1492  0844               	movf	___fladd@bexp^(0+384),w
  6168  1493  00BA               	movwf	??___fladd^(0+384)
  6169  1494  1003               	clrc
  6170  1495  0C3A               	rrf	??___fladd^(0+384),w
  6171  1496  00BB               	movwf	(??___fladd+1)^(0+384)
  6172  1497  083B               	movf	(??___fladd+1)^(0+384),w
  6173  1498  00B5               	movwf	(___fladd@b^(0+384)+3)
  6174  1499                     l2776:
  6175  1499  1FC2               	btfss	___fladd@signs^(0+384),7
  6176  149A  2C9C               	goto	u3881
  6177  149B  2C9D               	goto	u3880
  6178  149C                     u3881:
  6179  149C  2C9E               	goto	l680
  6180  149D                     u3880:
  6181  149D                     l2778:
  6182  149D  17B5               	bsf	(___fladd@b^(0+384)+3),7
  6183  149E                     l680:
  6184  149E                     l650:
  6185  149E  0008               	return
  6186  149F                     __end_of___fladd:
  6187                           
  6188                           	psect	text9
  6189  0B59                     __ptext9:	
  6190 ;; *************** function _isr *****************
  6191 ;; Defined at:
  6192 ;;		line 78 in file "master_main_dar-alv.c"
  6193 ;; Parameters:    Size  Location     Type
  6194 ;;		None
  6195 ;; Auto vars:     Size  Location     Type
  6196 ;;		None
  6197 ;; Return value:  Size  Location     Type
  6198 ;;                  1    wreg      void 
  6199 ;; Registers used:
  6200 ;;		wreg, status,2, status,0, btemp+1, pclath, cstack
  6201 ;; Tracked objects:
  6202 ;;		On entry : 0/0
  6203 ;;		On exit  : 0/0
  6204 ;;		Unchanged: 0/0
  6205 ;; Data sizes:     COMMON   BANK0   BANK1   BANK3   BANK2
  6206 ;;      Params:         0       0       0       0       0
  6207 ;;      Locals:         0       0       0       0       0
  6208 ;;      Temps:          0       0       5       0       0
  6209 ;;      Totals:         0       0       5       0       0
  6210 ;;Total ram usage:        5 bytes
  6211 ;; Hardware stack levels used: 1
  6212 ;; Hardware stack levels required when called: 3
  6213 ;; This function calls:
  6214 ;;		_EEPROM_read
  6215 ;;		_load_data_rb1
  6216 ;;		_load_data_rb2
  6217 ;;		i1_map
  6218 ;; This function is called by:
  6219 ;;		Interrupt level 1
  6220 ;; This function uses a non-reentrant model
  6221 ;;
  6222                           
  6223  0B59                     _isr:	
  6224                           ;psect for function _isr
  6225                           
  6226  0B59                     i1l3822:
  6227                           
  6228                           ;master_main_dar-alv.c: 79:     if(INTCONbits.RBIF){
  6229  0B59  1C0B               	btfss	11,0	;volatile
  6230  0B5A  2B5C               	goto	u606_21
  6231  0B5B  2B5D               	goto	u606_20
  6232  0B5C                     u606_21:
  6233  0B5C  2E9D               	goto	i1l3992
  6234  0B5D                     u606_20:
  6235  0B5D                     i1l3824:
  6236                           
  6237                           ;master_main_dar-alv.c: 80:         A = 1;
  6238  0B5D  01DF               	clrf	_A^(0+128)
  6239  0B5E  0ADF               	incf	_A^(0+128),f
  6240                           
  6241                           ;master_main_dar-alv.c: 81:         C = 1;
  6242  0B5F  01DE               	clrf	_C^(0+128)
  6243  0B60  0ADE               	incf	_C^(0+128),f
  6244                           
  6245                           ;master_main_dar-alv.c: 82:         E = 1;
  6246  0B61  01DC               	clrf	_E^(0+128)
  6247  0B62  0ADC               	incf	_E^(0+128),f
  6248                           
  6249                           ;master_main_dar-alv.c: 83:         if (!PORTBbits.RB0){
  6250  0B63  1283               	bcf	3,5	;RP0=0, select bank0
  6251  0B64  1303               	bcf	3,6	;RP1=0, select bank0
  6252  0B65  1806               	btfsc	6,0	;volatile
  6253  0B66  2B68               	goto	u607_21
  6254  0B67  2B69               	goto	u607_20
  6255  0B68                     u607_21:
  6256  0B68  2B72               	goto	i1l3830
  6257  0B69                     u607_20:
  6258  0B69                     i1l3826:
  6259                           
  6260                           ;master_main_dar-alv.c: 84:             A = 0;
  6261  0B69  1683               	bsf	3,5	;RP0=1, select bank1
  6262  0B6A  1303               	bcf	3,6	;RP1=0, select bank1
  6263  0B6B  01DF               	clrf	_A^(0+128)
  6264  0B6C                     i1l3828:
  6265                           
  6266                           ;master_main_dar-alv.c: 85:             B = A;
  6267  0B6C  085F               	movf	_A^(0+128),w
  6268  0B6D  00AB               	movwf	??_isr^(0+128)
  6269  0B6E  082B               	movf	??_isr^(0+128),w
  6270  0B6F  1283               	bcf	3,5	;RP0=0, select bank0
  6271  0B70  1303               	bcf	3,6	;RP1=0, select bank0
  6272  0B71  00EF               	movwf	_B
  6273  0B72                     i1l3830:
  6274                           
  6275                           ;master_main_dar-alv.c: 87:         if (B != A){
  6276  0B72  086F               	movf	_B,w
  6277  0B73  1683               	bsf	3,5	;RP0=1, select bank1
  6278  0B74  1303               	bcf	3,6	;RP1=0, select bank1
  6279  0B75  065F               	xorwf	_A^(0+128),w
  6280  0B76  1903               	skipnz
  6281  0B77  2B79               	goto	u608_21
  6282  0B78  2B7A               	goto	u608_20
  6283  0B79                     u608_21:
  6284  0B79  2B8A               	goto	i1l3838
  6285  0B7A                     u608_20:
  6286  0B7A                     i1l3832:
  6287                           
  6288                           ;master_main_dar-alv.c: 88:             B = A;
  6289  0B7A  085F               	movf	_A^(0+128),w
  6290  0B7B  00AB               	movwf	??_isr^(0+128)
  6291  0B7C  082B               	movf	??_isr^(0+128),w
  6292  0B7D  1283               	bcf	3,5	;RP0=0, select bank0
  6293  0B7E  1303               	bcf	3,6	;RP1=0, select bank0
  6294  0B7F  00EF               	movwf	_B
  6295  0B80                     i1l3834:
  6296                           
  6297                           ;master_main_dar-alv.c: 89:             estado++;
  6298  0B80  3001               	movlw	1
  6299  0B81  1683               	bsf	3,5	;RP0=1, select bank1
  6300  0B82  1303               	bcf	3,6	;RP1=0, select bank1
  6301  0B83  00AB               	movwf	??_isr^(0+128)
  6302  0B84  082B               	movf	??_isr^(0+128),w
  6303  0B85  07DA               	addwf	_estado^(0+128),f
  6304  0B86                     i1l3836:
  6305                           
  6306                           ;master_main_dar-alv.c: 90:             PORTE = estado;
  6307  0B86  085A               	movf	_estado^(0+128),w
  6308  0B87  1283               	bcf	3,5	;RP0=0, select bank0
  6309  0B88  1303               	bcf	3,6	;RP1=0, select bank0
  6310  0B89  0089               	movwf	9	;volatile
  6311  0B8A                     i1l3838:
  6312                           
  6313                           ;master_main_dar-alv.c: 92:         if (estado > 2){
  6314  0B8A  3003               	movlw	3
  6315  0B8B  1683               	bsf	3,5	;RP0=1, select bank1
  6316  0B8C  1303               	bcf	3,6	;RP1=0, select bank1
  6317  0B8D  025A               	subwf	_estado^(0+128),w
  6318  0B8E  1C03               	skipc
  6319  0B8F  2B91               	goto	u609_21
  6320  0B90  2B92               	goto	u609_20
  6321  0B91                     u609_21:
  6322  0B91  2B97               	goto	i1l3844
  6323  0B92                     u609_20:
  6324  0B92                     i1l3840:
  6325                           
  6326                           ;master_main_dar-alv.c: 93:             estado = 0;
  6327  0B92  01DA               	clrf	_estado^(0+128)
  6328  0B93                     i1l3842:
  6329                           
  6330                           ;master_main_dar-alv.c: 94:             PORTE = estado;
  6331  0B93  085A               	movf	_estado^(0+128),w
  6332  0B94  1283               	bcf	3,5	;RP0=0, select bank0
  6333  0B95  1303               	bcf	3,6	;RP1=0, select bank0
  6334  0B96  0089               	movwf	9	;volatile
  6335  0B97                     i1l3844:
  6336                           
  6337                           ;master_main_dar-alv.c: 97:         if (estado == 0){
  6338  0B97  1683               	bsf	3,5	;RP0=1, select bank1
  6339  0B98  1303               	bcf	3,6	;RP1=0, select bank1
  6340  0B99  085A               	movf	_estado^(0+128),w
  6341  0B9A  1D03               	btfss	3,2
  6342  0B9B  2B9D               	goto	u610_21
  6343  0B9C  2B9E               	goto	u610_20
  6344  0B9D                     u610_21:
  6345  0B9D  2BDC               	goto	i1l3868
  6346  0B9E                     u610_20:
  6347  0B9E                     i1l3846:
  6348                           
  6349                           ;master_main_dar-alv.c: 98:             if(!PORTBbits.RB1){
  6350  0B9E  1283               	bcf	3,5	;RP0=0, select bank0
  6351  0B9F  1303               	bcf	3,6	;RP1=0, select bank0
  6352  0BA0  1886               	btfsc	6,1	;volatile
  6353  0BA1  2BA3               	goto	u611_21
  6354  0BA2  2BA4               	goto	u611_20
  6355  0BA3                     u611_21:
  6356  0BA3  2BAB               	goto	i1l3852
  6357  0BA4                     u611_20:
  6358  0BA4                     i1l3848:
  6359                           
  6360                           ;master_main_dar-alv.c: 99:                 C = 0;
  6361  0BA4  1683               	bsf	3,5	;RP0=1, select bank1
  6362  0BA5  1303               	bcf	3,6	;RP1=0, select bank1
  6363  0BA6  01DE               	clrf	_C^(0+128)
  6364  0BA7                     i1l3850:
  6365                           
  6366                           ;master_main_dar-alv.c: 100:                 D = C;
  6367  0BA7  085E               	movf	_C^(0+128),w
  6368  0BA8  00AB               	movwf	??_isr^(0+128)
  6369  0BA9  082B               	movf	??_isr^(0+128),w
  6370  0BAA  00DD               	movwf	_D^(0+128)
  6371  0BAB                     i1l3852:
  6372                           
  6373                           ;master_main_dar-alv.c: 102:             if (D != C){
  6374  0BAB  1683               	bsf	3,5	;RP0=1, select bank1
  6375  0BAC  1303               	bcf	3,6	;RP1=0, select bank1
  6376  0BAD  085D               	movf	_D^(0+128),w
  6377  0BAE  065E               	xorwf	_C^(0+128),w
  6378  0BAF  1903               	skipnz
  6379  0BB0  2BB2               	goto	u612_21
  6380  0BB1  2BB3               	goto	u612_20
  6381  0BB2                     u612_21:
  6382  0BB2  2BBD               	goto	i1l155
  6383  0BB3                     u612_20:
  6384  0BB3                     i1l3854:
  6385                           
  6386                           ;master_main_dar-alv.c: 103:                 D = C;
  6387  0BB3  085E               	movf	_C^(0+128),w
  6388  0BB4  00AB               	movwf	??_isr^(0+128)
  6389  0BB5  082B               	movf	??_isr^(0+128),w
  6390  0BB6  00DD               	movwf	_D^(0+128)
  6391  0BB7                     i1l3856:
  6392                           
  6393                           ;master_main_dar-alv.c: 104:                 load_data_rb1();
  6394  0BB7  160A  158A  20D2  120A  158A  	fcall	_load_data_rb1
  6395                           
  6396                           ;master_main_dar-alv.c: 105:             }
  6397  0BBC  2BCA               	goto	i1l3862
  6398  0BBD                     i1l155:	
  6399                           ;master_main_dar-alv.c: 106:             else if(!PORTBbits.RB2){
  6400                           
  6401  0BBD  1283               	bcf	3,5	;RP0=0, select bank0
  6402  0BBE  1303               	bcf	3,6	;RP1=0, select bank0
  6403  0BBF  1906               	btfsc	6,2	;volatile
  6404  0BC0  2BC2               	goto	u613_21
  6405  0BC1  2BC3               	goto	u613_20
  6406  0BC2                     u613_21:
  6407  0BC2  2BCA               	goto	i1l3862
  6408  0BC3                     u613_20:
  6409  0BC3                     i1l3858:
  6410                           
  6411                           ;master_main_dar-alv.c: 107:                 E = 0;
  6412  0BC3  1683               	bsf	3,5	;RP0=1, select bank1
  6413  0BC4  1303               	bcf	3,6	;RP1=0, select bank1
  6414  0BC5  01DC               	clrf	_E^(0+128)
  6415  0BC6                     i1l3860:
  6416                           
  6417                           ;master_main_dar-alv.c: 108:                 F = E;
  6418  0BC6  085C               	movf	_E^(0+128),w
  6419  0BC7  00AB               	movwf	??_isr^(0+128)
  6420  0BC8  082B               	movf	??_isr^(0+128),w
  6421  0BC9  00DB               	movwf	_F^(0+128)
  6422  0BCA                     i1l3862:
  6423                           
  6424                           ;master_main_dar-alv.c: 110:             if (F != E){
  6425  0BCA  1683               	bsf	3,5	;RP0=1, select bank1
  6426  0BCB  1303               	bcf	3,6	;RP1=0, select bank1
  6427  0BCC  085B               	movf	_F^(0+128),w
  6428  0BCD  065C               	xorwf	_E^(0+128),w
  6429  0BCE  1903               	skipnz
  6430  0BCF  2BD1               	goto	u614_21
  6431  0BD0  2BD2               	goto	u614_20
  6432  0BD1                     u614_21:
  6433  0BD1  2E9C               	goto	i1l159
  6434  0BD2                     u614_20:
  6435  0BD2                     i1l3864:
  6436                           
  6437                           ;master_main_dar-alv.c: 111:                 F = E;
  6438  0BD2  085C               	movf	_E^(0+128),w
  6439  0BD3  00AB               	movwf	??_isr^(0+128)
  6440  0BD4  082B               	movf	??_isr^(0+128),w
  6441  0BD5  00DB               	movwf	_F^(0+128)
  6442  0BD6                     i1l3866:
  6443                           
  6444                           ;master_main_dar-alv.c: 112:                 load_data_rb2();
  6445  0BD6  120A  118A  2789  120A  158A  	fcall	_load_data_rb2
  6446  0BDB  2E9C               	goto	i1l159
  6447  0BDC                     i1l3868:
  6448  0BDC  035A               	decf	_estado^(0+128),w
  6449  0BDD  1D03               	btfss	3,2
  6450  0BDE  2BE0               	goto	u615_21
  6451  0BDF  2BE1               	goto	u615_20
  6452  0BE0                     u615_21:
  6453  0BE0  2E9C               	goto	i1l159
  6454  0BE1                     u615_20:
  6455  0BE1                     i1l3870:
  6456                           
  6457                           ;master_main_dar-alv.c: 116:             if(!PORTBbits.RB1){
  6458  0BE1  1283               	bcf	3,5	;RP0=0, select bank0
  6459  0BE2  1303               	bcf	3,6	;RP1=0, select bank0
  6460  0BE3  1886               	btfsc	6,1	;volatile
  6461  0BE4  2BE6               	goto	u616_21
  6462  0BE5  2BE7               	goto	u616_20
  6463  0BE6                     u616_21:
  6464  0BE6  2BEE               	goto	i1l3876
  6465  0BE7                     u616_20:
  6466  0BE7                     i1l3872:
  6467                           
  6468                           ;master_main_dar-alv.c: 117:                 C = 0;
  6469  0BE7  1683               	bsf	3,5	;RP0=1, select bank1
  6470  0BE8  1303               	bcf	3,6	;RP1=0, select bank1
  6471  0BE9  01DE               	clrf	_C^(0+128)
  6472  0BEA                     i1l3874:
  6473                           
  6474                           ;master_main_dar-alv.c: 118:                 D = C;
  6475  0BEA  085E               	movf	_C^(0+128),w
  6476  0BEB  00AB               	movwf	??_isr^(0+128)
  6477  0BEC  082B               	movf	??_isr^(0+128),w
  6478  0BED  00DD               	movwf	_D^(0+128)
  6479  0BEE                     i1l3876:
  6480                           
  6481                           ;master_main_dar-alv.c: 120:             if (D != C){
  6482  0BEE  1683               	bsf	3,5	;RP0=1, select bank1
  6483  0BEF  1303               	bcf	3,6	;RP1=0, select bank1
  6484  0BF0  085D               	movf	_D^(0+128),w
  6485  0BF1  065E               	xorwf	_C^(0+128),w
  6486  0BF2  1903               	skipnz
  6487  0BF3  2BF5               	goto	u617_21
  6488  0BF4  2BF6               	goto	u617_20
  6489  0BF5                     u617_21:
  6490  0BF5  2D34               	goto	i1l162
  6491  0BF6                     u617_20:
  6492  0BF6                     i1l3878:
  6493                           
  6494                           ;master_main_dar-alv.c: 121:                 D = C;
  6495  0BF6  085E               	movf	_C^(0+128),w
  6496  0BF7  00AB               	movwf	??_isr^(0+128)
  6497  0BF8  082B               	movf	??_isr^(0+128),w
  6498  0BF9  00DD               	movwf	_D^(0+128)
  6499  0BFA                     i1l3880:
  6500                           
  6501                           ;master_main_dar-alv.c: 122:                 pot1_in = EEPROM_read(0x00);
  6502  0BFA  3000               	movlw	0
  6503  0BFB  120A  118A  27F3  120A  158A  	fcall	_EEPROM_read
  6504  0C00  1683               	bsf	3,5	;RP0=1, select bank1
  6505  0C01  1303               	bcf	3,6	;RP1=0, select bank1
  6506  0C02  00AB               	movwf	??_isr^(0+128)
  6507  0C03  082B               	movf	??_isr^(0+128),w
  6508  0C04  00D9               	movwf	_pot1_in^(0+128)
  6509  0C05                     i1l3882:
  6510                           
  6511                           ;master_main_dar-alv.c: 123:                 _delay((unsigned long)((50)*(500000/4000.0)
      +                          ));
  6512  0C05  3009               	movlw	9
  6513  0C06  1683               	bsf	3,5	;RP0=1, select bank1
  6514  0C07  1303               	bcf	3,6	;RP1=0, select bank1
  6515  0C08  00AC               	movwf	(??_isr^(0+128)+1)
  6516  0C09  301B               	movlw	27
  6517  0C0A  00AB               	movwf	??_isr^(0+128)
  6518  0C0B                     u745_27:
  6519  0C0B  0BAB               	decfsz	??_isr^(0+128),f
  6520  0C0C  2C0B               	goto	u745_27
  6521  0C0D  0BAC               	decfsz	(??_isr^(0+128)+1),f
  6522  0C0E  2C0B               	goto	u745_27
  6523  0C0F  2C10               	nop2
  6524  0C10                     i1l3884:
  6525                           
  6526                           ;master_main_dar-alv.c: 124:                 CCPR = map(pot1_in, 0, 255, 13, 80);
  6527  0C10  1683               	bsf	3,5	;RP0=1, select bank1
  6528  0C11  1303               	bcf	3,6	;RP1=0, select bank1
  6529  0C12  01A5               	clrf	i1map@x0^(0+128)
  6530  0C13  30FF               	movlw	255
  6531  0C14  00AB               	movwf	??_isr^(0+128)
  6532  0C15  082B               	movf	??_isr^(0+128),w
  6533  0C16  00A6               	movwf	i1map@x1^(0+128)
  6534  0C17  300D               	movlw	13
  6535  0C18  00A7               	movwf	i1map@y0^(0+128)
  6536  0C19  3000               	movlw	0
  6537  0C1A  00A8               	movwf	(i1map@y0^(0+128)+1)
  6538  0C1B  3050               	movlw	80
  6539  0C1C  00A9               	movwf	i1map@y1^(0+128)
  6540  0C1D  3000               	movlw	0
  6541  0C1E  00AA               	movwf	(i1map@y1^(0+128)+1)
  6542  0C1F  0859               	movf	_pot1_in^(0+128),w
  6543  0C20  120A  158A  2007  120A  158A  	fcall	i1_map
  6544  0C25  1683               	bsf	3,5	;RP0=1, select bank1
  6545  0C26  1303               	bcf	3,6	;RP1=0, select bank1
  6546  0C27  0826               	movf	(?i1_map+1)^(0+128),w
  6547  0C28  00D3               	movwf	(_CCPR+1)^(0+128)
  6548  0C29  0825               	movf	?i1_map^(0+128),w
  6549  0C2A  00D2               	movwf	_CCPR^(0+128)
  6550  0C2B                     i1l3886:
  6551                           
  6552                           ;master_main_dar-alv.c: 125:                 CCPR1L = (uint8_t)(CCPR>>2);
  6553  0C2B  0853               	movf	(_CCPR+1)^(0+128),w
  6554  0C2C  00AC               	movwf	(??_isr^(0+128)+1)
  6555  0C2D  0852               	movf	_CCPR^(0+128),w
  6556  0C2E  00AB               	movwf	??_isr^(0+128)
  6557  0C2F  1003               	clrc
  6558  0C30  0CAC               	rrf	(??_isr^(0+128)+1),f
  6559  0C31  0CAB               	rrf	??_isr^(0+128),f
  6560  0C32  1003               	clrc
  6561  0C33  0CAC               	rrf	(??_isr^(0+128)+1),f
  6562  0C34  0CAB               	rrf	??_isr^(0+128),f
  6563  0C35  082B               	movf	??_isr^(0+128),w
  6564  0C36  1283               	bcf	3,5	;RP0=0, select bank0
  6565  0C37  1303               	bcf	3,6	;RP1=0, select bank0
  6566  0C38  0095               	movwf	21	;volatile
  6567  0C39                     i1l3888:
  6568                           
  6569                           ;master_main_dar-alv.c: 126:                 CCP1CONbits.DC1B = CCPR & 0b11;
  6570  0C39  1683               	bsf	3,5	;RP0=1, select bank1
  6571  0C3A  1303               	bcf	3,6	;RP1=0, select bank1
  6572  0C3B  0852               	movf	_CCPR^(0+128),w
  6573  0C3C  3903               	andlw	3
  6574  0C3D  00AB               	movwf	??_isr^(0+128)
  6575  0C3E  0EAB               	swapf	??_isr^(0+128),f
  6576  0C3F  1283               	bcf	3,5	;RP0=0, select bank0
  6577  0C40  1303               	bcf	3,6	;RP1=0, select bank0
  6578  0C41  0817               	movf	23,w	;volatile
  6579  0C42  1683               	bsf	3,5	;RP0=1, select bank1
  6580  0C43  1303               	bcf	3,6	;RP1=0, select bank1
  6581  0C44  062B               	xorwf	??_isr^(0+128),w
  6582  0C45  39CF               	andlw	-49
  6583  0C46  062B               	xorwf	??_isr^(0+128),w
  6584  0C47  1283               	bcf	3,5	;RP0=0, select bank0
  6585  0C48  1303               	bcf	3,6	;RP1=0, select bank0
  6586  0C49  0097               	movwf	23	;volatile
  6587  0C4A                     i1l3890:
  6588                           
  6589                           ;master_main_dar-alv.c: 127:                 _delay((unsigned long)((50)*(500000/4000.0)
      +                          ));
  6590  0C4A  3009               	movlw	9
  6591  0C4B  1683               	bsf	3,5	;RP0=1, select bank1
  6592  0C4C  1303               	bcf	3,6	;RP1=0, select bank1
  6593  0C4D  00AC               	movwf	(??_isr^(0+128)+1)
  6594  0C4E  301B               	movlw	27
  6595  0C4F  00AB               	movwf	??_isr^(0+128)
  6596  0C50                     u746_27:
  6597  0C50  0BAB               	decfsz	??_isr^(0+128),f
  6598  0C51  2C50               	goto	u746_27
  6599  0C52  0BAC               	decfsz	(??_isr^(0+128)+1),f
  6600  0C53  2C50               	goto	u746_27
  6601  0C54  2C55               	nop2
  6602  0C55                     i1l3892:
  6603                           
  6604                           ;master_main_dar-alv.c: 128:                 pot2_in = EEPROM_read(0x01);
  6605  0C55  3001               	movlw	1
  6606  0C56  120A  118A  27F3  120A  158A  	fcall	_EEPROM_read
  6607  0C5B  1683               	bsf	3,5	;RP0=1, select bank1
  6608  0C5C  1303               	bcf	3,6	;RP1=0, select bank1
  6609  0C5D  00AB               	movwf	??_isr^(0+128)
  6610  0C5E  082B               	movf	??_isr^(0+128),w
  6611  0C5F  00D8               	movwf	_pot2_in^(0+128)
  6612  0C60                     i1l3894:
  6613                           
  6614                           ;master_main_dar-alv.c: 129:                 _delay((unsigned long)((50)*(500000/4000.0)
      +                          ));
  6615  0C60  3009               	movlw	9
  6616  0C61  1683               	bsf	3,5	;RP0=1, select bank1
  6617  0C62  1303               	bcf	3,6	;RP1=0, select bank1
  6618  0C63  00AC               	movwf	(??_isr^(0+128)+1)
  6619  0C64  301B               	movlw	27
  6620  0C65  00AB               	movwf	??_isr^(0+128)
  6621  0C66                     u747_27:
  6622  0C66  0BAB               	decfsz	??_isr^(0+128),f
  6623  0C67  2C66               	goto	u747_27
  6624  0C68  0BAC               	decfsz	(??_isr^(0+128)+1),f
  6625  0C69  2C66               	goto	u747_27
  6626  0C6A  2C6B               	nop2
  6627                           
  6628                           ;master_main_dar-alv.c: 130:                 CCPRx = map(pot2_in, 0, 255, 13, 80);
  6629  0C6B  1683               	bsf	3,5	;RP0=1, select bank1
  6630  0C6C  1303               	bcf	3,6	;RP1=0, select bank1
  6631  0C6D  01A5               	clrf	i1map@x0^(0+128)
  6632  0C6E  30FF               	movlw	255
  6633  0C6F  00AB               	movwf	??_isr^(0+128)
  6634  0C70  082B               	movf	??_isr^(0+128),w
  6635  0C71  00A6               	movwf	i1map@x1^(0+128)
  6636  0C72  300D               	movlw	13
  6637  0C73  00A7               	movwf	i1map@y0^(0+128)
  6638  0C74  3000               	movlw	0
  6639  0C75  00A8               	movwf	(i1map@y0^(0+128)+1)
  6640  0C76  3050               	movlw	80
  6641  0C77  00A9               	movwf	i1map@y1^(0+128)
  6642  0C78  3000               	movlw	0
  6643  0C79  00AA               	movwf	(i1map@y1^(0+128)+1)
  6644  0C7A  0858               	movf	_pot2_in^(0+128),w
  6645  0C7B  120A  158A  2007  120A  158A  	fcall	i1_map
  6646  0C80  1683               	bsf	3,5	;RP0=1, select bank1
  6647  0C81  1303               	bcf	3,6	;RP1=0, select bank1
  6648  0C82  0826               	movf	(?i1_map+1)^(0+128),w
  6649  0C83  00D1               	movwf	(_CCPRx+1)^(0+128)
  6650  0C84  0825               	movf	?i1_map^(0+128),w
  6651  0C85  00D0               	movwf	_CCPRx^(0+128)
  6652  0C86                     i1l3896:
  6653                           
  6654                           ;master_main_dar-alv.c: 131:                 CCPR2L = (uint8_t)(CCPRx>>2);
  6655  0C86  0851               	movf	(_CCPRx+1)^(0+128),w
  6656  0C87  00AC               	movwf	(??_isr^(0+128)+1)
  6657  0C88  0850               	movf	_CCPRx^(0+128),w
  6658  0C89  00AB               	movwf	??_isr^(0+128)
  6659  0C8A  1003               	clrc
  6660  0C8B  0CAC               	rrf	(??_isr^(0+128)+1),f
  6661  0C8C  0CAB               	rrf	??_isr^(0+128),f
  6662  0C8D  1003               	clrc
  6663  0C8E  0CAC               	rrf	(??_isr^(0+128)+1),f
  6664  0C8F  0CAB               	rrf	??_isr^(0+128),f
  6665  0C90  082B               	movf	??_isr^(0+128),w
  6666  0C91  1283               	bcf	3,5	;RP0=0, select bank0
  6667  0C92  1303               	bcf	3,6	;RP1=0, select bank0
  6668  0C93  009B               	movwf	27	;volatile
  6669  0C94                     i1l3898:
  6670                           
  6671                           ;master_main_dar-alv.c: 132:                 CCP2CONbits.DC2B0 = CCPRx & 0b01;
  6672  0C94  1683               	bsf	3,5	;RP0=1, select bank1
  6673  0C95  1303               	bcf	3,6	;RP1=0, select bank1
  6674  0C96  0850               	movf	_CCPRx^(0+128),w
  6675  0C97  3901               	andlw	1
  6676  0C98  00AB               	movwf	??_isr^(0+128)
  6677  0C99  0EAB               	swapf	??_isr^(0+128),f
  6678  0C9A  1283               	bcf	3,5	;RP0=0, select bank0
  6679  0C9B  1303               	bcf	3,6	;RP1=0, select bank0
  6680  0C9C  081D               	movf	29,w	;volatile
  6681  0C9D  1683               	bsf	3,5	;RP0=1, select bank1
  6682  0C9E  1303               	bcf	3,6	;RP1=0, select bank1
  6683  0C9F  062B               	xorwf	??_isr^(0+128),w
  6684  0CA0  39EF               	andlw	-17
  6685  0CA1  062B               	xorwf	??_isr^(0+128),w
  6686  0CA2  1283               	bcf	3,5	;RP0=0, select bank0
  6687  0CA3  1303               	bcf	3,6	;RP1=0, select bank0
  6688  0CA4  009D               	movwf	29	;volatile
  6689  0CA5                     i1l3900:
  6690                           
  6691                           ;master_main_dar-alv.c: 133:                 CCP2CONbits.DC2B1 = CCPRx & 0b10;
  6692  0CA5  1683               	bsf	3,5	;RP0=1, select bank1
  6693  0CA6  1303               	bcf	3,6	;RP1=0, select bank1
  6694  0CA7  0850               	movf	_CCPRx^(0+128),w
  6695  0CA8  3902               	andlw	2
  6696  0CA9  00AB               	movwf	??_isr^(0+128)
  6697  0CAA  0EAB               	swapf	??_isr^(0+128),f
  6698  0CAB  0DAB               	rlf	??_isr^(0+128),f
  6699  0CAC  1283               	bcf	3,5	;RP0=0, select bank0
  6700  0CAD  1303               	bcf	3,6	;RP1=0, select bank0
  6701  0CAE  081D               	movf	29,w	;volatile
  6702  0CAF  1683               	bsf	3,5	;RP0=1, select bank1
  6703  0CB0  1303               	bcf	3,6	;RP1=0, select bank1
  6704  0CB1  062B               	xorwf	??_isr^(0+128),w
  6705  0CB2  39DF               	andlw	-33
  6706  0CB3  062B               	xorwf	??_isr^(0+128),w
  6707  0CB4  1283               	bcf	3,5	;RP0=0, select bank0
  6708  0CB5  1303               	bcf	3,6	;RP1=0, select bank0
  6709  0CB6  009D               	movwf	29	;volatile
  6710  0CB7                     i1l3902:
  6711                           
  6712                           ;master_main_dar-alv.c: 134:                 _delay((unsigned long)((50)*(500000/4000.0)
      +                          ));
  6713  0CB7  3009               	movlw	9
  6714  0CB8  1683               	bsf	3,5	;RP0=1, select bank1
  6715  0CB9  1303               	bcf	3,6	;RP1=0, select bank1
  6716  0CBA  00AC               	movwf	(??_isr^(0+128)+1)
  6717  0CBB  301B               	movlw	27
  6718  0CBC  00AB               	movwf	??_isr^(0+128)
  6719  0CBD                     u748_27:
  6720  0CBD  0BAB               	decfsz	??_isr^(0+128),f
  6721  0CBE  2CBD               	goto	u748_27
  6722  0CBF  0BAC               	decfsz	(??_isr^(0+128)+1),f
  6723  0CC0  2CBD               	goto	u748_27
  6724  0CC1  2CC2               	nop2
  6725  0CC2                     i1l3904:
  6726                           
  6727                           ;master_main_dar-alv.c: 135:                 pot3_in = EEPROM_read(0x02);
  6728  0CC2  3002               	movlw	2
  6729  0CC3  120A  118A  27F3  120A  158A  	fcall	_EEPROM_read
  6730  0CC8  1683               	bsf	3,5	;RP0=1, select bank1
  6731  0CC9  1303               	bcf	3,6	;RP1=0, select bank1
  6732  0CCA  00AB               	movwf	??_isr^(0+128)
  6733  0CCB  082B               	movf	??_isr^(0+128),w
  6734  0CCC  00D7               	movwf	_pot3_in^(0+128)
  6735  0CCD                     i1l3906:
  6736                           
  6737                           ;master_main_dar-alv.c: 136:                 PORTDbits.RD1 = 0;
  6738  0CCD  1283               	bcf	3,5	;RP0=0, select bank0
  6739  0CCE  1303               	bcf	3,6	;RP1=0, select bank0
  6740  0CCF  1088               	bcf	8,1	;volatile
  6741  0CD0                     i1l3908:
  6742                           
  6743                           ;master_main_dar-alv.c: 137:                 _delay((unsigned long)((50)*(500000/4000.0)
      +                          ));
  6744  0CD0  3009               	movlw	9
  6745  0CD1  1683               	bsf	3,5	;RP0=1, select bank1
  6746  0CD2  1303               	bcf	3,6	;RP1=0, select bank1
  6747  0CD3  00AC               	movwf	(??_isr^(0+128)+1)
  6748  0CD4  301B               	movlw	27
  6749  0CD5  00AB               	movwf	??_isr^(0+128)
  6750  0CD6                     u749_27:
  6751  0CD6  0BAB               	decfsz	??_isr^(0+128),f
  6752  0CD7  2CD6               	goto	u749_27
  6753  0CD8  0BAC               	decfsz	(??_isr^(0+128)+1),f
  6754  0CD9  2CD6               	goto	u749_27
  6755  0CDA  2CDB               	nop2
  6756  0CDB                     i1l3910:
  6757                           
  6758                           ;master_main_dar-alv.c: 138:                 PORTDbits.RD0 = 1;
  6759  0CDB  1283               	bcf	3,5	;RP0=0, select bank0
  6760  0CDC  1303               	bcf	3,6	;RP1=0, select bank0
  6761  0CDD  1408               	bsf	8,0	;volatile
  6762  0CDE                     i1l3912:
  6763                           
  6764                           ;master_main_dar-alv.c: 139:                 _delay((unsigned long)((50)*(500000/4000.0)
      +                          ));
  6765  0CDE  3009               	movlw	9
  6766  0CDF  1683               	bsf	3,5	;RP0=1, select bank1
  6767  0CE0  1303               	bcf	3,6	;RP1=0, select bank1
  6768  0CE1  00AC               	movwf	(??_isr^(0+128)+1)
  6769  0CE2  301B               	movlw	27
  6770  0CE3  00AB               	movwf	??_isr^(0+128)
  6771  0CE4                     u750_27:
  6772  0CE4  0BAB               	decfsz	??_isr^(0+128),f
  6773  0CE5  2CE4               	goto	u750_27
  6774  0CE6  0BAC               	decfsz	(??_isr^(0+128)+1),f
  6775  0CE7  2CE4               	goto	u750_27
  6776  0CE8  2CE9               	nop2
  6777  0CE9                     i1l3914:
  6778                           
  6779                           ;master_main_dar-alv.c: 140:                 SSPBUF = pot3_in;
  6780  0CE9  1683               	bsf	3,5	;RP0=1, select bank1
  6781  0CEA  1303               	bcf	3,6	;RP1=0, select bank1
  6782  0CEB  0857               	movf	_pot3_in^(0+128),w
  6783  0CEC  1283               	bcf	3,5	;RP0=0, select bank0
  6784  0CED  1303               	bcf	3,6	;RP1=0, select bank0
  6785  0CEE  0093               	movwf	19	;volatile
  6786  0CEF                     i1l163:	
  6787                           ;master_main_dar-alv.c: 141:                 while(!SSPSTATbits.BF);
  6788                           
  6789  0CEF  1683               	bsf	3,5	;RP0=1, select bank1
  6790  0CF0  1303               	bcf	3,6	;RP1=0, select bank1
  6791  0CF1  1C14               	btfss	20,0	;volatile
  6792  0CF2  2CF4               	goto	u618_21
  6793  0CF3  2CF5               	goto	u618_20
  6794  0CF4                     u618_21:
  6795  0CF4  2CEF               	goto	i1l163
  6796  0CF5                     u618_20:
  6797  0CF5                     i1l3916:
  6798                           
  6799                           ;master_main_dar-alv.c: 142:                 _delay((unsigned long)((50)*(500000/4000.0)
      +                          ));
  6800  0CF5  3009               	movlw	9
  6801  0CF6  1683               	bsf	3,5	;RP0=1, select bank1
  6802  0CF7  1303               	bcf	3,6	;RP1=0, select bank1
  6803  0CF8  00AC               	movwf	(??_isr^(0+128)+1)
  6804  0CF9  301B               	movlw	27
  6805  0CFA  00AB               	movwf	??_isr^(0+128)
  6806  0CFB                     u751_27:
  6807  0CFB  0BAB               	decfsz	??_isr^(0+128),f
  6808  0CFC  2CFB               	goto	u751_27
  6809  0CFD  0BAC               	decfsz	(??_isr^(0+128)+1),f
  6810  0CFE  2CFB               	goto	u751_27
  6811  0CFF  2D00               	nop2
  6812  0D00                     i1l3918:
  6813                           
  6814                           ;master_main_dar-alv.c: 143:                 pot4_in = EEPROM_read(0x03);
  6815  0D00  3003               	movlw	3
  6816  0D01  120A  118A  27F3  120A  158A  	fcall	_EEPROM_read
  6817  0D06  1683               	bsf	3,5	;RP0=1, select bank1
  6818  0D07  1303               	bcf	3,6	;RP1=0, select bank1
  6819  0D08  00AB               	movwf	??_isr^(0+128)
  6820  0D09  082B               	movf	??_isr^(0+128),w
  6821  0D0A  00D6               	movwf	_pot4_in^(0+128)
  6822  0D0B                     i1l3920:
  6823                           
  6824                           ;master_main_dar-alv.c: 144:                 PORTDbits.RD1 = 1;
  6825  0D0B  1283               	bcf	3,5	;RP0=0, select bank0
  6826  0D0C  1303               	bcf	3,6	;RP1=0, select bank0
  6827  0D0D  1488               	bsf	8,1	;volatile
  6828  0D0E                     i1l3922:
  6829                           
  6830                           ;master_main_dar-alv.c: 145:                 _delay((unsigned long)((50)*(500000/4000.0)
      +                          ));
  6831  0D0E  3009               	movlw	9
  6832  0D0F  1683               	bsf	3,5	;RP0=1, select bank1
  6833  0D10  1303               	bcf	3,6	;RP1=0, select bank1
  6834  0D11  00AC               	movwf	(??_isr^(0+128)+1)
  6835  0D12  301B               	movlw	27
  6836  0D13  00AB               	movwf	??_isr^(0+128)
  6837  0D14                     u752_27:
  6838  0D14  0BAB               	decfsz	??_isr^(0+128),f
  6839  0D15  2D14               	goto	u752_27
  6840  0D16  0BAC               	decfsz	(??_isr^(0+128)+1),f
  6841  0D17  2D14               	goto	u752_27
  6842  0D18  2D19               	nop2
  6843  0D19                     i1l3924:
  6844                           
  6845                           ;master_main_dar-alv.c: 146:                 PORTDbits.RD0 = 0;
  6846  0D19  1283               	bcf	3,5	;RP0=0, select bank0
  6847  0D1A  1303               	bcf	3,6	;RP1=0, select bank0
  6848  0D1B  1008               	bcf	8,0	;volatile
  6849  0D1C                     i1l3926:
  6850                           
  6851                           ;master_main_dar-alv.c: 147:                 _delay((unsigned long)((50)*(500000/4000.0)
      +                          ));
  6852  0D1C  3009               	movlw	9
  6853  0D1D  1683               	bsf	3,5	;RP0=1, select bank1
  6854  0D1E  1303               	bcf	3,6	;RP1=0, select bank1
  6855  0D1F  00AC               	movwf	(??_isr^(0+128)+1)
  6856  0D20  301B               	movlw	27
  6857  0D21  00AB               	movwf	??_isr^(0+128)
  6858  0D22                     u753_27:
  6859  0D22  0BAB               	decfsz	??_isr^(0+128),f
  6860  0D23  2D22               	goto	u753_27
  6861  0D24  0BAC               	decfsz	(??_isr^(0+128)+1),f
  6862  0D25  2D22               	goto	u753_27
  6863  0D26  2D27               	nop2
  6864  0D27                     i1l3928:
  6865                           
  6866                           ;master_main_dar-alv.c: 148:                 SSPBUF = pot4_in;
  6867  0D27  1683               	bsf	3,5	;RP0=1, select bank1
  6868  0D28  1303               	bcf	3,6	;RP1=0, select bank1
  6869  0D29  0856               	movf	_pot4_in^(0+128),w
  6870  0D2A  1283               	bcf	3,5	;RP0=0, select bank0
  6871  0D2B  1303               	bcf	3,6	;RP1=0, select bank0
  6872  0D2C  0093               	movwf	19	;volatile
  6873  0D2D                     i1l166:	
  6874                           ;master_main_dar-alv.c: 149:                 while(!SSPSTATbits.BF);
  6875                           
  6876  0D2D  1683               	bsf	3,5	;RP0=1, select bank1
  6877  0D2E  1303               	bcf	3,6	;RP1=0, select bank1
  6878  0D2F  1C14               	btfss	20,0	;volatile
  6879  0D30  2D32               	goto	u619_21
  6880  0D31  2D33               	goto	u619_20
  6881  0D32                     u619_21:
  6882  0D32  2D2D               	goto	i1l166
  6883  0D33                     u619_20:
  6884  0D33  2D41               	goto	i1l3934
  6885  0D34                     i1l162:	
  6886                           ;master_main_dar-alv.c: 151:             else if(!PORTBbits.RB2){
  6887                           
  6888  0D34  1283               	bcf	3,5	;RP0=0, select bank0
  6889  0D35  1303               	bcf	3,6	;RP1=0, select bank0
  6890  0D36  1906               	btfsc	6,2	;volatile
  6891  0D37  2D39               	goto	u620_21
  6892  0D38  2D3A               	goto	u620_20
  6893  0D39                     u620_21:
  6894  0D39  2D41               	goto	i1l3934
  6895  0D3A                     u620_20:
  6896  0D3A                     i1l3930:
  6897                           
  6898                           ;master_main_dar-alv.c: 152:                 E = 0;
  6899  0D3A  1683               	bsf	3,5	;RP0=1, select bank1
  6900  0D3B  1303               	bcf	3,6	;RP1=0, select bank1
  6901  0D3C  01DC               	clrf	_E^(0+128)
  6902  0D3D                     i1l3932:
  6903                           
  6904                           ;master_main_dar-alv.c: 153:                 F = E;
  6905  0D3D  085C               	movf	_E^(0+128),w
  6906  0D3E  00AB               	movwf	??_isr^(0+128)
  6907  0D3F  082B               	movf	??_isr^(0+128),w
  6908  0D40  00DB               	movwf	_F^(0+128)
  6909  0D41                     i1l3934:
  6910                           
  6911                           ;master_main_dar-alv.c: 155:             if (F != E){
  6912  0D41  1683               	bsf	3,5	;RP0=1, select bank1
  6913  0D42  1303               	bcf	3,6	;RP1=0, select bank1
  6914  0D43  085B               	movf	_F^(0+128),w
  6915  0D44  065C               	xorwf	_E^(0+128),w
  6916  0D45  1903               	skipnz
  6917  0D46  2D48               	goto	u621_21
  6918  0D47  2D49               	goto	u621_20
  6919  0D48                     u621_21:
  6920  0D48  2E9C               	goto	i1l159
  6921  0D49                     u621_20:
  6922  0D49                     i1l3936:
  6923                           
  6924                           ;master_main_dar-alv.c: 156:                 F = E;
  6925  0D49  085C               	movf	_E^(0+128),w
  6926  0D4A  00AB               	movwf	??_isr^(0+128)
  6927  0D4B  082B               	movf	??_isr^(0+128),w
  6928  0D4C  00DB               	movwf	_F^(0+128)
  6929  0D4D                     i1l3938:
  6930                           
  6931                           ;master_main_dar-alv.c: 157:                 pot1_in = EEPROM_read(0x04);
  6932  0D4D  3004               	movlw	4
  6933  0D4E  120A  118A  27F3  120A  158A  	fcall	_EEPROM_read
  6934  0D53  1683               	bsf	3,5	;RP0=1, select bank1
  6935  0D54  1303               	bcf	3,6	;RP1=0, select bank1
  6936  0D55  00AB               	movwf	??_isr^(0+128)
  6937  0D56  082B               	movf	??_isr^(0+128),w
  6938  0D57  00D9               	movwf	_pot1_in^(0+128)
  6939  0D58                     i1l3940:
  6940                           
  6941                           ;master_main_dar-alv.c: 158:                 _delay((unsigned long)((250)*(500000/4000.0
      +                          )));
  6942  0D58  3029               	movlw	41
  6943  0D59  1683               	bsf	3,5	;RP0=1, select bank1
  6944  0D5A  1303               	bcf	3,6	;RP1=0, select bank1
  6945  0D5B  00AC               	movwf	(??_isr^(0+128)+1)
  6946  0D5C  3093               	movlw	147
  6947  0D5D  00AB               	movwf	??_isr^(0+128)
  6948  0D5E                     u754_27:
  6949  0D5E  0BAB               	decfsz	??_isr^(0+128),f
  6950  0D5F  2D5E               	goto	u754_27
  6951  0D60  0BAC               	decfsz	(??_isr^(0+128)+1),f
  6952  0D61  2D5E               	goto	u754_27
  6953  0D62  2D63               	nop2
  6954  0D63                     i1l3942:
  6955                           
  6956                           ;master_main_dar-alv.c: 159:                 CCPR = map(pot1_in, 0, 255, 13, 80);
  6957  0D63  1683               	bsf	3,5	;RP0=1, select bank1
  6958  0D64  1303               	bcf	3,6	;RP1=0, select bank1
  6959  0D65  01A5               	clrf	i1map@x0^(0+128)
  6960  0D66  30FF               	movlw	255
  6961  0D67  00AB               	movwf	??_isr^(0+128)
  6962  0D68  082B               	movf	??_isr^(0+128),w
  6963  0D69  00A6               	movwf	i1map@x1^(0+128)
  6964  0D6A  300D               	movlw	13
  6965  0D6B  00A7               	movwf	i1map@y0^(0+128)
  6966  0D6C  3000               	movlw	0
  6967  0D6D  00A8               	movwf	(i1map@y0^(0+128)+1)
  6968  0D6E  3050               	movlw	80
  6969  0D6F  00A9               	movwf	i1map@y1^(0+128)
  6970  0D70  3000               	movlw	0
  6971  0D71  00AA               	movwf	(i1map@y1^(0+128)+1)
  6972  0D72  0859               	movf	_pot1_in^(0+128),w
  6973  0D73  120A  158A  2007  120A  158A  	fcall	i1_map
  6974  0D78  1683               	bsf	3,5	;RP0=1, select bank1
  6975  0D79  1303               	bcf	3,6	;RP1=0, select bank1
  6976  0D7A  0826               	movf	(?i1_map+1)^(0+128),w
  6977  0D7B  00D3               	movwf	(_CCPR+1)^(0+128)
  6978  0D7C  0825               	movf	?i1_map^(0+128),w
  6979  0D7D  00D2               	movwf	_CCPR^(0+128)
  6980  0D7E                     i1l3944:
  6981                           
  6982                           ;master_main_dar-alv.c: 160:                 CCPR1L = (uint8_t)(CCPR>>2);
  6983  0D7E  0853               	movf	(_CCPR+1)^(0+128),w
  6984  0D7F  00AC               	movwf	(??_isr^(0+128)+1)
  6985  0D80  0852               	movf	_CCPR^(0+128),w
  6986  0D81  00AB               	movwf	??_isr^(0+128)
  6987  0D82  1003               	clrc
  6988  0D83  0CAC               	rrf	(??_isr^(0+128)+1),f
  6989  0D84  0CAB               	rrf	??_isr^(0+128),f
  6990  0D85  1003               	clrc
  6991  0D86  0CAC               	rrf	(??_isr^(0+128)+1),f
  6992  0D87  0CAB               	rrf	??_isr^(0+128),f
  6993  0D88  082B               	movf	??_isr^(0+128),w
  6994  0D89  1283               	bcf	3,5	;RP0=0, select bank0
  6995  0D8A  1303               	bcf	3,6	;RP1=0, select bank0
  6996  0D8B  0095               	movwf	21	;volatile
  6997  0D8C                     i1l3946:
  6998                           
  6999                           ;master_main_dar-alv.c: 161:                 CCP1CONbits.DC1B = CCPR & 0b11;
  7000  0D8C  1683               	bsf	3,5	;RP0=1, select bank1
  7001  0D8D  1303               	bcf	3,6	;RP1=0, select bank1
  7002  0D8E  0852               	movf	_CCPR^(0+128),w
  7003  0D8F  3903               	andlw	3
  7004  0D90  00AB               	movwf	??_isr^(0+128)
  7005  0D91  0EAB               	swapf	??_isr^(0+128),f
  7006  0D92  1283               	bcf	3,5	;RP0=0, select bank0
  7007  0D93  1303               	bcf	3,6	;RP1=0, select bank0
  7008  0D94  0817               	movf	23,w	;volatile
  7009  0D95  1683               	bsf	3,5	;RP0=1, select bank1
  7010  0D96  1303               	bcf	3,6	;RP1=0, select bank1
  7011  0D97  062B               	xorwf	??_isr^(0+128),w
  7012  0D98  39CF               	andlw	-49
  7013  0D99  062B               	xorwf	??_isr^(0+128),w
  7014  0D9A  1283               	bcf	3,5	;RP0=0, select bank0
  7015  0D9B  1303               	bcf	3,6	;RP1=0, select bank0
  7016  0D9C  0097               	movwf	23	;volatile
  7017  0D9D                     i1l3948:
  7018                           
  7019                           ;master_main_dar-alv.c: 162:                 _delay((unsigned long)((50)*(500000/4000.0)
      +                          ));
  7020  0D9D  3009               	movlw	9
  7021  0D9E  1683               	bsf	3,5	;RP0=1, select bank1
  7022  0D9F  1303               	bcf	3,6	;RP1=0, select bank1
  7023  0DA0  00AC               	movwf	(??_isr^(0+128)+1)
  7024  0DA1  301B               	movlw	27
  7025  0DA2  00AB               	movwf	??_isr^(0+128)
  7026  0DA3                     u755_27:
  7027  0DA3  0BAB               	decfsz	??_isr^(0+128),f
  7028  0DA4  2DA3               	goto	u755_27
  7029  0DA5  0BAC               	decfsz	(??_isr^(0+128)+1),f
  7030  0DA6  2DA3               	goto	u755_27
  7031  0DA7  2DA8               	nop2
  7032  0DA8                     i1l3950:
  7033                           
  7034                           ;master_main_dar-alv.c: 163:                 pot2_in = EEPROM_read(0x05);
  7035  0DA8  3005               	movlw	5
  7036  0DA9  120A  118A  27F3  120A  158A  	fcall	_EEPROM_read
  7037  0DAE  1683               	bsf	3,5	;RP0=1, select bank1
  7038  0DAF  1303               	bcf	3,6	;RP1=0, select bank1
  7039  0DB0  00AB               	movwf	??_isr^(0+128)
  7040  0DB1  082B               	movf	??_isr^(0+128),w
  7041  0DB2  00D8               	movwf	_pot2_in^(0+128)
  7042  0DB3                     i1l3952:
  7043                           
  7044                           ;master_main_dar-alv.c: 164:                 _delay((unsigned long)((250)*(500000/4000.0
      +                          )));
  7045  0DB3  3029               	movlw	41
  7046  0DB4  1683               	bsf	3,5	;RP0=1, select bank1
  7047  0DB5  1303               	bcf	3,6	;RP1=0, select bank1
  7048  0DB6  00AC               	movwf	(??_isr^(0+128)+1)
  7049  0DB7  3093               	movlw	147
  7050  0DB8  00AB               	movwf	??_isr^(0+128)
  7051  0DB9                     u756_27:
  7052  0DB9  0BAB               	decfsz	??_isr^(0+128),f
  7053  0DBA  2DB9               	goto	u756_27
  7054  0DBB  0BAC               	decfsz	(??_isr^(0+128)+1),f
  7055  0DBC  2DB9               	goto	u756_27
  7056  0DBD  2DBE               	nop2
  7057                           
  7058                           ;master_main_dar-alv.c: 165:                 CCPRx = map(pot2_in, 0, 255, 13, 80);
  7059  0DBE  1683               	bsf	3,5	;RP0=1, select bank1
  7060  0DBF  1303               	bcf	3,6	;RP1=0, select bank1
  7061  0DC0  01A5               	clrf	i1map@x0^(0+128)
  7062  0DC1  30FF               	movlw	255
  7063  0DC2  00AB               	movwf	??_isr^(0+128)
  7064  0DC3  082B               	movf	??_isr^(0+128),w
  7065  0DC4  00A6               	movwf	i1map@x1^(0+128)
  7066  0DC5  300D               	movlw	13
  7067  0DC6  00A7               	movwf	i1map@y0^(0+128)
  7068  0DC7  3000               	movlw	0
  7069  0DC8  00A8               	movwf	(i1map@y0^(0+128)+1)
  7070  0DC9  3050               	movlw	80
  7071  0DCA  00A9               	movwf	i1map@y1^(0+128)
  7072  0DCB  3000               	movlw	0
  7073  0DCC  00AA               	movwf	(i1map@y1^(0+128)+1)
  7074  0DCD  0858               	movf	_pot2_in^(0+128),w
  7075  0DCE  120A  158A  2007  120A  158A  	fcall	i1_map
  7076  0DD3  1683               	bsf	3,5	;RP0=1, select bank1
  7077  0DD4  1303               	bcf	3,6	;RP1=0, select bank1
  7078  0DD5  0826               	movf	(?i1_map+1)^(0+128),w
  7079  0DD6  00D1               	movwf	(_CCPRx+1)^(0+128)
  7080  0DD7  0825               	movf	?i1_map^(0+128),w
  7081  0DD8  00D0               	movwf	_CCPRx^(0+128)
  7082  0DD9                     i1l3954:
  7083                           
  7084                           ;master_main_dar-alv.c: 166:                 CCPR2L = (uint8_t)(CCPRx>>2);
  7085  0DD9  0851               	movf	(_CCPRx+1)^(0+128),w
  7086  0DDA  00AC               	movwf	(??_isr^(0+128)+1)
  7087  0DDB  0850               	movf	_CCPRx^(0+128),w
  7088  0DDC  00AB               	movwf	??_isr^(0+128)
  7089  0DDD  1003               	clrc
  7090  0DDE  0CAC               	rrf	(??_isr^(0+128)+1),f
  7091  0DDF  0CAB               	rrf	??_isr^(0+128),f
  7092  0DE0  1003               	clrc
  7093  0DE1  0CAC               	rrf	(??_isr^(0+128)+1),f
  7094  0DE2  0CAB               	rrf	??_isr^(0+128),f
  7095  0DE3  082B               	movf	??_isr^(0+128),w
  7096  0DE4  1283               	bcf	3,5	;RP0=0, select bank0
  7097  0DE5  1303               	bcf	3,6	;RP1=0, select bank0
  7098  0DE6  009B               	movwf	27	;volatile
  7099  0DE7                     i1l3956:
  7100                           
  7101                           ;master_main_dar-alv.c: 167:                 CCP2CONbits.DC2B0 = CCPRx & 0b01;
  7102  0DE7  1683               	bsf	3,5	;RP0=1, select bank1
  7103  0DE8  1303               	bcf	3,6	;RP1=0, select bank1
  7104  0DE9  0850               	movf	_CCPRx^(0+128),w
  7105  0DEA  3901               	andlw	1
  7106  0DEB  00AB               	movwf	??_isr^(0+128)
  7107  0DEC  0EAB               	swapf	??_isr^(0+128),f
  7108  0DED  1283               	bcf	3,5	;RP0=0, select bank0
  7109  0DEE  1303               	bcf	3,6	;RP1=0, select bank0
  7110  0DEF  081D               	movf	29,w	;volatile
  7111  0DF0  1683               	bsf	3,5	;RP0=1, select bank1
  7112  0DF1  1303               	bcf	3,6	;RP1=0, select bank1
  7113  0DF2  062B               	xorwf	??_isr^(0+128),w
  7114  0DF3  39EF               	andlw	-17
  7115  0DF4  062B               	xorwf	??_isr^(0+128),w
  7116  0DF5  1283               	bcf	3,5	;RP0=0, select bank0
  7117  0DF6  1303               	bcf	3,6	;RP1=0, select bank0
  7118  0DF7  009D               	movwf	29	;volatile
  7119  0DF8                     i1l3958:
  7120                           
  7121                           ;master_main_dar-alv.c: 168:                 CCP2CONbits.DC2B1 = CCPRx & 0b10;
  7122  0DF8  1683               	bsf	3,5	;RP0=1, select bank1
  7123  0DF9  1303               	bcf	3,6	;RP1=0, select bank1
  7124  0DFA  0850               	movf	_CCPRx^(0+128),w
  7125  0DFB  3902               	andlw	2
  7126  0DFC  00AB               	movwf	??_isr^(0+128)
  7127  0DFD  0EAB               	swapf	??_isr^(0+128),f
  7128  0DFE  0DAB               	rlf	??_isr^(0+128),f
  7129  0DFF  1283               	bcf	3,5	;RP0=0, select bank0
  7130  0E00  1303               	bcf	3,6	;RP1=0, select bank0
  7131  0E01  081D               	movf	29,w	;volatile
  7132  0E02  1683               	bsf	3,5	;RP0=1, select bank1
  7133  0E03  1303               	bcf	3,6	;RP1=0, select bank1
  7134  0E04  062B               	xorwf	??_isr^(0+128),w
  7135  0E05  39DF               	andlw	-33
  7136  0E06  062B               	xorwf	??_isr^(0+128),w
  7137  0E07  1283               	bcf	3,5	;RP0=0, select bank0
  7138  0E08  1303               	bcf	3,6	;RP1=0, select bank0
  7139  0E09  009D               	movwf	29	;volatile
  7140  0E0A                     i1l3960:
  7141                           
  7142                           ;master_main_dar-alv.c: 169:                 _delay((unsigned long)((50)*(500000/4000.0)
      +                          ));
  7143  0E0A  3009               	movlw	9
  7144  0E0B  1683               	bsf	3,5	;RP0=1, select bank1
  7145  0E0C  1303               	bcf	3,6	;RP1=0, select bank1
  7146  0E0D  00AC               	movwf	(??_isr^(0+128)+1)
  7147  0E0E  301B               	movlw	27
  7148  0E0F  00AB               	movwf	??_isr^(0+128)
  7149  0E10                     u757_27:
  7150  0E10  0BAB               	decfsz	??_isr^(0+128),f
  7151  0E11  2E10               	goto	u757_27
  7152  0E12  0BAC               	decfsz	(??_isr^(0+128)+1),f
  7153  0E13  2E10               	goto	u757_27
  7154  0E14  2E15               	nop2
  7155  0E15                     i1l3962:
  7156                           
  7157                           ;master_main_dar-alv.c: 170:                 pot3_in = EEPROM_read(0x06);
  7158  0E15  3006               	movlw	6
  7159  0E16  120A  118A  27F3  120A  158A  	fcall	_EEPROM_read
  7160  0E1B  1683               	bsf	3,5	;RP0=1, select bank1
  7161  0E1C  1303               	bcf	3,6	;RP1=0, select bank1
  7162  0E1D  00AB               	movwf	??_isr^(0+128)
  7163  0E1E  082B               	movf	??_isr^(0+128),w
  7164  0E1F  00D7               	movwf	_pot3_in^(0+128)
  7165  0E20                     i1l3964:
  7166                           
  7167                           ;master_main_dar-alv.c: 171:                 _delay((unsigned long)((250)*(500000/4000.0
      +                          )));
  7168  0E20  3029               	movlw	41
  7169  0E21  1683               	bsf	3,5	;RP0=1, select bank1
  7170  0E22  1303               	bcf	3,6	;RP1=0, select bank1
  7171  0E23  00AC               	movwf	(??_isr^(0+128)+1)
  7172  0E24  3093               	movlw	147
  7173  0E25  00AB               	movwf	??_isr^(0+128)
  7174  0E26                     u758_27:
  7175  0E26  0BAB               	decfsz	??_isr^(0+128),f
  7176  0E27  2E26               	goto	u758_27
  7177  0E28  0BAC               	decfsz	(??_isr^(0+128)+1),f
  7178  0E29  2E26               	goto	u758_27
  7179  0E2A  2E2B               	nop2
  7180  0E2B                     i1l3966:
  7181                           
  7182                           ;master_main_dar-alv.c: 172:                 PORTDbits.RD1 = 0;
  7183  0E2B  1283               	bcf	3,5	;RP0=0, select bank0
  7184  0E2C  1303               	bcf	3,6	;RP1=0, select bank0
  7185  0E2D  1088               	bcf	8,1	;volatile
  7186  0E2E                     i1l3968:
  7187                           
  7188                           ;master_main_dar-alv.c: 173:                 _delay((unsigned long)((50)*(500000/4000.0)
      +                          ));
  7189  0E2E  3009               	movlw	9
  7190  0E2F  1683               	bsf	3,5	;RP0=1, select bank1
  7191  0E30  1303               	bcf	3,6	;RP1=0, select bank1
  7192  0E31  00AC               	movwf	(??_isr^(0+128)+1)
  7193  0E32  301B               	movlw	27
  7194  0E33  00AB               	movwf	??_isr^(0+128)
  7195  0E34                     u759_27:
  7196  0E34  0BAB               	decfsz	??_isr^(0+128),f
  7197  0E35  2E34               	goto	u759_27
  7198  0E36  0BAC               	decfsz	(??_isr^(0+128)+1),f
  7199  0E37  2E34               	goto	u759_27
  7200  0E38  2E39               	nop2
  7201  0E39                     i1l3970:
  7202                           
  7203                           ;master_main_dar-alv.c: 174:                 PORTDbits.RD0 = 1;
  7204  0E39  1283               	bcf	3,5	;RP0=0, select bank0
  7205  0E3A  1303               	bcf	3,6	;RP1=0, select bank0
  7206  0E3B  1408               	bsf	8,0	;volatile
  7207  0E3C                     i1l3972:
  7208                           
  7209                           ;master_main_dar-alv.c: 175:                 _delay((unsigned long)((50)*(500000/4000.0)
      +                          ));
  7210  0E3C  3009               	movlw	9
  7211  0E3D  1683               	bsf	3,5	;RP0=1, select bank1
  7212  0E3E  1303               	bcf	3,6	;RP1=0, select bank1
  7213  0E3F  00AC               	movwf	(??_isr^(0+128)+1)
  7214  0E40  301B               	movlw	27
  7215  0E41  00AB               	movwf	??_isr^(0+128)
  7216  0E42                     u760_27:
  7217  0E42  0BAB               	decfsz	??_isr^(0+128),f
  7218  0E43  2E42               	goto	u760_27
  7219  0E44  0BAC               	decfsz	(??_isr^(0+128)+1),f
  7220  0E45  2E42               	goto	u760_27
  7221  0E46  2E47               	nop2
  7222  0E47                     i1l3974:
  7223                           
  7224                           ;master_main_dar-alv.c: 176:                 SSPBUF = pot3_in;
  7225  0E47  1683               	bsf	3,5	;RP0=1, select bank1
  7226  0E48  1303               	bcf	3,6	;RP1=0, select bank1
  7227  0E49  0857               	movf	_pot3_in^(0+128),w
  7228  0E4A  1283               	bcf	3,5	;RP0=0, select bank0
  7229  0E4B  1303               	bcf	3,6	;RP1=0, select bank0
  7230  0E4C  0093               	movwf	19	;volatile
  7231  0E4D                     i1l172:	
  7232                           ;master_main_dar-alv.c: 177:                 while(!SSPSTATbits.BF);
  7233                           
  7234  0E4D  1683               	bsf	3,5	;RP0=1, select bank1
  7235  0E4E  1303               	bcf	3,6	;RP1=0, select bank1
  7236  0E4F  1C14               	btfss	20,0	;volatile
  7237  0E50  2E52               	goto	u622_21
  7238  0E51  2E53               	goto	u622_20
  7239  0E52                     u622_21:
  7240  0E52  2E4D               	goto	i1l172
  7241  0E53                     u622_20:
  7242  0E53                     i1l3976:
  7243                           
  7244                           ;master_main_dar-alv.c: 178:                 _delay((unsigned long)((250)*(500000/4000.0
      +                          )));
  7245  0E53  3029               	movlw	41
  7246  0E54  1683               	bsf	3,5	;RP0=1, select bank1
  7247  0E55  1303               	bcf	3,6	;RP1=0, select bank1
  7248  0E56  00AC               	movwf	(??_isr^(0+128)+1)
  7249  0E57  3093               	movlw	147
  7250  0E58  00AB               	movwf	??_isr^(0+128)
  7251  0E59                     u761_27:
  7252  0E59  0BAB               	decfsz	??_isr^(0+128),f
  7253  0E5A  2E59               	goto	u761_27
  7254  0E5B  0BAC               	decfsz	(??_isr^(0+128)+1),f
  7255  0E5C  2E59               	goto	u761_27
  7256  0E5D  2E5E               	nop2
  7257  0E5E                     i1l3978:
  7258                           
  7259                           ;master_main_dar-alv.c: 179:                 pot4_in = EEPROM_read(0x07);
  7260  0E5E  3007               	movlw	7
  7261  0E5F  120A  118A  27F3  120A  158A  	fcall	_EEPROM_read
  7262  0E64  1683               	bsf	3,5	;RP0=1, select bank1
  7263  0E65  1303               	bcf	3,6	;RP1=0, select bank1
  7264  0E66  00AB               	movwf	??_isr^(0+128)
  7265  0E67  082B               	movf	??_isr^(0+128),w
  7266  0E68  00D6               	movwf	_pot4_in^(0+128)
  7267  0E69                     i1l3980:
  7268                           
  7269                           ;master_main_dar-alv.c: 180:                 _delay((unsigned long)((250)*(500000/4000.0
      +                          )));
  7270  0E69  3029               	movlw	41
  7271  0E6A  1683               	bsf	3,5	;RP0=1, select bank1
  7272  0E6B  1303               	bcf	3,6	;RP1=0, select bank1
  7273  0E6C  00AC               	movwf	(??_isr^(0+128)+1)
  7274  0E6D  3093               	movlw	147
  7275  0E6E  00AB               	movwf	??_isr^(0+128)
  7276  0E6F                     u762_27:
  7277  0E6F  0BAB               	decfsz	??_isr^(0+128),f
  7278  0E70  2E6F               	goto	u762_27
  7279  0E71  0BAC               	decfsz	(??_isr^(0+128)+1),f
  7280  0E72  2E6F               	goto	u762_27
  7281  0E73  2E74               	nop2
  7282  0E74                     i1l3982:
  7283                           
  7284                           ;master_main_dar-alv.c: 181:                 PORTDbits.RD1 = 1;
  7285  0E74  1283               	bcf	3,5	;RP0=0, select bank0
  7286  0E75  1303               	bcf	3,6	;RP1=0, select bank0
  7287  0E76  1488               	bsf	8,1	;volatile
  7288  0E77                     i1l3984:
  7289                           
  7290                           ;master_main_dar-alv.c: 182:                 _delay((unsigned long)((50)*(500000/4000.0)
      +                          ));
  7291  0E77  3009               	movlw	9
  7292  0E78  1683               	bsf	3,5	;RP0=1, select bank1
  7293  0E79  1303               	bcf	3,6	;RP1=0, select bank1
  7294  0E7A  00AC               	movwf	(??_isr^(0+128)+1)
  7295  0E7B  301B               	movlw	27
  7296  0E7C  00AB               	movwf	??_isr^(0+128)
  7297  0E7D                     u763_27:
  7298  0E7D  0BAB               	decfsz	??_isr^(0+128),f
  7299  0E7E  2E7D               	goto	u763_27
  7300  0E7F  0BAC               	decfsz	(??_isr^(0+128)+1),f
  7301  0E80  2E7D               	goto	u763_27
  7302  0E81  2E82               	nop2
  7303  0E82                     i1l3986:
  7304                           
  7305                           ;master_main_dar-alv.c: 183:                 PORTDbits.RD0 = 0;
  7306  0E82  1283               	bcf	3,5	;RP0=0, select bank0
  7307  0E83  1303               	bcf	3,6	;RP1=0, select bank0
  7308  0E84  1008               	bcf	8,0	;volatile
  7309  0E85                     i1l3988:
  7310                           
  7311                           ;master_main_dar-alv.c: 184:                 _delay((unsigned long)((50)*(500000/4000.0)
      +                          ));
  7312  0E85  3009               	movlw	9
  7313  0E86  1683               	bsf	3,5	;RP0=1, select bank1
  7314  0E87  1303               	bcf	3,6	;RP1=0, select bank1
  7315  0E88  00AC               	movwf	(??_isr^(0+128)+1)
  7316  0E89  301B               	movlw	27
  7317  0E8A  00AB               	movwf	??_isr^(0+128)
  7318  0E8B                     u764_27:
  7319  0E8B  0BAB               	decfsz	??_isr^(0+128),f
  7320  0E8C  2E8B               	goto	u764_27
  7321  0E8D  0BAC               	decfsz	(??_isr^(0+128)+1),f
  7322  0E8E  2E8B               	goto	u764_27
  7323  0E8F  2E90               	nop2
  7324  0E90                     i1l3990:
  7325                           
  7326                           ;master_main_dar-alv.c: 185:                 SSPBUF = pot4_in;
  7327  0E90  1683               	bsf	3,5	;RP0=1, select bank1
  7328  0E91  1303               	bcf	3,6	;RP1=0, select bank1
  7329  0E92  0856               	movf	_pot4_in^(0+128),w
  7330  0E93  1283               	bcf	3,5	;RP0=0, select bank0
  7331  0E94  1303               	bcf	3,6	;RP1=0, select bank0
  7332  0E95  0093               	movwf	19	;volatile
  7333  0E96                     i1l175:	
  7334                           ;master_main_dar-alv.c: 186:                 while(!SSPSTATbits.BF);
  7335                           
  7336  0E96  1683               	bsf	3,5	;RP0=1, select bank1
  7337  0E97  1303               	bcf	3,6	;RP1=0, select bank1
  7338  0E98  1C14               	btfss	20,0	;volatile
  7339  0E99  2E9B               	goto	u623_21
  7340  0E9A  2E9C               	goto	u623_20
  7341  0E9B                     u623_21:
  7342  0E9B  2E96               	goto	i1l175
  7343  0E9C                     u623_20:
  7344  0E9C                     i1l159:
  7345                           
  7346                           ;master_main_dar-alv.c: 189:         INTCONbits.RBIF = 0;
  7347  0E9C  100B               	bcf	11,0	;volatile
  7348  0E9D                     i1l3992:
  7349                           
  7350                           ;master_main_dar-alv.c: 191:     if (estado == 0){
  7351  0E9D  1683               	bsf	3,5	;RP0=1, select bank1
  7352  0E9E  1303               	bcf	3,6	;RP1=0, select bank1
  7353  0E9F  085A               	movf	_estado^(0+128),w
  7354  0EA0  1D03               	btfss	3,2
  7355  0EA1  2EA3               	goto	u624_21
  7356  0EA2  2EA4               	goto	u624_20
  7357  0EA3                     u624_21:
  7358  0EA3  2F84               	goto	i1l4028
  7359  0EA4                     u624_20:
  7360  0EA4                     i1l3994:
  7361                           
  7362                           ;master_main_dar-alv.c: 192:         if (PIR1bits.ADIF){
  7363  0EA4  1283               	bcf	3,5	;RP0=0, select bank0
  7364  0EA5  1303               	bcf	3,6	;RP1=0, select bank0
  7365  0EA6  1F0C               	btfss	12,6	;volatile
  7366  0EA7  2EA9               	goto	u625_21
  7367  0EA8  2EAA               	goto	u625_20
  7368  0EA9                     u625_21:
  7369  0EA9  2F84               	goto	i1l4028
  7370  0EAA                     u625_20:
  7371  0EAA                     i1l3996:
  7372                           
  7373                           ;master_main_dar-alv.c: 193:             if (ADCON0bits.CHS == 0){
  7374  0EAA  0C1F               	rrf	31,w	;volatile
  7375  0EAB  1683               	bsf	3,5	;RP0=1, select bank1
  7376  0EAC  1303               	bcf	3,6	;RP1=0, select bank1
  7377  0EAD  00AB               	movwf	??_isr^(0+128)
  7378  0EAE  0C2B               	rrf	??_isr^(0+128),w
  7379  0EAF  390F               	andlw	15
  7380  0EB0  3A00               	xorlw	0
  7381  0EB1  1D03               	skipz
  7382  0EB2  2EB4               	goto	u626_21
  7383  0EB3  2EB5               	goto	u626_20
  7384  0EB4                     u626_21:
  7385  0EB4  2EF6               	goto	i1l4006
  7386  0EB5                     u626_20:
  7387  0EB5                     i1l3998:
  7388                           
  7389                           ;master_main_dar-alv.c: 194:                 pot1_in = ADRESH;
  7390  0EB5  1283               	bcf	3,5	;RP0=0, select bank0
  7391  0EB6  1303               	bcf	3,6	;RP1=0, select bank0
  7392  0EB7  081E               	movf	30,w	;volatile
  7393  0EB8  1683               	bsf	3,5	;RP0=1, select bank1
  7394  0EB9  1303               	bcf	3,6	;RP1=0, select bank1
  7395  0EBA  00AB               	movwf	??_isr^(0+128)
  7396  0EBB  082B               	movf	??_isr^(0+128),w
  7397  0EBC  00D9               	movwf	_pot1_in^(0+128)
  7398  0EBD                     i1l4000:
  7399                           
  7400                           ;master_main_dar-alv.c: 195:                 CCPR = map(pot1_in, 0, 255, 13, 80);
  7401  0EBD  01A5               	clrf	i1map@x0^(0+128)
  7402  0EBE  30FF               	movlw	255
  7403  0EBF  00AB               	movwf	??_isr^(0+128)
  7404  0EC0  082B               	movf	??_isr^(0+128),w
  7405  0EC1  00A6               	movwf	i1map@x1^(0+128)
  7406  0EC2  300D               	movlw	13
  7407  0EC3  00A7               	movwf	i1map@y0^(0+128)
  7408  0EC4  3000               	movlw	0
  7409  0EC5  00A8               	movwf	(i1map@y0^(0+128)+1)
  7410  0EC6  3050               	movlw	80
  7411  0EC7  00A9               	movwf	i1map@y1^(0+128)
  7412  0EC8  3000               	movlw	0
  7413  0EC9  00AA               	movwf	(i1map@y1^(0+128)+1)
  7414  0ECA  0859               	movf	_pot1_in^(0+128),w
  7415  0ECB  120A  158A  2007  120A  158A  	fcall	i1_map
  7416  0ED0  1683               	bsf	3,5	;RP0=1, select bank1
  7417  0ED1  1303               	bcf	3,6	;RP1=0, select bank1
  7418  0ED2  0826               	movf	(?i1_map+1)^(0+128),w
  7419  0ED3  00D3               	movwf	(_CCPR+1)^(0+128)
  7420  0ED4  0825               	movf	?i1_map^(0+128),w
  7421  0ED5  00D2               	movwf	_CCPR^(0+128)
  7422  0ED6                     i1l4002:
  7423                           
  7424                           ;master_main_dar-alv.c: 196:                 CCPR1L = (uint8_t)(CCPR>>2);
  7425  0ED6  0853               	movf	(_CCPR+1)^(0+128),w
  7426  0ED7  00AC               	movwf	(??_isr^(0+128)+1)
  7427  0ED8  0852               	movf	_CCPR^(0+128),w
  7428  0ED9  00AB               	movwf	??_isr^(0+128)
  7429  0EDA  1003               	clrc
  7430  0EDB  0CAC               	rrf	(??_isr^(0+128)+1),f
  7431  0EDC  0CAB               	rrf	??_isr^(0+128),f
  7432  0EDD  1003               	clrc
  7433  0EDE  0CAC               	rrf	(??_isr^(0+128)+1),f
  7434  0EDF  0CAB               	rrf	??_isr^(0+128),f
  7435  0EE0  082B               	movf	??_isr^(0+128),w
  7436  0EE1  1283               	bcf	3,5	;RP0=0, select bank0
  7437  0EE2  1303               	bcf	3,6	;RP1=0, select bank0
  7438  0EE3  0095               	movwf	21	;volatile
  7439  0EE4                     i1l4004:
  7440                           
  7441                           ;master_main_dar-alv.c: 197:                 CCP1CONbits.DC1B = CCPR & 0b11;
  7442  0EE4  1683               	bsf	3,5	;RP0=1, select bank1
  7443  0EE5  1303               	bcf	3,6	;RP1=0, select bank1
  7444  0EE6  0852               	movf	_CCPR^(0+128),w
  7445  0EE7  3903               	andlw	3
  7446  0EE8  00AB               	movwf	??_isr^(0+128)
  7447  0EE9  0EAB               	swapf	??_isr^(0+128),f
  7448  0EEA  1283               	bcf	3,5	;RP0=0, select bank0
  7449  0EEB  1303               	bcf	3,6	;RP1=0, select bank0
  7450  0EEC  0817               	movf	23,w	;volatile
  7451  0EED  1683               	bsf	3,5	;RP0=1, select bank1
  7452  0EEE  1303               	bcf	3,6	;RP1=0, select bank1
  7453  0EEF  062B               	xorwf	??_isr^(0+128),w
  7454  0EF0  39CF               	andlw	-49
  7455  0EF1  062B               	xorwf	??_isr^(0+128),w
  7456  0EF2  1283               	bcf	3,5	;RP0=0, select bank0
  7457  0EF3  1303               	bcf	3,6	;RP1=0, select bank0
  7458  0EF4  0097               	movwf	23	;volatile
  7459                           
  7460                           ;master_main_dar-alv.c: 198:             }
  7461  0EF5  2F82               	goto	i1l4026
  7462  0EF6                     i1l4006:
  7463  0EF6  1283               	bcf	3,5	;RP0=0, select bank0
  7464  0EF7  1303               	bcf	3,6	;RP1=0, select bank0
  7465  0EF8  0C1F               	rrf	31,w	;volatile
  7466  0EF9  1683               	bsf	3,5	;RP0=1, select bank1
  7467  0EFA  1303               	bcf	3,6	;RP1=0, select bank1
  7468  0EFB  00AB               	movwf	??_isr^(0+128)
  7469  0EFC  0C2B               	rrf	??_isr^(0+128),w
  7470  0EFD  390F               	andlw	15
  7471  0EFE  3A01               	xorlw	1
  7472  0EFF  1D03               	skipz
  7473  0F00  2F02               	goto	u627_21
  7474  0F01  2F03               	goto	u627_20
  7475  0F02                     u627_21:
  7476  0F02  2F56               	goto	i1l4018
  7477  0F03                     u627_20:
  7478  0F03                     i1l4008:
  7479                           
  7480                           ;master_main_dar-alv.c: 201:                 pot2_in = ADRESH;
  7481  0F03  1283               	bcf	3,5	;RP0=0, select bank0
  7482  0F04  1303               	bcf	3,6	;RP1=0, select bank0
  7483  0F05  081E               	movf	30,w	;volatile
  7484  0F06  1683               	bsf	3,5	;RP0=1, select bank1
  7485  0F07  1303               	bcf	3,6	;RP1=0, select bank1
  7486  0F08  00AB               	movwf	??_isr^(0+128)
  7487  0F09  082B               	movf	??_isr^(0+128),w
  7488  0F0A  00D8               	movwf	_pot2_in^(0+128)
  7489  0F0B                     i1l4010:
  7490                           
  7491                           ;master_main_dar-alv.c: 202:                 CCPRx = map(pot2_in, 0, 255, 13, 80);
  7492  0F0B  01A5               	clrf	i1map@x0^(0+128)
  7493  0F0C  30FF               	movlw	255
  7494  0F0D  00AB               	movwf	??_isr^(0+128)
  7495  0F0E  082B               	movf	??_isr^(0+128),w
  7496  0F0F  00A6               	movwf	i1map@x1^(0+128)
  7497  0F10  300D               	movlw	13
  7498  0F11  00A7               	movwf	i1map@y0^(0+128)
  7499  0F12  3000               	movlw	0
  7500  0F13  00A8               	movwf	(i1map@y0^(0+128)+1)
  7501  0F14  3050               	movlw	80
  7502  0F15  00A9               	movwf	i1map@y1^(0+128)
  7503  0F16  3000               	movlw	0
  7504  0F17  00AA               	movwf	(i1map@y1^(0+128)+1)
  7505  0F18  0858               	movf	_pot2_in^(0+128),w
  7506  0F19  120A  158A  2007  120A  158A  	fcall	i1_map
  7507  0F1E  1683               	bsf	3,5	;RP0=1, select bank1
  7508  0F1F  1303               	bcf	3,6	;RP1=0, select bank1
  7509  0F20  0826               	movf	(?i1_map+1)^(0+128),w
  7510  0F21  00D1               	movwf	(_CCPRx+1)^(0+128)
  7511  0F22  0825               	movf	?i1_map^(0+128),w
  7512  0F23  00D0               	movwf	_CCPRx^(0+128)
  7513  0F24                     i1l4012:
  7514                           
  7515                           ;master_main_dar-alv.c: 203:                 CCPR2L = (uint8_t)(CCPRx>>2);
  7516  0F24  0851               	movf	(_CCPRx+1)^(0+128),w
  7517  0F25  00AC               	movwf	(??_isr^(0+128)+1)
  7518  0F26  0850               	movf	_CCPRx^(0+128),w
  7519  0F27  00AB               	movwf	??_isr^(0+128)
  7520  0F28  1003               	clrc
  7521  0F29  0CAC               	rrf	(??_isr^(0+128)+1),f
  7522  0F2A  0CAB               	rrf	??_isr^(0+128),f
  7523  0F2B  1003               	clrc
  7524  0F2C  0CAC               	rrf	(??_isr^(0+128)+1),f
  7525  0F2D  0CAB               	rrf	??_isr^(0+128),f
  7526  0F2E  082B               	movf	??_isr^(0+128),w
  7527  0F2F  1283               	bcf	3,5	;RP0=0, select bank0
  7528  0F30  1303               	bcf	3,6	;RP1=0, select bank0
  7529  0F31  009B               	movwf	27	;volatile
  7530  0F32                     i1l4014:
  7531                           
  7532                           ;master_main_dar-alv.c: 204:                 CCP2CONbits.DC2B0 = CCPRx & 0b01;
  7533  0F32  1683               	bsf	3,5	;RP0=1, select bank1
  7534  0F33  1303               	bcf	3,6	;RP1=0, select bank1
  7535  0F34  0850               	movf	_CCPRx^(0+128),w
  7536  0F35  3901               	andlw	1
  7537  0F36  00AB               	movwf	??_isr^(0+128)
  7538  0F37  0EAB               	swapf	??_isr^(0+128),f
  7539  0F38  1283               	bcf	3,5	;RP0=0, select bank0
  7540  0F39  1303               	bcf	3,6	;RP1=0, select bank0
  7541  0F3A  081D               	movf	29,w	;volatile
  7542  0F3B  1683               	bsf	3,5	;RP0=1, select bank1
  7543  0F3C  1303               	bcf	3,6	;RP1=0, select bank1
  7544  0F3D  062B               	xorwf	??_isr^(0+128),w
  7545  0F3E  39EF               	andlw	-17
  7546  0F3F  062B               	xorwf	??_isr^(0+128),w
  7547  0F40  1283               	bcf	3,5	;RP0=0, select bank0
  7548  0F41  1303               	bcf	3,6	;RP1=0, select bank0
  7549  0F42  009D               	movwf	29	;volatile
  7550  0F43                     i1l4016:
  7551                           
  7552                           ;master_main_dar-alv.c: 205:                 CCP2CONbits.DC2B1 = CCPRx & 0b10;
  7553  0F43  1683               	bsf	3,5	;RP0=1, select bank1
  7554  0F44  1303               	bcf	3,6	;RP1=0, select bank1
  7555  0F45  0850               	movf	_CCPRx^(0+128),w
  7556  0F46  3902               	andlw	2
  7557  0F47  00AB               	movwf	??_isr^(0+128)
  7558  0F48  0EAB               	swapf	??_isr^(0+128),f
  7559  0F49  0DAB               	rlf	??_isr^(0+128),f
  7560  0F4A  1283               	bcf	3,5	;RP0=0, select bank0
  7561  0F4B  1303               	bcf	3,6	;RP1=0, select bank0
  7562  0F4C  081D               	movf	29,w	;volatile
  7563  0F4D  1683               	bsf	3,5	;RP0=1, select bank1
  7564  0F4E  1303               	bcf	3,6	;RP1=0, select bank1
  7565  0F4F  062B               	xorwf	??_isr^(0+128),w
  7566  0F50  39DF               	andlw	-33
  7567  0F51  062B               	xorwf	??_isr^(0+128),w
  7568  0F52  1283               	bcf	3,5	;RP0=0, select bank0
  7569  0F53  1303               	bcf	3,6	;RP1=0, select bank0
  7570  0F54  009D               	movwf	29	;volatile
  7571                           
  7572                           ;master_main_dar-alv.c: 206:             }
  7573  0F55  2F82               	goto	i1l4026
  7574  0F56                     i1l4018:
  7575  0F56  1283               	bcf	3,5	;RP0=0, select bank0
  7576  0F57  1303               	bcf	3,6	;RP1=0, select bank0
  7577  0F58  0C1F               	rrf	31,w	;volatile
  7578  0F59  1683               	bsf	3,5	;RP0=1, select bank1
  7579  0F5A  1303               	bcf	3,6	;RP1=0, select bank1
  7580  0F5B  00AB               	movwf	??_isr^(0+128)
  7581  0F5C  0C2B               	rrf	??_isr^(0+128),w
  7582  0F5D  390F               	andlw	15
  7583  0F5E  3A02               	xorlw	2
  7584  0F5F  1D03               	skipz
  7585  0F60  2F62               	goto	u628_21
  7586  0F61  2F63               	goto	u628_20
  7587  0F62                     u628_21:
  7588  0F62  2F6C               	goto	i1l4022
  7589  0F63                     u628_20:
  7590  0F63                     i1l4020:
  7591                           
  7592                           ;master_main_dar-alv.c: 209:                 pot3_in = ADRESH;
  7593  0F63  1283               	bcf	3,5	;RP0=0, select bank0
  7594  0F64  1303               	bcf	3,6	;RP1=0, select bank0
  7595  0F65  081E               	movf	30,w	;volatile
  7596  0F66  1683               	bsf	3,5	;RP0=1, select bank1
  7597  0F67  1303               	bcf	3,6	;RP1=0, select bank1
  7598  0F68  00AB               	movwf	??_isr^(0+128)
  7599  0F69  082B               	movf	??_isr^(0+128),w
  7600  0F6A  00D7               	movwf	_pot3_in^(0+128)
  7601                           
  7602                           ;master_main_dar-alv.c: 210:             }
  7603  0F6B  2F82               	goto	i1l4026
  7604  0F6C                     i1l4022:
  7605  0F6C  1283               	bcf	3,5	;RP0=0, select bank0
  7606  0F6D  1303               	bcf	3,6	;RP1=0, select bank0
  7607  0F6E  0C1F               	rrf	31,w	;volatile
  7608  0F6F  1683               	bsf	3,5	;RP0=1, select bank1
  7609  0F70  1303               	bcf	3,6	;RP1=0, select bank1
  7610  0F71  00AB               	movwf	??_isr^(0+128)
  7611  0F72  0C2B               	rrf	??_isr^(0+128),w
  7612  0F73  390F               	andlw	15
  7613  0F74  3A03               	xorlw	3
  7614  0F75  1D03               	skipz
  7615  0F76  2F78               	goto	u629_21
  7616  0F77  2F79               	goto	u629_20
  7617  0F78                     u629_21:
  7618  0F78  2F82               	goto	i1l183
  7619  0F79                     u629_20:
  7620  0F79                     i1l4024:
  7621                           
  7622                           ;master_main_dar-alv.c: 213:                 pot4_in = ADRESH;
  7623  0F79  1283               	bcf	3,5	;RP0=0, select bank0
  7624  0F7A  1303               	bcf	3,6	;RP1=0, select bank0
  7625  0F7B  081E               	movf	30,w	;volatile
  7626  0F7C  1683               	bsf	3,5	;RP0=1, select bank1
  7627  0F7D  1303               	bcf	3,6	;RP1=0, select bank1
  7628  0F7E  00AB               	movwf	??_isr^(0+128)
  7629  0F7F  082B               	movf	??_isr^(0+128),w
  7630  0F80  00D6               	movwf	_pot4_in^(0+128)
  7631  0F81  2F82               	goto	i1l4026
  7632  0F82                     i1l183:
  7633  0F82                     i1l4026:
  7634                           
  7635                           ;master_main_dar-alv.c: 215:             PIR1bits.ADIF = 0;
  7636  0F82  1283               	bcf	3,5	;RP0=0, select bank0
  7637  0F83  130C               	bcf	12,6	;volatile
  7638  0F84                     i1l4028:
  7639                           
  7640                           ;master_main_dar-alv.c: 219:     if (estado == 2){
  7641  0F84  3002               	movlw	2
  7642  0F85  1683               	bsf	3,5	;RP0=1, select bank1
  7643  0F86  1303               	bcf	3,6	;RP1=0, select bank1
  7644  0F87  065A               	xorwf	_estado^(0+128),w
  7645  0F88  1D03               	btfss	3,2
  7646  0F89  2F8B               	goto	u630_21
  7647  0F8A  2F8C               	goto	u630_20
  7648  0F8B                     u630_21:
  7649  0F8B  2FF5               	goto	i1l205
  7650  0F8C                     u630_20:
  7651  0F8C                     i1l4030:
  7652                           
  7653                           ;master_main_dar-alv.c: 220:         if (PIR1bits.RCIF){
  7654  0F8C  1283               	bcf	3,5	;RP0=0, select bank0
  7655  0F8D  1303               	bcf	3,6	;RP1=0, select bank0
  7656  0F8E  1E8C               	btfss	12,5	;volatile
  7657  0F8F  2F91               	goto	u631_21
  7658  0F90  2F92               	goto	u631_20
  7659  0F91                     u631_21:
  7660  0F91  2FF5               	goto	i1l205
  7661  0F92                     u631_20:
  7662  0F92                     i1l4032:
  7663                           
  7664                           ;master_main_dar-alv.c: 221:             serial_val = RCREG;
  7665  0F92  081A               	movf	26,w	;volatile
  7666  0F93  1683               	bsf	3,5	;RP0=1, select bank1
  7667  0F94  1303               	bcf	3,6	;RP1=0, select bank1
  7668  0F95  00AB               	movwf	??_isr^(0+128)
  7669  0F96  082B               	movf	??_isr^(0+128),w
  7670  0F97  00D5               	movwf	_serial_val^(0+128)
  7671  0F98                     i1l4034:
  7672                           
  7673                           ;master_main_dar-alv.c: 222:             if (serial_val == 0){
  7674  0F98  0855               	movf	_serial_val^(0+128),w
  7675  0F99  1D03               	btfss	3,2
  7676  0F9A  2F9C               	goto	u632_21
  7677  0F9B  2F9D               	goto	u632_20
  7678  0F9C                     u632_21:
  7679  0F9C  2F9F               	goto	i1l4038
  7680  0F9D                     u632_20:
  7681  0F9D                     i1l4036:
  7682                           
  7683                           ;master_main_dar-alv.c: 223:                 servo_sel = 0;
  7684  0F9D  01D4               	clrf	_servo_sel^(0+128)
  7685                           
  7686                           ;master_main_dar-alv.c: 224:             }
  7687  0F9E  2FF5               	goto	i1l205
  7688  0F9F                     i1l4038:
  7689  0F9F  0355               	decf	_serial_val^(0+128),w
  7690  0FA0  1D03               	btfss	3,2
  7691  0FA1  2FA3               	goto	u633_21
  7692  0FA2  2FA4               	goto	u633_20
  7693  0FA3                     u633_21:
  7694  0FA3  2FA7               	goto	i1l4042
  7695  0FA4                     u633_20:
  7696  0FA4                     i1l4040:
  7697                           
  7698                           ;master_main_dar-alv.c: 226:                 servo_sel = 1;
  7699  0FA4  01D4               	clrf	_servo_sel^(0+128)
  7700  0FA5  0AD4               	incf	_servo_sel^(0+128),f
  7701                           
  7702                           ;master_main_dar-alv.c: 227:             }
  7703  0FA6  2FF5               	goto	i1l205
  7704  0FA7                     i1l4042:
  7705  0FA7  3002               	movlw	2
  7706  0FA8  0655               	xorwf	_serial_val^(0+128),w
  7707  0FA9  1D03               	btfss	3,2
  7708  0FAA  2FAC               	goto	u634_21
  7709  0FAB  2FAD               	goto	u634_20
  7710  0FAC                     u634_21:
  7711  0FAC  2FB2               	goto	i1l4046
  7712  0FAD                     u634_20:
  7713  0FAD                     i1l4044:
  7714                           
  7715                           ;master_main_dar-alv.c: 229:                 servo_sel = 2;
  7716  0FAD  3002               	movlw	2
  7717  0FAE  00AB               	movwf	??_isr^(0+128)
  7718  0FAF  082B               	movf	??_isr^(0+128),w
  7719  0FB0  00D4               	movwf	_servo_sel^(0+128)
  7720                           
  7721                           ;master_main_dar-alv.c: 230:             }
  7722  0FB1  2FF5               	goto	i1l205
  7723  0FB2                     i1l4046:
  7724  0FB2  3003               	movlw	3
  7725  0FB3  0655               	xorwf	_serial_val^(0+128),w
  7726  0FB4  1D03               	btfss	3,2
  7727  0FB5  2FB7               	goto	u635_21
  7728  0FB6  2FB8               	goto	u635_20
  7729  0FB7                     u635_21:
  7730  0FB7  2FBD               	goto	i1l4050
  7731  0FB8                     u635_20:
  7732  0FB8                     i1l4048:
  7733                           
  7734                           ;master_main_dar-alv.c: 232:                 servo_sel = 3;
  7735  0FB8  3003               	movlw	3
  7736  0FB9  00AB               	movwf	??_isr^(0+128)
  7737  0FBA  082B               	movf	??_isr^(0+128),w
  7738  0FBB  00D4               	movwf	_servo_sel^(0+128)
  7739                           
  7740                           ;master_main_dar-alv.c: 233:             }
  7741  0FBC  2FF5               	goto	i1l205
  7742  0FBD                     i1l4050:
  7743  0FBD  3004               	movlw	4
  7744  0FBE  0255               	subwf	_serial_val^(0+128),w
  7745  0FBF  1C03               	skipc
  7746  0FC0  2FC2               	goto	u636_21
  7747  0FC1  2FC3               	goto	u636_20
  7748  0FC2                     u636_21:
  7749  0FC2  2FF5               	goto	i1l205
  7750  0FC3                     u636_20:
  7751  0FC3                     i1l4052:
  7752                           
  7753                           ;master_main_dar-alv.c: 235:                 if (servo_sel == 0){
  7754  0FC3  0854               	movf	_servo_sel^(0+128),w
  7755  0FC4  1D03               	btfss	3,2
  7756  0FC5  2FC7               	goto	u637_21
  7757  0FC6  2FC8               	goto	u637_20
  7758  0FC7                     u637_21:
  7759  0FC7  2FCF               	goto	i1l4056
  7760  0FC8                     u637_20:
  7761  0FC8                     i1l4054:
  7762                           
  7763                           ;master_main_dar-alv.c: 236:                     pot1_serial = serial_val;
  7764  0FC8  0855               	movf	_serial_val^(0+128),w
  7765  0FC9  00AB               	movwf	??_isr^(0+128)
  7766  0FCA  082B               	movf	??_isr^(0+128),w
  7767  0FCB  1683               	bsf	3,5	;RP0=1, select bank3
  7768  0FCC  1703               	bsf	3,6	;RP1=1, select bank3
  7769  0FCD  00DE               	movwf	_pot1_serial^(0+384)
  7770                           
  7771                           ;master_main_dar-alv.c: 237:                 }
  7772  0FCE  2FF5               	goto	i1l205
  7773  0FCF                     i1l4056:
  7774  0FCF  0354               	decf	_servo_sel^(0+128),w
  7775  0FD0  1D03               	btfss	3,2
  7776  0FD1  2FD3               	goto	u638_21
  7777  0FD2  2FD4               	goto	u638_20
  7778  0FD3                     u638_21:
  7779  0FD3  2FDB               	goto	i1l4060
  7780  0FD4                     u638_20:
  7781  0FD4                     i1l4058:
  7782                           
  7783                           ;master_main_dar-alv.c: 239:                     pot2_serial = serial_val;
  7784  0FD4  0855               	movf	_serial_val^(0+128),w
  7785  0FD5  00AB               	movwf	??_isr^(0+128)
  7786  0FD6  082B               	movf	??_isr^(0+128),w
  7787  0FD7  1683               	bsf	3,5	;RP0=1, select bank3
  7788  0FD8  1703               	bsf	3,6	;RP1=1, select bank3
  7789  0FD9  00DD               	movwf	_pot2_serial^(0+384)
  7790                           
  7791                           ;master_main_dar-alv.c: 240:                 }
  7792  0FDA  2FF5               	goto	i1l205
  7793  0FDB                     i1l4060:
  7794  0FDB  3002               	movlw	2
  7795  0FDC  0654               	xorwf	_servo_sel^(0+128),w
  7796  0FDD  1D03               	btfss	3,2
  7797  0FDE  2FE0               	goto	u639_21
  7798  0FDF  2FE1               	goto	u639_20
  7799  0FE0                     u639_21:
  7800  0FE0  2FE8               	goto	i1l4064
  7801  0FE1                     u639_20:
  7802  0FE1                     i1l4062:
  7803                           
  7804                           ;master_main_dar-alv.c: 242:                     pot3_serial = serial_val;
  7805  0FE1  0855               	movf	_serial_val^(0+128),w
  7806  0FE2  00AB               	movwf	??_isr^(0+128)
  7807  0FE3  082B               	movf	??_isr^(0+128),w
  7808  0FE4  1683               	bsf	3,5	;RP0=1, select bank3
  7809  0FE5  1703               	bsf	3,6	;RP1=1, select bank3
  7810  0FE6  00DC               	movwf	_pot3_serial^(0+384)
  7811                           
  7812                           ;master_main_dar-alv.c: 243:                 }
  7813  0FE7  2FF5               	goto	i1l205
  7814  0FE8                     i1l4064:
  7815  0FE8  3003               	movlw	3
  7816  0FE9  0654               	xorwf	_servo_sel^(0+128),w
  7817  0FEA  1D03               	btfss	3,2
  7818  0FEB  2FED               	goto	u640_21
  7819  0FEC  2FEE               	goto	u640_20
  7820  0FED                     u640_21:
  7821  0FED  2FF5               	goto	i1l199
  7822  0FEE                     u640_20:
  7823  0FEE                     i1l4066:
  7824                           
  7825                           ;master_main_dar-alv.c: 245:                     pot4_serial = serial_val;
  7826  0FEE  0855               	movf	_serial_val^(0+128),w
  7827  0FEF  00AB               	movwf	??_isr^(0+128)
  7828  0FF0  082B               	movf	??_isr^(0+128),w
  7829  0FF1  1683               	bsf	3,5	;RP0=1, select bank3
  7830  0FF2  1703               	bsf	3,6	;RP1=1, select bank3
  7831  0FF3  00DB               	movwf	_pot4_serial^(0+384)
  7832  0FF4  2FF5               	goto	i1l205
  7833  0FF5                     i1l199:
  7834  0FF5                     i1l205:
  7835  0FF5  1683               	bsf	3,5	;RP0=1, select bank1
  7836  0FF6  1303               	bcf	3,6	;RP1=0, select bank1
  7837  0FF7  082F               	movf	(??_isr+4)^(0+128),w
  7838  0FF8  00FF               	movwf	btemp+1
  7839  0FF9  082E               	movf	(??_isr+3)^(0+128),w
  7840  0FFA  008A               	movwf	10
  7841  0FFB  0E2D               	swapf	(??_isr+2)^(0+128),w
  7842  0FFC  0083               	movwf	3
  7843  0FFD  0EFE               	swapf	btemp,f
  7844  0FFE  0E7E               	swapf	btemp,w
  7845  0FFF  0009               	retfie
  7846  1000                     __end_of_isr:
  7847                           
  7848                           	psect	intentry
  7849  0004                     __pintentry:	
  7850                           ;incstack = 0
  7851                           ; Regs used in _isr: [wreg+status,2+status,0+btemp+1+pclath+cstack]
  7852                           
  7853  0004                     interrupt_function:
  7854  007E                     saved_w	set	btemp
  7855  0004  00FE               	movwf	btemp
  7856  0005  0E03               	swapf	3,w
  7857  0006  1683               	bsf	3,5	;RP0=1, select bank1
  7858  0007  1303               	bcf	3,6	;RP1=0, select bank1
  7859  0008  00AD               	movwf	(??_isr+2)^(0+128)
  7860  0009  080A               	movf	10,w
  7861  000A  00AE               	movwf	(??_isr+3)^(0+128)
  7862  000B  087F               	movf	btemp+1,w
  7863  000C  00AF               	movwf	(??_isr+4)^(0+128)
  7864  000D  120A  158A  2B59   	ljmp	_isr
  7865                           
  7866                           	psect	text10
  7867  0807                     __ptext10:	
  7868 ;; *************** function i1_map *****************
  7869 ;; Defined at:
  7870 ;;		line 435 in file "master_main_dar-alv.c"
  7871 ;; Parameters:    Size  Location     Type
  7872 ;;  x               1    wreg     unsigned char 
  7873 ;;  x0              1    5[BANK1 ] unsigned char 
  7874 ;;  x1              1    6[BANK1 ] unsigned char 
  7875 ;;  y0              2    7[BANK1 ] unsigned short 
  7876 ;;  y1              2    9[BANK1 ] unsigned short 
  7877 ;; Auto vars:     Size  Location     Type
  7878 ;;  x               1   78[BANK0 ] unsigned char 
  7879 ;; Return value:  Size  Location     Type
  7880 ;;                  2    5[BANK1 ] unsigned short 
  7881 ;; Registers used:
  7882 ;;		wreg, status,2, status,0, btemp+1, pclath, cstack
  7883 ;; Tracked objects:
  7884 ;;		On entry : 0/0
  7885 ;;		On exit  : 0/0
  7886 ;;		Unchanged: 0/0
  7887 ;; Data sizes:     COMMON   BANK0   BANK1   BANK3   BANK2
  7888 ;;      Params:         0       0       6       0       0
  7889 ;;      Locals:         0       1       0       0       0
  7890 ;;      Temps:          0       0       0       0       0
  7891 ;;      Totals:         0       1       6       0       0
  7892 ;;Total ram usage:        7 bytes
  7893 ;; Hardware stack levels used: 1
  7894 ;; Hardware stack levels required when called: 2
  7895 ;; This function calls:
  7896 ;;		i1___fladd
  7897 ;;		i1___fldiv
  7898 ;;		i1___flmul
  7899 ;;		i1___fltol
  7900 ;;		i1___xxtofl
  7901 ;; This function is called by:
  7902 ;;		_isr
  7903 ;; This function uses a non-reentrant model
  7904 ;;
  7905                           
  7906  0807                     i1_map:	
  7907                           ;psect for function i1_map
  7908                           
  7909                           
  7910                           ;incstack = 0
  7911                           ; Regs used in i1_map: [wreg+status,2+status,0+btemp+1+pclath+cstack]
  7912                           ;i1map@x stored from wreg
  7913  0807  1283               	bcf	3,5	;RP0=0, select bank0
  7914  0808  1303               	bcf	3,6	;RP1=0, select bank0
  7915  0809  00EE               	movwf	i1map@x
  7916  080A                     i1l3818:
  7917                           
  7918                           ;master_main_dar-alv.c: 435: unsigned short map(uint8_t x, uint8_t x0, uint8_t x1,;maste
      +                          r_main_dar-alv.c: 436:             unsigned short y0, unsigned short y1){;master_main_da
      +                          r-alv.c: 437:     return (unsigned short)(y0+((float)(y1-y0)/(x1-x0))*(x-x0));
  7919  080A  1683               	bsf	3,5	;RP0=1, select bank1
  7920  080B  1303               	bcf	3,6	;RP1=0, select bank1
  7921  080C  0827               	movf	i1map@y0^(0+128),w
  7922  080D  00F0               	movwf	i1___xxtofl@val
  7923  080E  0828               	movf	(i1map@y0+1)^(0+128),w
  7924  080F  00F1               	movwf	i1___xxtofl@val+1
  7925  0810  01F2               	clrf	i1___xxtofl@val+2
  7926  0811  01F3               	clrf	i1___xxtofl@val+3
  7927  0812  3000               	movlw	0
  7928  0813  160A  158A  2257  120A  158A  	fcall	i1___xxtofl
  7929  0818  0873               	movf	?i1___xxtofl+3,w
  7930  0819  1283               	bcf	3,5	;RP0=0, select bank0
  7931  081A  1303               	bcf	3,6	;RP1=0, select bank0
  7932  081B  00DB               	movwf	i1___fladd@a+3
  7933  081C  0872               	movf	?i1___xxtofl+2,w
  7934  081D  00DA               	movwf	i1___fladd@a+2
  7935  081E  0871               	movf	?i1___xxtofl+1,w
  7936  081F  00D9               	movwf	i1___fladd@a+1
  7937  0820  0870               	movf	?i1___xxtofl,w
  7938  0821  00D8               	movwf	i1___fladd@a
  7939  0822  1683               	bsf	3,5	;RP0=1, select bank1
  7940  0823  1303               	bcf	3,6	;RP1=0, select bank1
  7941  0824  0827               	movf	i1map@y0^(0+128),w
  7942  0825  0229               	subwf	i1map@y1^(0+128),w
  7943  0826  00F0               	movwf	i1___xxtofl@val
  7944  0827  0828               	movf	(i1map@y0+1)^(0+128),w
  7945  0828  1C03               	skipc
  7946  0829  0A28               	incf	(i1map@y0+1)^(0+128),w
  7947  082A  022A               	subwf	(i1map@y1+1)^(0+128),w
  7948  082B  00F1               	movwf	i1___xxtofl@val+1
  7949  082C  01F2               	clrf	i1___xxtofl@val+2
  7950  082D  01F3               	clrf	i1___xxtofl@val+3
  7951  082E  3000               	movlw	0
  7952  082F  160A  158A  2257  120A  158A  	fcall	i1___xxtofl
  7953  0834  0873               	movf	?i1___xxtofl+3,w
  7954  0835  1283               	bcf	3,5	;RP0=0, select bank0
  7955  0836  1303               	bcf	3,6	;RP1=0, select bank0
  7956  0837  00A7               	movwf	i1___fldiv@b+3
  7957  0838  0872               	movf	?i1___xxtofl+2,w
  7958  0839  00A6               	movwf	i1___fldiv@b+2
  7959  083A  0871               	movf	?i1___xxtofl+1,w
  7960  083B  00A5               	movwf	i1___fldiv@b+1
  7961  083C  0870               	movf	?i1___xxtofl,w
  7962  083D  00A4               	movwf	i1___fldiv@b
  7963  083E  1683               	bsf	3,5	;RP0=1, select bank1
  7964  083F  1303               	bcf	3,6	;RP1=0, select bank1
  7965  0840  0825               	movf	i1map@x0^(0+128),w
  7966  0841  0226               	subwf	i1map@x1^(0+128),w
  7967  0842  00F0               	movwf	i1___xxtofl@val
  7968  0843  01F1               	clrf	i1___xxtofl@val+1
  7969  0844  1C03               	skipc
  7970  0845  03F1               	decf	i1___xxtofl@val+1,f
  7971  0846  01F2               	clrf	i1___xxtofl@val+2
  7972  0847  1BF1               	btfsc	i1___xxtofl@val+1,7
  7973  0848  03F2               	decf	i1___xxtofl@val+2,f
  7974  0849  0872               	movf	i1___xxtofl@val+2,w
  7975  084A  00F3               	movwf	i1___xxtofl@val+3
  7976  084B  3001               	movlw	1
  7977  084C  160A  158A  2257  120A  158A  	fcall	i1___xxtofl
  7978  0851  0873               	movf	?i1___xxtofl+3,w
  7979  0852  1283               	bcf	3,5	;RP0=0, select bank0
  7980  0853  1303               	bcf	3,6	;RP1=0, select bank0
  7981  0854  00A3               	movwf	i1___fldiv@a+3
  7982  0855  0872               	movf	?i1___xxtofl+2,w
  7983  0856  00A2               	movwf	i1___fldiv@a+2
  7984  0857  0871               	movf	?i1___xxtofl+1,w
  7985  0858  00A1               	movwf	i1___fldiv@a+1
  7986  0859  0870               	movf	?i1___xxtofl,w
  7987  085A  00A0               	movwf	i1___fldiv@a
  7988  085B  120A  118A  25AC  120A  158A  	fcall	i1___fldiv
  7989  0860  1283               	bcf	3,5	;RP0=0, select bank0
  7990  0861  1303               	bcf	3,6	;RP1=0, select bank0
  7991  0862  0823               	movf	?i1___fldiv+3,w
  7992  0863  00C1               	movwf	i1___flmul@a+3
  7993  0864  0822               	movf	?i1___fldiv+2,w
  7994  0865  00C0               	movwf	i1___flmul@a+2
  7995  0866  0821               	movf	?i1___fldiv+1,w
  7996  0867  00BF               	movwf	i1___flmul@a+1
  7997  0868  0820               	movf	?i1___fldiv,w
  7998  0869  00BE               	movwf	i1___flmul@a
  7999  086A  1683               	bsf	3,5	;RP0=1, select bank1
  8000  086B  1303               	bcf	3,6	;RP1=0, select bank1
  8001  086C  0825               	movf	i1map@x0^(0+128),w
  8002  086D  1283               	bcf	3,5	;RP0=0, select bank0
  8003  086E  1303               	bcf	3,6	;RP1=0, select bank0
  8004  086F  026E               	subwf	i1map@x,w
  8005  0870  00F0               	movwf	i1___xxtofl@val
  8006  0871  01F1               	clrf	i1___xxtofl@val+1
  8007  0872  1C03               	skipc
  8008  0873  03F1               	decf	i1___xxtofl@val+1,f
  8009  0874  01F2               	clrf	i1___xxtofl@val+2
  8010  0875  1BF1               	btfsc	i1___xxtofl@val+1,7
  8011  0876  03F2               	decf	i1___xxtofl@val+2,f
  8012  0877  0872               	movf	i1___xxtofl@val+2,w
  8013  0878  00F3               	movwf	i1___xxtofl@val+3
  8014  0879  3001               	movlw	1
  8015  087A  160A  158A  2257  120A  158A  	fcall	i1___xxtofl
  8016  087F  0873               	movf	?i1___xxtofl+3,w
  8017  0880  1283               	bcf	3,5	;RP0=0, select bank0
  8018  0881  1303               	bcf	3,6	;RP1=0, select bank0
  8019  0882  00BD               	movwf	i1___flmul@b+3
  8020  0883  0872               	movf	?i1___xxtofl+2,w
  8021  0884  00BC               	movwf	i1___flmul@b+2
  8022  0885  0871               	movf	?i1___xxtofl+1,w
  8023  0886  00BB               	movwf	i1___flmul@b+1
  8024  0887  0870               	movf	?i1___xxtofl,w
  8025  0888  00BA               	movwf	i1___flmul@b
  8026  0889  160A  118A  249F  120A  158A  	fcall	i1___flmul
  8027  088E  1283               	bcf	3,5	;RP0=0, select bank0
  8028  088F  1303               	bcf	3,6	;RP1=0, select bank0
  8029  0890  083D               	movf	?i1___flmul+3,w
  8030  0891  00D7               	movwf	i1___fladd@b+3
  8031  0892  083C               	movf	?i1___flmul+2,w
  8032  0893  00D6               	movwf	i1___fladd@b+2
  8033  0894  083B               	movf	?i1___flmul+1,w
  8034  0895  00D5               	movwf	i1___fladd@b+1
  8035  0896  083A               	movf	?i1___flmul,w
  8036  0897  00D4               	movwf	i1___fladd@b
  8037  0898  160A  158A  2578  120A  158A  	fcall	i1___fladd
  8038  089D  1283               	bcf	3,5	;RP0=0, select bank0
  8039  089E  1303               	bcf	3,6	;RP1=0, select bank0
  8040  089F  0857               	movf	?i1___fladd+3,w
  8041  08A0  00EB               	movwf	i1___fltol@f1+3
  8042  08A1  0856               	movf	?i1___fladd+2,w
  8043  08A2  00EA               	movwf	i1___fltol@f1+2
  8044  08A3  0855               	movf	?i1___fladd+1,w
  8045  08A4  00E9               	movwf	i1___fltol@f1+1
  8046  08A5  0854               	movf	?i1___fladd,w
  8047  08A6  00E8               	movwf	i1___fltol@f1
  8048  08A7  160A  158A  21BB  120A  158A  	fcall	i1___fltol
  8049  08AC  1283               	bcf	3,5	;RP0=0, select bank0
  8050  08AD  1303               	bcf	3,6	;RP1=0, select bank0
  8051  08AE  0869               	movf	?i1___fltol+1,w
  8052  08AF  1683               	bsf	3,5	;RP0=1, select bank1
  8053  08B0  1303               	bcf	3,6	;RP1=0, select bank1
  8054  08B1  00A6               	movwf	(?i1_map+1)^(0+128)
  8055  08B2  1283               	bcf	3,5	;RP0=0, select bank0
  8056  08B3  1303               	bcf	3,6	;RP1=0, select bank0
  8057  08B4  0868               	movf	?i1___fltol,w
  8058  08B5  1683               	bsf	3,5	;RP0=1, select bank1
  8059  08B6  1303               	bcf	3,6	;RP1=0, select bank1
  8060  08B7  00A5               	movwf	?i1_map^(0+128)
  8061  08B8                     i1l246:
  8062  08B8  0008               	return
  8063  08B9                     __end_ofi1_map:
  8064                           
  8065                           	psect	text11
  8066  1A57                     __ptext11:	
  8067 ;; *************** function i1___xxtofl *****************
  8068 ;; Defined at:
  8069 ;;		line 10 in file "C:\Program Files\Microchip\xc8\v2.35\pic\sources\c90\common\xxtofl.c"
  8070 ;; Parameters:    Size  Location     Type
  8071 ;;  sign            1    wreg     unsigned char 
  8072 ;;  val             4    0[COMMON] long 
  8073 ;; Auto vars:     Size  Location     Type
  8074 ;;  sign            1    8[COMMON] unsigned char 
  8075 ;;  arg             4   10[COMMON] unsigned long 
  8076 ;;  exp             1    9[COMMON] unsigned char 
  8077 ;; Return value:  Size  Location     Type
  8078 ;;                  4    0[COMMON] unsigned char 
  8079 ;; Registers used:
  8080 ;;		wreg, status,2, status,0
  8081 ;; Tracked objects:
  8082 ;;		On entry : 0/0
  8083 ;;		On exit  : 0/0
  8084 ;;		Unchanged: 0/0
  8085 ;; Data sizes:     COMMON   BANK0   BANK1   BANK3   BANK2
  8086 ;;      Params:         4       0       0       0       0
  8087 ;;      Locals:         6       0       0       0       0
  8088 ;;      Temps:          4       0       0       0       0
  8089 ;;      Totals:        14       0       0       0       0
  8090 ;;Total ram usage:       14 bytes
  8091 ;; Hardware stack levels used: 1
  8092 ;; This function calls:
  8093 ;;		Nothing
  8094 ;; This function is called by:
  8095 ;;		i1_map
  8096 ;; This function uses a non-reentrant model
  8097 ;;
  8098                           
  8099  1A57                     i1___xxtofl:	
  8100                           ;psect for function i1___xxtofl
  8101                           
  8102                           
  8103                           ;incstack = 0
  8104                           ; Regs used in i1___xxtofl: [wreg+status,2+status,0]
  8105                           ;i1___xxtofl@sign stored from wreg
  8106  1A57  00F8               	movwf	i1___xxtofl@sign
  8107  1A58                     i1l3618:
  8108  1A58  0878               	movf	i1___xxtofl@sign,w
  8109  1A59  1903               	btfsc	3,2
  8110  1A5A  2A5C               	goto	u591_21
  8111  1A5B  2A5D               	goto	u591_20
  8112  1A5C                     u591_21:
  8113  1A5C  2A71               	goto	i1l3624
  8114  1A5D                     u591_20:
  8115  1A5D                     i1l3620:
  8116  1A5D  1FF3               	btfss	i1___xxtofl@val+3,7
  8117  1A5E  2A60               	goto	u592_21
  8118  1A5F  2A61               	goto	u592_20
  8119  1A60                     u592_21:
  8120  1A60  2A71               	goto	i1l3624
  8121  1A61                     u592_20:
  8122  1A61                     i1l3622:
  8123  1A61  0970               	comf	i1___xxtofl@val,w
  8124  1A62  00FA               	movwf	i1___xxtofl@arg
  8125  1A63  0971               	comf	i1___xxtofl@val+1,w
  8126  1A64  00FB               	movwf	i1___xxtofl@arg+1
  8127  1A65  0972               	comf	i1___xxtofl@val+2,w
  8128  1A66  00FC               	movwf	i1___xxtofl@arg+2
  8129  1A67  0973               	comf	i1___xxtofl@val+3,w
  8130  1A68  00FD               	movwf	i1___xxtofl@arg+3
  8131  1A69  0AFA               	incf	i1___xxtofl@arg,f
  8132  1A6A  1903               	skipnz
  8133  1A6B  0AFB               	incf	i1___xxtofl@arg+1,f
  8134  1A6C  1903               	skipnz
  8135  1A6D  0AFC               	incf	i1___xxtofl@arg+2,f
  8136  1A6E  1903               	skipnz
  8137  1A6F  0AFD               	incf	i1___xxtofl@arg+3,f
  8138  1A70  2A79               	goto	i1l777
  8139  1A71                     i1l3624:
  8140  1A71  0873               	movf	i1___xxtofl@val+3,w
  8141  1A72  00FD               	movwf	i1___xxtofl@arg+3
  8142  1A73  0872               	movf	i1___xxtofl@val+2,w
  8143  1A74  00FC               	movwf	i1___xxtofl@arg+2
  8144  1A75  0871               	movf	i1___xxtofl@val+1,w
  8145  1A76  00FB               	movwf	i1___xxtofl@arg+1
  8146  1A77  0870               	movf	i1___xxtofl@val,w
  8147  1A78  00FA               	movwf	i1___xxtofl@arg
  8148  1A79                     i1l777:
  8149  1A79  0873               	movf	i1___xxtofl@val+3,w
  8150  1A7A  0472               	iorwf	i1___xxtofl@val+2,w
  8151  1A7B  0471               	iorwf	i1___xxtofl@val+1,w
  8152  1A7C  0470               	iorwf	i1___xxtofl@val,w
  8153  1A7D  1D03               	skipz
  8154  1A7E  2A80               	goto	u593_21
  8155  1A7F  2A81               	goto	u593_20
  8156  1A80                     u593_21:
  8157  1A80  2A8A               	goto	i1l3630
  8158  1A81                     u593_20:
  8159  1A81                     i1l3626:
  8160  1A81  3000               	movlw	0
  8161  1A82  00F3               	movwf	?i1___xxtofl+3
  8162  1A83  3000               	movlw	0
  8163  1A84  00F2               	movwf	?i1___xxtofl+2
  8164  1A85  3000               	movlw	0
  8165  1A86  00F1               	movwf	?i1___xxtofl+1
  8166  1A87  3000               	movlw	0
  8167  1A88  00F0               	movwf	?i1___xxtofl
  8168  1A89  2B10               	goto	i1l779
  8169  1A8A                     i1l3630:
  8170  1A8A  3096               	movlw	150
  8171  1A8B  00F4               	movwf	??i1___xxtofl
  8172  1A8C  0874               	movf	??i1___xxtofl,w
  8173  1A8D  00F9               	movwf	i1___xxtofl@exp
  8174  1A8E  2A9C               	goto	i1l3634
  8175  1A8F                     i1l3632:
  8176  1A8F  3001               	movlw	1
  8177  1A90  00F4               	movwf	??i1___xxtofl
  8178  1A91  0874               	movf	??i1___xxtofl,w
  8179  1A92  07F9               	addwf	i1___xxtofl@exp,f
  8180  1A93  3001               	movlw	1
  8181  1A94                     u594_25:
  8182  1A94  1003               	clrc
  8183  1A95  0CFD               	rrf	i1___xxtofl@arg+3,f
  8184  1A96  0CFC               	rrf	i1___xxtofl@arg+2,f
  8185  1A97  0CFB               	rrf	i1___xxtofl@arg+1,f
  8186  1A98  0CFA               	rrf	i1___xxtofl@arg,f
  8187  1A99  3EFF               	addlw	-1
  8188  1A9A  1D03               	skipz
  8189  1A9B  2A94               	goto	u594_25
  8190  1A9C                     i1l3634:
  8191  1A9C  30FE               	movlw	254
  8192  1A9D  057D               	andwf	i1___xxtofl@arg+3,w
  8193  1A9E  1D03               	btfss	3,2
  8194  1A9F  2AA1               	goto	u595_21
  8195  1AA0  2AA2               	goto	u595_20
  8196  1AA1                     u595_21:
  8197  1AA1  2A8F               	goto	i1l3632
  8198  1AA2                     u595_20:
  8199  1AA2  2ABE               	goto	i1l783
  8200  1AA3                     i1l3636:
  8201  1AA3  3001               	movlw	1
  8202  1AA4  00F4               	movwf	??i1___xxtofl
  8203  1AA5  0874               	movf	??i1___xxtofl,w
  8204  1AA6  07F9               	addwf	i1___xxtofl@exp,f
  8205  1AA7                     i1l3638:
  8206  1AA7  3001               	movlw	1
  8207  1AA8  07FA               	addwf	i1___xxtofl@arg,f
  8208  1AA9  3000               	movlw	0
  8209  1AAA  1803               	skipnc
  8210  1AAB  3001               	movlw	1
  8211  1AAC  07FB               	addwf	i1___xxtofl@arg+1,f
  8212  1AAD  3000               	movlw	0
  8213  1AAE  1803               	skipnc
  8214  1AAF  3001               	movlw	1
  8215  1AB0  07FC               	addwf	i1___xxtofl@arg+2,f
  8216  1AB1  3000               	movlw	0
  8217  1AB2  1803               	skipnc
  8218  1AB3  3001               	movlw	1
  8219  1AB4  07FD               	addwf	i1___xxtofl@arg+3,f
  8220  1AB5                     i1l3640:
  8221  1AB5  3001               	movlw	1
  8222  1AB6                     u596_25:
  8223  1AB6  1003               	clrc
  8224  1AB7  0CFD               	rrf	i1___xxtofl@arg+3,f
  8225  1AB8  0CFC               	rrf	i1___xxtofl@arg+2,f
  8226  1AB9  0CFB               	rrf	i1___xxtofl@arg+1,f
  8227  1ABA  0CFA               	rrf	i1___xxtofl@arg,f
  8228  1ABB  3EFF               	addlw	-1
  8229  1ABC  1D03               	skipz
  8230  1ABD  2AB6               	goto	u596_25
  8231  1ABE                     i1l783:
  8232  1ABE  30FF               	movlw	255
  8233  1ABF  057D               	andwf	i1___xxtofl@arg+3,w
  8234  1AC0  1D03               	btfss	3,2
  8235  1AC1  2AC3               	goto	u597_21
  8236  1AC2  2AC4               	goto	u597_20
  8237  1AC3                     u597_21:
  8238  1AC3  2AA3               	goto	i1l3636
  8239  1AC4                     u597_20:
  8240  1AC4  2AD0               	goto	i1l3644
  8241  1AC5                     i1l3642:
  8242  1AC5  3001               	movlw	1
  8243  1AC6  02F9               	subwf	i1___xxtofl@exp,f
  8244  1AC7  3001               	movlw	1
  8245  1AC8  00F4               	movwf	??i1___xxtofl
  8246  1AC9                     u598_25:
  8247  1AC9  1003               	clrc
  8248  1ACA  0DFA               	rlf	i1___xxtofl@arg,f
  8249  1ACB  0DFB               	rlf	i1___xxtofl@arg+1,f
  8250  1ACC  0DFC               	rlf	i1___xxtofl@arg+2,f
  8251  1ACD  0DFD               	rlf	i1___xxtofl@arg+3,f
  8252  1ACE  0BF4               	decfsz	??i1___xxtofl,f
  8253  1ACF  2AC9               	goto	u598_25
  8254  1AD0                     i1l3644:
  8255  1AD0  1BFC               	btfsc	i1___xxtofl@arg+2,7
  8256  1AD1  2AD3               	goto	u599_21
  8257  1AD2  2AD4               	goto	u599_20
  8258  1AD3                     u599_21:
  8259  1AD3  2ADA               	goto	i1l790
  8260  1AD4                     u599_20:
  8261  1AD4                     i1l3646:
  8262  1AD4  3002               	movlw	2
  8263  1AD5  0279               	subwf	i1___xxtofl@exp,w
  8264  1AD6  1803               	skipnc
  8265  1AD7  2AD9               	goto	u600_21
  8266  1AD8  2ADA               	goto	u600_20
  8267  1AD9                     u600_21:
  8268  1AD9  2AC5               	goto	i1l3642
  8269  1ADA                     u600_20:
  8270  1ADA                     i1l790:
  8271  1ADA  1879               	btfsc	i1___xxtofl@exp,0
  8272  1ADB  2ADD               	goto	u601_21
  8273  1ADC  2ADE               	goto	u601_20
  8274  1ADD                     u601_21:
  8275  1ADD  2AE6               	goto	i1l791
  8276  1ADE                     u601_20:
  8277  1ADE                     i1l3648:
  8278  1ADE  30FF               	movlw	255
  8279  1ADF  05FA               	andwf	i1___xxtofl@arg,f
  8280  1AE0  30FF               	movlw	255
  8281  1AE1  05FB               	andwf	i1___xxtofl@arg+1,f
  8282  1AE2  307F               	movlw	127
  8283  1AE3  05FC               	andwf	i1___xxtofl@arg+2,f
  8284  1AE4  30FF               	movlw	255
  8285  1AE5  05FD               	andwf	i1___xxtofl@arg+3,f
  8286  1AE6                     i1l791:
  8287  1AE6  1003               	clrc
  8288  1AE7  0CF9               	rrf	i1___xxtofl@exp,f
  8289  1AE8                     i1l3650:
  8290  1AE8  0879               	movf	i1___xxtofl@exp,w
  8291  1AE9  00F4               	movwf	??i1___xxtofl
  8292  1AEA  01F5               	clrf	??i1___xxtofl+1
  8293  1AEB  01F6               	clrf	??i1___xxtofl+2
  8294  1AEC  01F7               	clrf	??i1___xxtofl+3
  8295  1AED  3018               	movlw	24
  8296  1AEE                     u602_25:
  8297  1AEE  1003               	clrc
  8298  1AEF  0DF4               	rlf	??i1___xxtofl,f
  8299  1AF0  0DF5               	rlf	??i1___xxtofl+1,f
  8300  1AF1  0DF6               	rlf	??i1___xxtofl+2,f
  8301  1AF2  0DF7               	rlf	??i1___xxtofl+3,f
  8302  1AF3                     u602_20:
  8303  1AF3  3EFF               	addlw	-1
  8304  1AF4  1D03               	skipz
  8305  1AF5  2AEE               	goto	u602_25
  8306  1AF6  0874               	movf	??i1___xxtofl,w
  8307  1AF7  04FA               	iorwf	i1___xxtofl@arg,f
  8308  1AF8  0875               	movf	??i1___xxtofl+1,w
  8309  1AF9  04FB               	iorwf	i1___xxtofl@arg+1,f
  8310  1AFA  0876               	movf	??i1___xxtofl+2,w
  8311  1AFB  04FC               	iorwf	i1___xxtofl@arg+2,f
  8312  1AFC  0877               	movf	??i1___xxtofl+3,w
  8313  1AFD  04FD               	iorwf	i1___xxtofl@arg+3,f
  8314  1AFE                     i1l3652:
  8315  1AFE  0878               	movf	i1___xxtofl@sign,w
  8316  1AFF  1903               	btfsc	3,2
  8317  1B00  2B02               	goto	u603_21
  8318  1B01  2B03               	goto	u603_20
  8319  1B02                     u603_21:
  8320  1B02  2B08               	goto	i1l3658
  8321  1B03                     u603_20:
  8322  1B03                     i1l3654:
  8323  1B03  1FF3               	btfss	i1___xxtofl@val+3,7
  8324  1B04  2B06               	goto	u604_21
  8325  1B05  2B07               	goto	u604_20
  8326  1B06                     u604_21:
  8327  1B06  2B08               	goto	i1l3658
  8328  1B07                     u604_20:
  8329  1B07                     i1l3656:
  8330  1B07  17FD               	bsf	i1___xxtofl@arg+3,7
  8331  1B08                     i1l3658:
  8332  1B08  087D               	movf	i1___xxtofl@arg+3,w
  8333  1B09  00F3               	movwf	?i1___xxtofl+3
  8334  1B0A  087C               	movf	i1___xxtofl@arg+2,w
  8335  1B0B  00F2               	movwf	?i1___xxtofl+2
  8336  1B0C  087B               	movf	i1___xxtofl@arg+1,w
  8337  1B0D  00F1               	movwf	?i1___xxtofl+1
  8338  1B0E  087A               	movf	i1___xxtofl@arg,w
  8339  1B0F  00F0               	movwf	?i1___xxtofl
  8340  1B10                     i1l779:
  8341  1B10  0008               	return
  8342  1B11                     __end_ofi1___xxtofl:
  8343                           
  8344                           	psect	text12
  8345  19BB                     __ptext12:	
  8346 ;; *************** function i1___fltol *****************
  8347 ;; Defined at:
  8348 ;;		line 43 in file "C:\Program Files\Microchip\xc8\v2.35\pic\sources\c90\common\fltol.c"
  8349 ;; Parameters:    Size  Location     Type
  8350 ;;  f1              4   72[BANK0 ] unsigned char 
  8351 ;; Auto vars:     Size  Location     Type
  8352 ;;  exp1            1   77[BANK0 ] unsigned char 
  8353 ;;  sign1           1   76[BANK0 ] unsigned char 
  8354 ;; Return value:  Size  Location     Type
  8355 ;;                  4   72[BANK0 ] long 
  8356 ;; Registers used:
  8357 ;;		wreg, status,2, status,0
  8358 ;; Tracked objects:
  8359 ;;		On entry : 0/0
  8360 ;;		On exit  : 0/0
  8361 ;;		Unchanged: 0/0
  8362 ;; Data sizes:     COMMON   BANK0   BANK1   BANK3   BANK2
  8363 ;;      Params:         0       4       0       0       0
  8364 ;;      Locals:         0       2       0       0       0
  8365 ;;      Temps:          0       0       5       0       0
  8366 ;;      Totals:         0       6       5       0       0
  8367 ;;Total ram usage:       11 bytes
  8368 ;; Hardware stack levels used: 1
  8369 ;; This function calls:
  8370 ;;		Nothing
  8371 ;; This function is called by:
  8372 ;;		i1_map
  8373 ;; This function uses a non-reentrant model
  8374 ;;
  8375                           
  8376  19BB                     i1___fltol:	
  8377                           ;psect for function i1___fltol
  8378                           
  8379  19BB                     i1l3106:	
  8380                           ;incstack = 0
  8381                           ; Regs used in i1___fltol: [wreg+status,2+status,0]
  8382                           
  8383  19BB  1003               	clrc
  8384  19BC  1283               	bcf	3,5	;RP0=0, select bank0
  8385  19BD  1303               	bcf	3,6	;RP1=0, select bank0
  8386  19BE  0D6A               	rlf	i1___fltol@f1+2,w
  8387  19BF  0D6B               	rlf	i1___fltol@f1+3,w
  8388  19C0  1683               	bsf	3,5	;RP0=1, select bank1
  8389  19C1  1303               	bcf	3,6	;RP1=0, select bank1
  8390  19C2  00A0               	movwf	??i1___fltol^(0+128)
  8391  19C3  0820               	movf	??i1___fltol^(0+128),w
  8392  19C4  1283               	bcf	3,5	;RP0=0, select bank0
  8393  19C5  1303               	bcf	3,6	;RP1=0, select bank0
  8394  19C6  00ED               	movwf	i1___fltol@exp1
  8395  19C7  086D               	movf	i1___fltol@exp1,w
  8396  19C8  1D03               	btfss	3,2
  8397  19C9  29CB               	goto	u469_21
  8398  19CA  29CC               	goto	u469_20
  8399  19CB                     u469_21:
  8400  19CB  29D5               	goto	i1l3112
  8401  19CC                     u469_20:
  8402  19CC                     i1l3108:
  8403  19CC  3000               	movlw	0
  8404  19CD  00EB               	movwf	?i1___fltol+3
  8405  19CE  3000               	movlw	0
  8406  19CF  00EA               	movwf	?i1___fltol+2
  8407  19D0  3000               	movlw	0
  8408  19D1  00E9               	movwf	?i1___fltol+1
  8409  19D2  3000               	movlw	0
  8410  19D3  00E8               	movwf	?i1___fltol
  8411  19D4  2A56               	goto	i1l530
  8412  19D5                     i1l3112:
  8413  19D5  0868               	movf	i1___fltol@f1,w
  8414  19D6  1683               	bsf	3,5	;RP0=1, select bank1
  8415  19D7  1303               	bcf	3,6	;RP1=0, select bank1
  8416  19D8  00A0               	movwf	??i1___fltol^(0+128)
  8417  19D9  1283               	bcf	3,5	;RP0=0, select bank0
  8418  19DA  1303               	bcf	3,6	;RP1=0, select bank0
  8419  19DB  0869               	movf	i1___fltol@f1+1,w
  8420  19DC  1683               	bsf	3,5	;RP0=1, select bank1
  8421  19DD  1303               	bcf	3,6	;RP1=0, select bank1
  8422  19DE  00A1               	movwf	(??i1___fltol^(0+128)+1)
  8423  19DF  1283               	bcf	3,5	;RP0=0, select bank0
  8424  19E0  1303               	bcf	3,6	;RP1=0, select bank0
  8425  19E1  086A               	movf	i1___fltol@f1+2,w
  8426  19E2  1683               	bsf	3,5	;RP0=1, select bank1
  8427  19E3  1303               	bcf	3,6	;RP1=0, select bank1
  8428  19E4  00A2               	movwf	(??i1___fltol^(0+128)+2)
  8429  19E5  1283               	bcf	3,5	;RP0=0, select bank0
  8430  19E6  1303               	bcf	3,6	;RP1=0, select bank0
  8431  19E7  086B               	movf	i1___fltol@f1+3,w
  8432  19E8  1683               	bsf	3,5	;RP0=1, select bank1
  8433  19E9  1303               	bcf	3,6	;RP1=0, select bank1
  8434  19EA  00A3               	movwf	(??i1___fltol^(0+128)+3)
  8435  19EB  301F               	movlw	31
  8436  19EC                     u470_25:
  8437  19EC  1003               	clrc
  8438  19ED  0CA3               	rrf	(??i1___fltol^(0+128)+3),f
  8439  19EE  0CA2               	rrf	(??i1___fltol^(0+128)+2),f
  8440  19EF  0CA1               	rrf	(??i1___fltol^(0+128)+1),f
  8441  19F0  0CA0               	rrf	??i1___fltol^(0+128),f
  8442  19F1                     u470_20:
  8443  19F1  3EFF               	addlw	-1
  8444  19F2  1D03               	skipz
  8445  19F3  29EC               	goto	u470_25
  8446  19F4  0820               	movf	??i1___fltol^(0+128),w
  8447  19F5  00A4               	movwf	(??i1___fltol+4)^(0+128)
  8448  19F6  0824               	movf	(??i1___fltol+4)^(0+128),w
  8449  19F7  1283               	bcf	3,5	;RP0=0, select bank0
  8450  19F8  1303               	bcf	3,6	;RP1=0, select bank0
  8451  19F9  00EC               	movwf	i1___fltol@sign1
  8452  19FA                     i1l3114:
  8453  19FA  17EA               	bsf	i1___fltol@f1+2,7
  8454  19FB                     i1l3116:
  8455  19FB  30FF               	movlw	255
  8456  19FC  05E8               	andwf	i1___fltol@f1,f
  8457  19FD  30FF               	movlw	255
  8458  19FE  05E9               	andwf	i1___fltol@f1+1,f
  8459  19FF  30FF               	movlw	255
  8460  1A00  05EA               	andwf	i1___fltol@f1+2,f
  8461  1A01  3000               	movlw	0
  8462  1A02  05EB               	andwf	i1___fltol@f1+3,f
  8463  1A03                     i1l3118:
  8464  1A03  3096               	movlw	150
  8465  1A04  02ED               	subwf	i1___fltol@exp1,f
  8466  1A05                     i1l3120:
  8467  1A05  1FED               	btfss	i1___fltol@exp1,7
  8468  1A06  2A08               	goto	u471_21
  8469  1A07  2A09               	goto	u471_20
  8470  1A08                     u471_21:
  8471  1A08  2A27               	goto	i1l3130
  8472  1A09                     u471_20:
  8473  1A09                     i1l3122:
  8474  1A09  086D               	movf	i1___fltol@exp1,w
  8475  1A0A  3A80               	xorlw	128
  8476  1A0B  3E97               	addlw	151
  8477  1A0C  1803               	skipnc
  8478  1A0D  2A0F               	goto	u472_21
  8479  1A0E  2A10               	goto	u472_20
  8480  1A0F                     u472_21:
  8481  1A0F  2A11               	goto	i1l3128
  8482  1A10                     u472_20:
  8483  1A10  29CC               	goto	i1l3108
  8484  1A11                     i1l3128:
  8485  1A11  3001               	movlw	1
  8486  1A12                     u473_25:
  8487  1A12  1003               	clrc
  8488  1A13  0CEB               	rrf	i1___fltol@f1+3,f
  8489  1A14  0CEA               	rrf	i1___fltol@f1+2,f
  8490  1A15  0CE9               	rrf	i1___fltol@f1+1,f
  8491  1A16  0CE8               	rrf	i1___fltol@f1,f
  8492  1A17  3EFF               	addlw	-1
  8493  1A18  1D03               	skipz
  8494  1A19  2A12               	goto	u473_25
  8495  1A1A  3001               	movlw	1
  8496  1A1B  1683               	bsf	3,5	;RP0=1, select bank1
  8497  1A1C  1303               	bcf	3,6	;RP1=0, select bank1
  8498  1A1D  00A0               	movwf	??i1___fltol^(0+128)
  8499  1A1E  0820               	movf	??i1___fltol^(0+128),w
  8500  1A1F  1283               	bcf	3,5	;RP0=0, select bank0
  8501  1A20  1303               	bcf	3,6	;RP1=0, select bank0
  8502  1A21  07ED               	addwf	i1___fltol@exp1,f
  8503  1A22  1D03               	btfss	3,2
  8504  1A23  2A25               	goto	u474_21
  8505  1A24  2A26               	goto	u474_20
  8506  1A25                     u474_21:
  8507  1A25  2A11               	goto	i1l3128
  8508  1A26                     u474_20:
  8509  1A26  2A46               	goto	i1l3138
  8510  1A27                     i1l3130:
  8511  1A27  3020               	movlw	32
  8512  1A28  026D               	subwf	i1___fltol@exp1,w
  8513  1A29  1C03               	skipc
  8514  1A2A  2A2C               	goto	u475_21
  8515  1A2B  2A2D               	goto	u475_20
  8516  1A2C                     u475_21:
  8517  1A2C  2A41               	goto	i1l537
  8518  1A2D                     u475_20:
  8519  1A2D  29CC               	goto	i1l3108
  8520  1A2E                     i1l3136:
  8521  1A2E  3001               	movlw	1
  8522  1A2F  1683               	bsf	3,5	;RP0=1, select bank1
  8523  1A30  1303               	bcf	3,6	;RP1=0, select bank1
  8524  1A31  00A0               	movwf	??i1___fltol^(0+128)
  8525  1A32                     u476_25:
  8526  1A32  1003               	clrc
  8527  1A33  1283               	bcf	3,5	;RP0=0, select bank0
  8528  1A34  1303               	bcf	3,6	;RP1=0, select bank0
  8529  1A35  0DE8               	rlf	i1___fltol@f1,f
  8530  1A36  0DE9               	rlf	i1___fltol@f1+1,f
  8531  1A37  0DEA               	rlf	i1___fltol@f1+2,f
  8532  1A38  0DEB               	rlf	i1___fltol@f1+3,f
  8533  1A39  1683               	bsf	3,5	;RP0=1, select bank1
  8534  1A3A  1303               	bcf	3,6	;RP1=0, select bank1
  8535  1A3B  0BA0               	decfsz	??i1___fltol^(0+128),f
  8536  1A3C  2A32               	goto	u476_25
  8537  1A3D  3001               	movlw	1
  8538  1A3E  1283               	bcf	3,5	;RP0=0, select bank0
  8539  1A3F  1303               	bcf	3,6	;RP1=0, select bank0
  8540  1A40  02ED               	subwf	i1___fltol@exp1,f
  8541  1A41                     i1l537:
  8542  1A41  086D               	movf	i1___fltol@exp1,w
  8543  1A42  1D03               	btfss	3,2
  8544  1A43  2A45               	goto	u477_21
  8545  1A44  2A46               	goto	u477_20
  8546  1A45                     u477_21:
  8547  1A45  2A2E               	goto	i1l3136
  8548  1A46                     u477_20:
  8549  1A46                     i1l3138:
  8550  1A46  086C               	movf	i1___fltol@sign1,w
  8551  1A47  1903               	btfsc	3,2
  8552  1A48  2A4A               	goto	u478_21
  8553  1A49  2A4B               	goto	u478_20
  8554  1A4A                     u478_21:
  8555  1A4A  2A56               	goto	i1l540
  8556  1A4B                     u478_20:
  8557  1A4B                     i1l3140:
  8558  1A4B  09E8               	comf	i1___fltol@f1,f
  8559  1A4C  09E9               	comf	i1___fltol@f1+1,f
  8560  1A4D  09EA               	comf	i1___fltol@f1+2,f
  8561  1A4E  09EB               	comf	i1___fltol@f1+3,f
  8562  1A4F  0AE8               	incf	i1___fltol@f1,f
  8563  1A50  1903               	skipnz
  8564  1A51  0AE9               	incf	i1___fltol@f1+1,f
  8565  1A52  1903               	skipnz
  8566  1A53  0AEA               	incf	i1___fltol@f1+2,f
  8567  1A54  1903               	skipnz
  8568  1A55  0AEB               	incf	i1___fltol@f1+3,f
  8569  1A56                     i1l540:
  8570  1A56                     i1l530:
  8571  1A56  0008               	return
  8572  1A57                     __end_ofi1___fltol:
  8573                           
  8574                           	psect	text13
  8575  149F                     __ptext13:	
  8576 ;; *************** function i1___flmul *****************
  8577 ;; Defined at:
  8578 ;;		line 8 in file "C:\Program Files\Microchip\xc8\v2.35\pic\sources\c90\common\sprcmul.c"
  8579 ;; Parameters:    Size  Location     Type
  8580 ;;  b               4   26[BANK0 ] long 
  8581 ;;  a               4   30[BANK0 ] long 
  8582 ;; Auto vars:     Size  Location     Type
  8583 ;;  prod            4   46[BANK0 ] struct .
  8584 ;;  grs             4   40[BANK0 ] unsigned long 
  8585 ;;  temp            2   50[BANK0 ] struct .
  8586 ;;  bexp            1   45[BANK0 ] unsigned char 
  8587 ;;  aexp            1   44[BANK0 ] unsigned char 
  8588 ;;  sign            1   39[BANK0 ] unsigned char 
  8589 ;; Return value:  Size  Location     Type
  8590 ;;                  4   26[BANK0 ] unsigned char 
  8591 ;; Registers used:
  8592 ;;		wreg, status,2, status,0, btemp+1, pclath, cstack
  8593 ;; Tracked objects:
  8594 ;;		On entry : 0/0
  8595 ;;		On exit  : 0/0
  8596 ;;		Unchanged: 0/0
  8597 ;; Data sizes:     COMMON   BANK0   BANK1   BANK3   BANK2
  8598 ;;      Params:         0       8       0       0       0
  8599 ;;      Locals:         0      13       0       0       0
  8600 ;;      Temps:          0       5       0       0       0
  8601 ;;      Totals:         0      26       0       0       0
  8602 ;;Total ram usage:       26 bytes
  8603 ;; Hardware stack levels used: 1
  8604 ;; Hardware stack levels required when called: 1
  8605 ;; This function calls:
  8606 ;;		i1__Umul8_16
  8607 ;; This function is called by:
  8608 ;;		i1_map
  8609 ;; This function uses a non-reentrant model
  8610 ;;
  8611                           
  8612  149F                     i1___flmul:	
  8613                           ;psect for function i1___flmul
  8614                           
  8615  149F                     i1l3478:	
  8616                           ;incstack = 0
  8617                           ; Regs used in i1___flmul: [wreg+status,2+status,0+btemp+1+pclath+cstack]
  8618                           
  8619  149F  1283               	bcf	3,5	;RP0=0, select bank0
  8620  14A0  1303               	bcf	3,6	;RP1=0, select bank0
  8621  14A1  083D               	movf	i1___flmul@b+3,w
  8622  14A2  3980               	andlw	128
  8623  14A3  00C2               	movwf	??i1___flmul
  8624  14A4  0842               	movf	??i1___flmul,w
  8625  14A5  00C7               	movwf	i1___flmul@sign
  8626  14A6                     i1l3480:
  8627  14A6  083D               	movf	i1___flmul@b+3,w
  8628  14A7  00C2               	movwf	??i1___flmul
  8629  14A8  0742               	addwf	??i1___flmul,w
  8630  14A9  00C3               	movwf	??i1___flmul+1
  8631  14AA  0843               	movf	??i1___flmul+1,w
  8632  14AB  00CD               	movwf	i1___flmul@bexp
  8633  14AC                     i1l3482:
  8634  14AC  1FBC               	btfss	i1___flmul@b+2,7
  8635  14AD  2CAF               	goto	u554_21
  8636  14AE  2CB0               	goto	u554_20
  8637  14AF                     u554_21:
  8638  14AF  2CB1               	goto	i1l3486
  8639  14B0                     u554_20:
  8640  14B0                     i1l3484:
  8641  14B0  144D               	bsf	i1___flmul@bexp,0
  8642  14B1                     i1l3486:
  8643  14B1  084D               	movf	i1___flmul@bexp,w
  8644  14B2  1903               	btfsc	3,2
  8645  14B3  2CB5               	goto	u555_21
  8646  14B4  2CB6               	goto	u555_20
  8647  14B5                     u555_21:
  8648  14B5  2CC5               	goto	i1l3494
  8649  14B6                     u555_20:
  8650  14B6                     i1l3488:
  8651  14B6  0A4D               	incf	i1___flmul@bexp,w
  8652  14B7  1D03               	btfss	3,2
  8653  14B8  2CBA               	goto	u556_21
  8654  14B9  2CBB               	goto	u556_20
  8655  14BA                     u556_21:
  8656  14BA  2CC3               	goto	i1l3492
  8657  14BB                     u556_20:
  8658  14BB                     i1l3490:
  8659  14BB  3000               	movlw	0
  8660  14BC  00BD               	movwf	i1___flmul@b+3
  8661  14BD  3000               	movlw	0
  8662  14BE  00BC               	movwf	i1___flmul@b+2
  8663  14BF  3000               	movlw	0
  8664  14C0  00BB               	movwf	i1___flmul@b+1
  8665  14C1  3000               	movlw	0
  8666  14C2  00BA               	movwf	i1___flmul@b
  8667  14C3                     i1l3492:
  8668  14C3  17BC               	bsf	i1___flmul@b+2,7
  8669  14C4  2CCD               	goto	i1l3496
  8670  14C5                     i1l3494:
  8671  14C5  3000               	movlw	0
  8672  14C6  00BD               	movwf	i1___flmul@b+3
  8673  14C7  3000               	movlw	0
  8674  14C8  00BC               	movwf	i1___flmul@b+2
  8675  14C9  3000               	movlw	0
  8676  14CA  00BB               	movwf	i1___flmul@b+1
  8677  14CB  3000               	movlw	0
  8678  14CC  00BA               	movwf	i1___flmul@b
  8679  14CD                     i1l3496:
  8680  14CD  0841               	movf	i1___flmul@a+3,w
  8681  14CE  3980               	andlw	128
  8682  14CF  00C2               	movwf	??i1___flmul
  8683  14D0  0842               	movf	??i1___flmul,w
  8684  14D1  06C7               	xorwf	i1___flmul@sign,f
  8685  14D2                     i1l3498:
  8686  14D2  0841               	movf	i1___flmul@a+3,w
  8687  14D3  00C2               	movwf	??i1___flmul
  8688  14D4  0742               	addwf	??i1___flmul,w
  8689  14D5  00C3               	movwf	??i1___flmul+1
  8690  14D6  0843               	movf	??i1___flmul+1,w
  8691  14D7  00CC               	movwf	i1___flmul@aexp
  8692  14D8                     i1l3500:
  8693  14D8  1FC0               	btfss	i1___flmul@a+2,7
  8694  14D9  2CDB               	goto	u557_21
  8695  14DA  2CDC               	goto	u557_20
  8696  14DB                     u557_21:
  8697  14DB  2CDD               	goto	i1l3504
  8698  14DC                     u557_20:
  8699  14DC                     i1l3502:
  8700  14DC  144C               	bsf	i1___flmul@aexp,0
  8701  14DD                     i1l3504:
  8702  14DD  084C               	movf	i1___flmul@aexp,w
  8703  14DE  1903               	btfsc	3,2
  8704  14DF  2CE1               	goto	u558_21
  8705  14E0  2CE2               	goto	u558_20
  8706  14E1                     u558_21:
  8707  14E1  2CF1               	goto	i1l3512
  8708  14E2                     u558_20:
  8709  14E2                     i1l3506:
  8710  14E2  0A4C               	incf	i1___flmul@aexp,w
  8711  14E3  1D03               	btfss	3,2
  8712  14E4  2CE6               	goto	u559_21
  8713  14E5  2CE7               	goto	u559_20
  8714  14E6                     u559_21:
  8715  14E6  2CEF               	goto	i1l3510
  8716  14E7                     u559_20:
  8717  14E7                     i1l3508:
  8718  14E7  3000               	movlw	0
  8719  14E8  00C1               	movwf	i1___flmul@a+3
  8720  14E9  3000               	movlw	0
  8721  14EA  00C0               	movwf	i1___flmul@a+2
  8722  14EB  3000               	movlw	0
  8723  14EC  00BF               	movwf	i1___flmul@a+1
  8724  14ED  3000               	movlw	0
  8725  14EE  00BE               	movwf	i1___flmul@a
  8726  14EF                     i1l3510:
  8727  14EF  17C0               	bsf	i1___flmul@a+2,7
  8728  14F0  2CF9               	goto	i1l3514
  8729  14F1                     i1l3512:
  8730  14F1  3000               	movlw	0
  8731  14F2  00C1               	movwf	i1___flmul@a+3
  8732  14F3  3000               	movlw	0
  8733  14F4  00C0               	movwf	i1___flmul@a+2
  8734  14F5  3000               	movlw	0
  8735  14F6  00BF               	movwf	i1___flmul@a+1
  8736  14F7  3000               	movlw	0
  8737  14F8  00BE               	movwf	i1___flmul@a
  8738  14F9                     i1l3514:
  8739  14F9  084C               	movf	i1___flmul@aexp,w
  8740  14FA  1903               	btfsc	3,2
  8741  14FB  2CFD               	goto	u560_21
  8742  14FC  2CFE               	goto	u560_20
  8743  14FD                     u560_21:
  8744  14FD  2D03               	goto	i1l3518
  8745  14FE                     u560_20:
  8746  14FE                     i1l3516:
  8747  14FE  084D               	movf	i1___flmul@bexp,w
  8748  14FF  1D03               	btfss	3,2
  8749  1500  2D02               	goto	u561_21
  8750  1501  2D03               	goto	u561_20
  8751  1502                     u561_21:
  8752  1502  2D0C               	goto	i1l3522
  8753  1503                     u561_20:
  8754  1503                     i1l3518:
  8755  1503  3000               	movlw	0
  8756  1504  00BD               	movwf	?i1___flmul+3
  8757  1505  3000               	movlw	0
  8758  1506  00BC               	movwf	?i1___flmul+2
  8759  1507  3000               	movlw	0
  8760  1508  00BB               	movwf	?i1___flmul+1
  8761  1509  3000               	movlw	0
  8762  150A  00BA               	movwf	?i1___flmul
  8763  150B  2FFF               	goto	i1l733
  8764  150C                     i1l3522:
  8765  150C  083A               	movf	i1___flmul@b,w
  8766  150D  00C2               	movwf	??i1___flmul
  8767  150E  0842               	movf	??i1___flmul,w
  8768  150F  00F0               	movwf	i1__Umul8_16@multiplicand
  8769  1510  0840               	movf	i1___flmul@a+2,w
  8770  1511  160A  158A  2082  160A  118A  	fcall	i1__Umul8_16
  8771  1516  0871               	movf	?i1__Umul8_16+1,w
  8772  1517  1283               	bcf	3,5	;RP0=0, select bank0
  8773  1518  1303               	bcf	3,6	;RP1=0, select bank0
  8774  1519  00D3               	movwf	i1___flmul@temp+1
  8775  151A  0870               	movf	?i1__Umul8_16,w
  8776  151B  00D2               	movwf	i1___flmul@temp
  8777  151C                     i1l3524:
  8778  151C  0852               	movf	i1___flmul@temp,w
  8779  151D  00C2               	movwf	??i1___flmul
  8780  151E  01C3               	clrf	??i1___flmul+1
  8781  151F  01C4               	clrf	??i1___flmul+2
  8782  1520  01C5               	clrf	??i1___flmul+3
  8783  1521  0845               	movf	??i1___flmul+3,w
  8784  1522  00CB               	movwf	i1___flmul@grs+3
  8785  1523  0844               	movf	??i1___flmul+2,w
  8786  1524  00CA               	movwf	i1___flmul@grs+2
  8787  1525  0843               	movf	??i1___flmul+1,w
  8788  1526  00C9               	movwf	i1___flmul@grs+1
  8789  1527  0842               	movf	??i1___flmul,w
  8790  1528  00C8               	movwf	i1___flmul@grs
  8791  1529                     i1l3526:
  8792  1529  0853               	movf	i1___flmul@temp+1,w
  8793  152A  00C2               	movwf	??i1___flmul
  8794  152B  01C3               	clrf	??i1___flmul+1
  8795  152C  01C4               	clrf	??i1___flmul+2
  8796  152D  01C5               	clrf	??i1___flmul+3
  8797  152E  0845               	movf	??i1___flmul+3,w
  8798  152F  00D1               	movwf	i1___flmul@prod+3
  8799  1530  0844               	movf	??i1___flmul+2,w
  8800  1531  00D0               	movwf	i1___flmul@prod+2
  8801  1532  0843               	movf	??i1___flmul+1,w
  8802  1533  00CF               	movwf	i1___flmul@prod+1
  8803  1534  0842               	movf	??i1___flmul,w
  8804  1535  00CE               	movwf	i1___flmul@prod
  8805  1536  083B               	movf	i1___flmul@b+1,w
  8806  1537  00C2               	movwf	??i1___flmul
  8807  1538  0842               	movf	??i1___flmul,w
  8808  1539  00F0               	movwf	i1__Umul8_16@multiplicand
  8809  153A  083F               	movf	i1___flmul@a+1,w
  8810  153B  160A  158A  2082  160A  118A  	fcall	i1__Umul8_16
  8811  1540  0871               	movf	?i1__Umul8_16+1,w
  8812  1541  1283               	bcf	3,5	;RP0=0, select bank0
  8813  1542  1303               	bcf	3,6	;RP1=0, select bank0
  8814  1543  00D3               	movwf	i1___flmul@temp+1
  8815  1544  0870               	movf	?i1__Umul8_16,w
  8816  1545  00D2               	movwf	i1___flmul@temp
  8817  1546                     i1l3528:
  8818  1546  0852               	movf	i1___flmul@temp,w
  8819  1547  00C2               	movwf	??i1___flmul
  8820  1548  01C3               	clrf	??i1___flmul+1
  8821  1549  01C4               	clrf	??i1___flmul+2
  8822  154A  01C5               	clrf	??i1___flmul+3
  8823  154B  0842               	movf	??i1___flmul,w
  8824  154C  07C8               	addwf	i1___flmul@grs,f
  8825  154D  0843               	movf	??i1___flmul+1,w
  8826  154E  1103               	clrz
  8827  154F  1803               	skipnc
  8828  1550  3E01               	addlw	1
  8829  1551  1903               	skipnz
  8830  1552  2D54               	goto	u562_21
  8831  1553  07C9               	addwf	i1___flmul@grs+1,f
  8832  1554                     u562_21:
  8833  1554  0844               	movf	??i1___flmul+2,w
  8834  1555  1103               	clrz
  8835  1556  1803               	skipnc
  8836  1557  3E01               	addlw	1
  8837  1558  1903               	skipnz
  8838  1559  2D5B               	goto	u562_22
  8839  155A  07CA               	addwf	i1___flmul@grs+2,f
  8840  155B                     u562_22:
  8841  155B  0845               	movf	??i1___flmul+3,w
  8842  155C  1103               	clrz
  8843  155D  1803               	skipnc
  8844  155E  3E01               	addlw	1
  8845  155F  1903               	skipnz
  8846  1560  2D62               	goto	u562_23
  8847  1561  07CB               	addwf	i1___flmul@grs+3,f
  8848  1562                     u562_23:
  8849  1562                     i1l3530:
  8850  1562  0853               	movf	i1___flmul@temp+1,w
  8851  1563  00C2               	movwf	??i1___flmul
  8852  1564  01C3               	clrf	??i1___flmul+1
  8853  1565  01C4               	clrf	??i1___flmul+2
  8854  1566  01C5               	clrf	??i1___flmul+3
  8855  1567  0842               	movf	??i1___flmul,w
  8856  1568  07CE               	addwf	i1___flmul@prod,f
  8857  1569  0843               	movf	??i1___flmul+1,w
  8858  156A  1103               	clrz
  8859  156B  1803               	skipnc
  8860  156C  3E01               	addlw	1
  8861  156D  1903               	skipnz
  8862  156E  2D70               	goto	u563_21
  8863  156F  07CF               	addwf	i1___flmul@prod+1,f
  8864  1570                     u563_21:
  8865  1570  0844               	movf	??i1___flmul+2,w
  8866  1571  1103               	clrz
  8867  1572  1803               	skipnc
  8868  1573  3E01               	addlw	1
  8869  1574  1903               	skipnz
  8870  1575  2D77               	goto	u563_22
  8871  1576  07D0               	addwf	i1___flmul@prod+2,f
  8872  1577                     u563_22:
  8873  1577  0845               	movf	??i1___flmul+3,w
  8874  1578  1103               	clrz
  8875  1579  1803               	skipnc
  8876  157A  3E01               	addlw	1
  8877  157B  1903               	skipnz
  8878  157C  2D7E               	goto	u563_23
  8879  157D  07D1               	addwf	i1___flmul@prod+3,f
  8880  157E                     u563_23:
  8881  157E  083C               	movf	i1___flmul@b+2,w
  8882  157F  00C2               	movwf	??i1___flmul
  8883  1580  0842               	movf	??i1___flmul,w
  8884  1581  00F0               	movwf	i1__Umul8_16@multiplicand
  8885  1582  083E               	movf	i1___flmul@a,w
  8886  1583  160A  158A  2082  160A  118A  	fcall	i1__Umul8_16
  8887  1588  0871               	movf	?i1__Umul8_16+1,w
  8888  1589  1283               	bcf	3,5	;RP0=0, select bank0
  8889  158A  1303               	bcf	3,6	;RP1=0, select bank0
  8890  158B  00D3               	movwf	i1___flmul@temp+1
  8891  158C  0870               	movf	?i1__Umul8_16,w
  8892  158D  00D2               	movwf	i1___flmul@temp
  8893  158E                     i1l3532:
  8894  158E  0852               	movf	i1___flmul@temp,w
  8895  158F  00C2               	movwf	??i1___flmul
  8896  1590  01C3               	clrf	??i1___flmul+1
  8897  1591  01C4               	clrf	??i1___flmul+2
  8898  1592  01C5               	clrf	??i1___flmul+3
  8899  1593  0842               	movf	??i1___flmul,w
  8900  1594  07C8               	addwf	i1___flmul@grs,f
  8901  1595  0843               	movf	??i1___flmul+1,w
  8902  1596  1103               	clrz
  8903  1597  1803               	skipnc
  8904  1598  3E01               	addlw	1
  8905  1599  1903               	skipnz
  8906  159A  2D9C               	goto	u564_21
  8907  159B  07C9               	addwf	i1___flmul@grs+1,f
  8908  159C                     u564_21:
  8909  159C  0844               	movf	??i1___flmul+2,w
  8910  159D  1103               	clrz
  8911  159E  1803               	skipnc
  8912  159F  3E01               	addlw	1
  8913  15A0  1903               	skipnz
  8914  15A1  2DA3               	goto	u564_22
  8915  15A2  07CA               	addwf	i1___flmul@grs+2,f
  8916  15A3                     u564_22:
  8917  15A3  0845               	movf	??i1___flmul+3,w
  8918  15A4  1103               	clrz
  8919  15A5  1803               	skipnc
  8920  15A6  3E01               	addlw	1
  8921  15A7  1903               	skipnz
  8922  15A8  2DAA               	goto	u564_23
  8923  15A9  07CB               	addwf	i1___flmul@grs+3,f
  8924  15AA                     u564_23:
  8925  15AA                     i1l3534:
  8926  15AA  0853               	movf	i1___flmul@temp+1,w
  8927  15AB  00C2               	movwf	??i1___flmul
  8928  15AC  01C3               	clrf	??i1___flmul+1
  8929  15AD  01C4               	clrf	??i1___flmul+2
  8930  15AE  01C5               	clrf	??i1___flmul+3
  8931  15AF  0842               	movf	??i1___flmul,w
  8932  15B0  07CE               	addwf	i1___flmul@prod,f
  8933  15B1  0843               	movf	??i1___flmul+1,w
  8934  15B2  1103               	clrz
  8935  15B3  1803               	skipnc
  8936  15B4  3E01               	addlw	1
  8937  15B5  1903               	skipnz
  8938  15B6  2DB8               	goto	u565_21
  8939  15B7  07CF               	addwf	i1___flmul@prod+1,f
  8940  15B8                     u565_21:
  8941  15B8  0844               	movf	??i1___flmul+2,w
  8942  15B9  1103               	clrz
  8943  15BA  1803               	skipnc
  8944  15BB  3E01               	addlw	1
  8945  15BC  1903               	skipnz
  8946  15BD  2DBF               	goto	u565_22
  8947  15BE  07D0               	addwf	i1___flmul@prod+2,f
  8948  15BF                     u565_22:
  8949  15BF  0845               	movf	??i1___flmul+3,w
  8950  15C0  1103               	clrz
  8951  15C1  1803               	skipnc
  8952  15C2  3E01               	addlw	1
  8953  15C3  1903               	skipnz
  8954  15C4  2DC6               	goto	u565_23
  8955  15C5  07D1               	addwf	i1___flmul@prod+3,f
  8956  15C6                     u565_23:
  8957  15C6                     i1l3536:
  8958  15C6  3008               	movlw	8
  8959  15C7  00C2               	movwf	??i1___flmul
  8960  15C8                     u566_25:
  8961  15C8  1003               	clrc
  8962  15C9  0DC8               	rlf	i1___flmul@grs,f
  8963  15CA  0DC9               	rlf	i1___flmul@grs+1,f
  8964  15CB  0DCA               	rlf	i1___flmul@grs+2,f
  8965  15CC  0DCB               	rlf	i1___flmul@grs+3,f
  8966  15CD  0BC2               	decfsz	??i1___flmul,f
  8967  15CE  2DC8               	goto	u566_25
  8968  15CF                     i1l3538:
  8969  15CF  083B               	movf	i1___flmul@b+1,w
  8970  15D0  00C2               	movwf	??i1___flmul
  8971  15D1  0842               	movf	??i1___flmul,w
  8972  15D2  00F0               	movwf	i1__Umul8_16@multiplicand
  8973  15D3  083E               	movf	i1___flmul@a,w
  8974  15D4  160A  158A  2082  160A  118A  	fcall	i1__Umul8_16
  8975  15D9  0871               	movf	?i1__Umul8_16+1,w
  8976  15DA  1283               	bcf	3,5	;RP0=0, select bank0
  8977  15DB  1303               	bcf	3,6	;RP1=0, select bank0
  8978  15DC  00D3               	movwf	i1___flmul@temp+1
  8979  15DD  0870               	movf	?i1__Umul8_16,w
  8980  15DE  00D2               	movwf	i1___flmul@temp
  8981  15DF                     i1l3540:
  8982  15DF  0852               	movf	i1___flmul@temp,w
  8983  15E0  00C2               	movwf	??i1___flmul
  8984  15E1  0853               	movf	i1___flmul@temp+1,w
  8985  15E2  00C3               	movwf	??i1___flmul+1
  8986  15E3  01C4               	clrf	??i1___flmul+2
  8987  15E4  01C5               	clrf	??i1___flmul+3
  8988  15E5  0842               	movf	??i1___flmul,w
  8989  15E6  07C8               	addwf	i1___flmul@grs,f
  8990  15E7  0843               	movf	??i1___flmul+1,w
  8991  15E8  1103               	clrz
  8992  15E9  1803               	skipnc
  8993  15EA  3E01               	addlw	1
  8994  15EB  1903               	skipnz
  8995  15EC  2DEE               	goto	u567_21
  8996  15ED  07C9               	addwf	i1___flmul@grs+1,f
  8997  15EE                     u567_21:
  8998  15EE  0844               	movf	??i1___flmul+2,w
  8999  15EF  1103               	clrz
  9000  15F0  1803               	skipnc
  9001  15F1  3E01               	addlw	1
  9002  15F2  1903               	skipnz
  9003  15F3  2DF5               	goto	u567_22
  9004  15F4  07CA               	addwf	i1___flmul@grs+2,f
  9005  15F5                     u567_22:
  9006  15F5  0845               	movf	??i1___flmul+3,w
  9007  15F6  1103               	clrz
  9008  15F7  1803               	skipnc
  9009  15F8  3E01               	addlw	1
  9010  15F9  1903               	skipnz
  9011  15FA  2DFC               	goto	u567_23
  9012  15FB  07CB               	addwf	i1___flmul@grs+3,f
  9013  15FC                     u567_23:
  9014  15FC                     i1l3542:
  9015  15FC  083A               	movf	i1___flmul@b,w
  9016  15FD  00C2               	movwf	??i1___flmul
  9017  15FE  0842               	movf	??i1___flmul,w
  9018  15FF  00F0               	movwf	i1__Umul8_16@multiplicand
  9019  1600  083F               	movf	i1___flmul@a+1,w
  9020  1601  160A  158A  2082  160A  118A  	fcall	i1__Umul8_16
  9021  1606  0871               	movf	?i1__Umul8_16+1,w
  9022  1607  1283               	bcf	3,5	;RP0=0, select bank0
  9023  1608  1303               	bcf	3,6	;RP1=0, select bank0
  9024  1609  00D3               	movwf	i1___flmul@temp+1
  9025  160A  0870               	movf	?i1__Umul8_16,w
  9026  160B  00D2               	movwf	i1___flmul@temp
  9027  160C                     i1l3544:
  9028  160C  0852               	movf	i1___flmul@temp,w
  9029  160D  00C2               	movwf	??i1___flmul
  9030  160E  0853               	movf	i1___flmul@temp+1,w
  9031  160F  00C3               	movwf	??i1___flmul+1
  9032  1610  01C4               	clrf	??i1___flmul+2
  9033  1611  01C5               	clrf	??i1___flmul+3
  9034  1612  0842               	movf	??i1___flmul,w
  9035  1613  07C8               	addwf	i1___flmul@grs,f
  9036  1614  0843               	movf	??i1___flmul+1,w
  9037  1615  1103               	clrz
  9038  1616  1803               	skipnc
  9039  1617  3E01               	addlw	1
  9040  1618  1903               	skipnz
  9041  1619  2E1B               	goto	u568_21
  9042  161A  07C9               	addwf	i1___flmul@grs+1,f
  9043  161B                     u568_21:
  9044  161B  0844               	movf	??i1___flmul+2,w
  9045  161C  1103               	clrz
  9046  161D  1803               	skipnc
  9047  161E  3E01               	addlw	1
  9048  161F  1903               	skipnz
  9049  1620  2E22               	goto	u568_22
  9050  1621  07CA               	addwf	i1___flmul@grs+2,f
  9051  1622                     u568_22:
  9052  1622  0845               	movf	??i1___flmul+3,w
  9053  1623  1103               	clrz
  9054  1624  1803               	skipnc
  9055  1625  3E01               	addlw	1
  9056  1626  1903               	skipnz
  9057  1627  2E29               	goto	u568_23
  9058  1628  07CB               	addwf	i1___flmul@grs+3,f
  9059  1629                     u568_23:
  9060  1629                     i1l3546:
  9061  1629  3008               	movlw	8
  9062  162A  00C2               	movwf	??i1___flmul
  9063  162B                     u569_25:
  9064  162B  1003               	clrc
  9065  162C  0DC8               	rlf	i1___flmul@grs,f
  9066  162D  0DC9               	rlf	i1___flmul@grs+1,f
  9067  162E  0DCA               	rlf	i1___flmul@grs+2,f
  9068  162F  0DCB               	rlf	i1___flmul@grs+3,f
  9069  1630  0BC2               	decfsz	??i1___flmul,f
  9070  1631  2E2B               	goto	u569_25
  9071  1632  083A               	movf	i1___flmul@b,w
  9072  1633  00C2               	movwf	??i1___flmul
  9073  1634  0842               	movf	??i1___flmul,w
  9074  1635  00F0               	movwf	i1__Umul8_16@multiplicand
  9075  1636  083E               	movf	i1___flmul@a,w
  9076  1637  160A  158A  2082  160A  118A  	fcall	i1__Umul8_16
  9077  163C  0871               	movf	?i1__Umul8_16+1,w
  9078  163D  1283               	bcf	3,5	;RP0=0, select bank0
  9079  163E  1303               	bcf	3,6	;RP1=0, select bank0
  9080  163F  00D3               	movwf	i1___flmul@temp+1
  9081  1640  0870               	movf	?i1__Umul8_16,w
  9082  1641  00D2               	movwf	i1___flmul@temp
  9083  1642                     i1l3548:
  9084  1642  0852               	movf	i1___flmul@temp,w
  9085  1643  00C2               	movwf	??i1___flmul
  9086  1644  0853               	movf	i1___flmul@temp+1,w
  9087  1645  00C3               	movwf	??i1___flmul+1
  9088  1646  01C4               	clrf	??i1___flmul+2
  9089  1647  01C5               	clrf	??i1___flmul+3
  9090  1648  0842               	movf	??i1___flmul,w
  9091  1649  07C8               	addwf	i1___flmul@grs,f
  9092  164A  0843               	movf	??i1___flmul+1,w
  9093  164B  1103               	clrz
  9094  164C  1803               	skipnc
  9095  164D  3E01               	addlw	1
  9096  164E  1903               	skipnz
  9097  164F  2E51               	goto	u570_21
  9098  1650  07C9               	addwf	i1___flmul@grs+1,f
  9099  1651                     u570_21:
  9100  1651  0844               	movf	??i1___flmul+2,w
  9101  1652  1103               	clrz
  9102  1653  1803               	skipnc
  9103  1654  3E01               	addlw	1
  9104  1655  1903               	skipnz
  9105  1656  2E58               	goto	u570_22
  9106  1657  07CA               	addwf	i1___flmul@grs+2,f
  9107  1658                     u570_22:
  9108  1658  0845               	movf	??i1___flmul+3,w
  9109  1659  1103               	clrz
  9110  165A  1803               	skipnc
  9111  165B  3E01               	addlw	1
  9112  165C  1903               	skipnz
  9113  165D  2E5F               	goto	u570_23
  9114  165E  07CB               	addwf	i1___flmul@grs+3,f
  9115  165F                     u570_23:
  9116  165F                     i1l3550:
  9117  165F  083B               	movf	i1___flmul@b+1,w
  9118  1660  00C2               	movwf	??i1___flmul
  9119  1661  0842               	movf	??i1___flmul,w
  9120  1662  00F0               	movwf	i1__Umul8_16@multiplicand
  9121  1663  0840               	movf	i1___flmul@a+2,w
  9122  1664  160A  158A  2082  160A  118A  	fcall	i1__Umul8_16
  9123  1669  0871               	movf	?i1__Umul8_16+1,w
  9124  166A  1283               	bcf	3,5	;RP0=0, select bank0
  9125  166B  1303               	bcf	3,6	;RP1=0, select bank0
  9126  166C  00D3               	movwf	i1___flmul@temp+1
  9127  166D  0870               	movf	?i1__Umul8_16,w
  9128  166E  00D2               	movwf	i1___flmul@temp
  9129  166F  0852               	movf	i1___flmul@temp,w
  9130  1670  00C2               	movwf	??i1___flmul
  9131  1671  0853               	movf	i1___flmul@temp+1,w
  9132  1672  00C3               	movwf	??i1___flmul+1
  9133  1673  01C4               	clrf	??i1___flmul+2
  9134  1674  01C5               	clrf	??i1___flmul+3
  9135  1675  0842               	movf	??i1___flmul,w
  9136  1676  07CE               	addwf	i1___flmul@prod,f
  9137  1677  0843               	movf	??i1___flmul+1,w
  9138  1678  1103               	clrz
  9139  1679  1803               	skipnc
  9140  167A  3E01               	addlw	1
  9141  167B  1903               	skipnz
  9142  167C  2E7E               	goto	u571_21
  9143  167D  07CF               	addwf	i1___flmul@prod+1,f
  9144  167E                     u571_21:
  9145  167E  0844               	movf	??i1___flmul+2,w
  9146  167F  1103               	clrz
  9147  1680  1803               	skipnc
  9148  1681  3E01               	addlw	1
  9149  1682  1903               	skipnz
  9150  1683  2E85               	goto	u571_22
  9151  1684  07D0               	addwf	i1___flmul@prod+2,f
  9152  1685                     u571_22:
  9153  1685  0845               	movf	??i1___flmul+3,w
  9154  1686  1103               	clrz
  9155  1687  1803               	skipnc
  9156  1688  3E01               	addlw	1
  9157  1689  1903               	skipnz
  9158  168A  2E8C               	goto	u571_23
  9159  168B  07D1               	addwf	i1___flmul@prod+3,f
  9160  168C                     u571_23:
  9161  168C                     i1l3552:
  9162  168C  083C               	movf	i1___flmul@b+2,w
  9163  168D  00C2               	movwf	??i1___flmul
  9164  168E  0842               	movf	??i1___flmul,w
  9165  168F  00F0               	movwf	i1__Umul8_16@multiplicand
  9166  1690  083F               	movf	i1___flmul@a+1,w
  9167  1691  160A  158A  2082  160A  118A  	fcall	i1__Umul8_16
  9168  1696  0871               	movf	?i1__Umul8_16+1,w
  9169  1697  1283               	bcf	3,5	;RP0=0, select bank0
  9170  1698  1303               	bcf	3,6	;RP1=0, select bank0
  9171  1699  00D3               	movwf	i1___flmul@temp+1
  9172  169A  0870               	movf	?i1__Umul8_16,w
  9173  169B  00D2               	movwf	i1___flmul@temp
  9174  169C                     i1l3554:
  9175  169C  0852               	movf	i1___flmul@temp,w
  9176  169D  00C2               	movwf	??i1___flmul
  9177  169E  0853               	movf	i1___flmul@temp+1,w
  9178  169F  00C3               	movwf	??i1___flmul+1
  9179  16A0  01C4               	clrf	??i1___flmul+2
  9180  16A1  01C5               	clrf	??i1___flmul+3
  9181  16A2  0842               	movf	??i1___flmul,w
  9182  16A3  07CE               	addwf	i1___flmul@prod,f
  9183  16A4  0843               	movf	??i1___flmul+1,w
  9184  16A5  1103               	clrz
  9185  16A6  1803               	skipnc
  9186  16A7  3E01               	addlw	1
  9187  16A8  1903               	skipnz
  9188  16A9  2EAB               	goto	u572_21
  9189  16AA  07CF               	addwf	i1___flmul@prod+1,f
  9190  16AB                     u572_21:
  9191  16AB  0844               	movf	??i1___flmul+2,w
  9192  16AC  1103               	clrz
  9193  16AD  1803               	skipnc
  9194  16AE  3E01               	addlw	1
  9195  16AF  1903               	skipnz
  9196  16B0  2EB2               	goto	u572_22
  9197  16B1  07D0               	addwf	i1___flmul@prod+2,f
  9198  16B2                     u572_22:
  9199  16B2  0845               	movf	??i1___flmul+3,w
  9200  16B3  1103               	clrz
  9201  16B4  1803               	skipnc
  9202  16B5  3E01               	addlw	1
  9203  16B6  1903               	skipnz
  9204  16B7  2EB9               	goto	u572_23
  9205  16B8  07D1               	addwf	i1___flmul@prod+3,f
  9206  16B9                     u572_23:
  9207  16B9  083C               	movf	i1___flmul@b+2,w
  9208  16BA  00C2               	movwf	??i1___flmul
  9209  16BB  0842               	movf	??i1___flmul,w
  9210  16BC  00F0               	movwf	i1__Umul8_16@multiplicand
  9211  16BD  0840               	movf	i1___flmul@a+2,w
  9212  16BE  160A  158A  2082  160A  118A  	fcall	i1__Umul8_16
  9213  16C3  0871               	movf	?i1__Umul8_16+1,w
  9214  16C4  1283               	bcf	3,5	;RP0=0, select bank0
  9215  16C5  1303               	bcf	3,6	;RP1=0, select bank0
  9216  16C6  00D3               	movwf	i1___flmul@temp+1
  9217  16C7  0870               	movf	?i1__Umul8_16,w
  9218  16C8  00D2               	movwf	i1___flmul@temp
  9219  16C9                     i1l3556:
  9220  16C9  0852               	movf	i1___flmul@temp,w
  9221  16CA  00C2               	movwf	??i1___flmul
  9222  16CB  0853               	movf	i1___flmul@temp+1,w
  9223  16CC  00C3               	movwf	??i1___flmul+1
  9224  16CD  01C4               	clrf	??i1___flmul+2
  9225  16CE  01C5               	clrf	??i1___flmul+3
  9226  16CF  3008               	movlw	8
  9227  16D0                     u573_25:
  9228  16D0  1003               	clrc
  9229  16D1  0DC2               	rlf	??i1___flmul,f
  9230  16D2  0DC3               	rlf	??i1___flmul+1,f
  9231  16D3  0DC4               	rlf	??i1___flmul+2,f
  9232  16D4  0DC5               	rlf	??i1___flmul+3,f
  9233  16D5                     u573_20:
  9234  16D5  3EFF               	addlw	-1
  9235  16D6  1D03               	skipz
  9236  16D7  2ED0               	goto	u573_25
  9237  16D8  0842               	movf	??i1___flmul,w
  9238  16D9  07CE               	addwf	i1___flmul@prod,f
  9239  16DA  0843               	movf	??i1___flmul+1,w
  9240  16DB  1103               	clrz
  9241  16DC  1803               	skipnc
  9242  16DD  3E01               	addlw	1
  9243  16DE  1903               	skipnz
  9244  16DF  2EE1               	goto	u574_21
  9245  16E0  07CF               	addwf	i1___flmul@prod+1,f
  9246  16E1                     u574_21:
  9247  16E1  0844               	movf	??i1___flmul+2,w
  9248  16E2  1103               	clrz
  9249  16E3  1803               	skipnc
  9250  16E4  3E01               	addlw	1
  9251  16E5  1903               	skipnz
  9252  16E6  2EE8               	goto	u574_22
  9253  16E7  07D0               	addwf	i1___flmul@prod+2,f
  9254  16E8                     u574_22:
  9255  16E8  0845               	movf	??i1___flmul+3,w
  9256  16E9  1103               	clrz
  9257  16EA  1803               	skipnc
  9258  16EB  3E01               	addlw	1
  9259  16EC  1903               	skipnz
  9260  16ED  2EEF               	goto	u574_23
  9261  16EE  07D1               	addwf	i1___flmul@prod+3,f
  9262  16EF                     u574_23:
  9263  16EF                     i1l3558:
  9264  16EF  0848               	movf	i1___flmul@grs,w
  9265  16F0  00C2               	movwf	??i1___flmul
  9266  16F1  0849               	movf	i1___flmul@grs+1,w
  9267  16F2  00C3               	movwf	??i1___flmul+1
  9268  16F3  084A               	movf	i1___flmul@grs+2,w
  9269  16F4  00C4               	movwf	??i1___flmul+2
  9270  16F5  084B               	movf	i1___flmul@grs+3,w
  9271  16F6  00C5               	movwf	??i1___flmul+3
  9272  16F7  3018               	movlw	24
  9273  16F8                     u575_25:
  9274  16F8  1003               	clrc
  9275  16F9  0CC5               	rrf	??i1___flmul+3,f
  9276  16FA  0CC4               	rrf	??i1___flmul+2,f
  9277  16FB  0CC3               	rrf	??i1___flmul+1,f
  9278  16FC  0CC2               	rrf	??i1___flmul,f
  9279  16FD                     u575_20:
  9280  16FD  3EFF               	addlw	-1
  9281  16FE  1D03               	skipz
  9282  16FF  2EF8               	goto	u575_25
  9283  1700  0842               	movf	??i1___flmul,w
  9284  1701  07CE               	addwf	i1___flmul@prod,f
  9285  1702  0843               	movf	??i1___flmul+1,w
  9286  1703  1103               	clrz
  9287  1704  1803               	skipnc
  9288  1705  3E01               	addlw	1
  9289  1706  1903               	skipnz
  9290  1707  2F09               	goto	u576_21
  9291  1708  07CF               	addwf	i1___flmul@prod+1,f
  9292  1709                     u576_21:
  9293  1709  0844               	movf	??i1___flmul+2,w
  9294  170A  1103               	clrz
  9295  170B  1803               	skipnc
  9296  170C  3E01               	addlw	1
  9297  170D  1903               	skipnz
  9298  170E  2F10               	goto	u576_22
  9299  170F  07D0               	addwf	i1___flmul@prod+2,f
  9300  1710                     u576_22:
  9301  1710  0845               	movf	??i1___flmul+3,w
  9302  1711  1103               	clrz
  9303  1712  1803               	skipnc
  9304  1713  3E01               	addlw	1
  9305  1714  1903               	skipnz
  9306  1715  2F17               	goto	u576_23
  9307  1716  07D1               	addwf	i1___flmul@prod+3,f
  9308  1717                     u576_23:
  9309  1717                     i1l3560:
  9310  1717  3008               	movlw	8
  9311  1718  00C2               	movwf	??i1___flmul
  9312  1719                     u577_25:
  9313  1719  1003               	clrc
  9314  171A  0DC8               	rlf	i1___flmul@grs,f
  9315  171B  0DC9               	rlf	i1___flmul@grs+1,f
  9316  171C  0DCA               	rlf	i1___flmul@grs+2,f
  9317  171D  0DCB               	rlf	i1___flmul@grs+3,f
  9318  171E  0BC2               	decfsz	??i1___flmul,f
  9319  171F  2F19               	goto	u577_25
  9320  1720                     i1l3562:
  9321  1720  084D               	movf	i1___flmul@bexp,w
  9322  1721  074C               	addwf	i1___flmul@aexp,w
  9323  1722  00C2               	movwf	??i1___flmul
  9324  1723  01C3               	clrf	??i1___flmul+1
  9325  1724  0DC3               	rlf	??i1___flmul+1,f
  9326  1725  0842               	movf	??i1___flmul,w
  9327  1726  3E82               	addlw	130
  9328  1727  00D2               	movwf	i1___flmul@temp
  9329  1728  0843               	movf	??i1___flmul+1,w
  9330  1729  1803               	skipnc
  9331  172A  3E01               	addlw	1
  9332  172B  3EFF               	addlw	255
  9333  172C  00D3               	movwf	i1___flmul@temp+1
  9334  172D  2F4B               	goto	i1l3574
  9335  172E                     i1l3564:
  9336  172E  3001               	movlw	1
  9337  172F  00C2               	movwf	??i1___flmul
  9338  1730                     u578_25:
  9339  1730  1003               	clrc
  9340  1731  0DCE               	rlf	i1___flmul@prod,f
  9341  1732  0DCF               	rlf	i1___flmul@prod+1,f
  9342  1733  0DD0               	rlf	i1___flmul@prod+2,f
  9343  1734  0DD1               	rlf	i1___flmul@prod+3,f
  9344  1735  0BC2               	decfsz	??i1___flmul,f
  9345  1736  2F30               	goto	u578_25
  9346  1737                     i1l3566:
  9347  1737  1FCB               	btfss	i1___flmul@grs+3,7
  9348  1738  2F3A               	goto	u579_21
  9349  1739  2F3B               	goto	u579_20
  9350  173A                     u579_21:
  9351  173A  2F3C               	goto	i1l3570
  9352  173B                     u579_20:
  9353  173B                     i1l3568:
  9354  173B  144E               	bsf	i1___flmul@prod,0
  9355  173C                     i1l3570:
  9356  173C  3001               	movlw	1
  9357  173D  00C2               	movwf	??i1___flmul
  9358  173E                     u580_25:
  9359  173E  1003               	clrc
  9360  173F  0DC8               	rlf	i1___flmul@grs,f
  9361  1740  0DC9               	rlf	i1___flmul@grs+1,f
  9362  1741  0DCA               	rlf	i1___flmul@grs+2,f
  9363  1742  0DCB               	rlf	i1___flmul@grs+3,f
  9364  1743  0BC2               	decfsz	??i1___flmul,f
  9365  1744  2F3E               	goto	u580_25
  9366  1745                     i1l3572:
  9367  1745  30FF               	movlw	255
  9368  1746  07D2               	addwf	i1___flmul@temp,f
  9369  1747  1803               	skipnc
  9370  1748  0AD3               	incf	i1___flmul@temp+1,f
  9371  1749  30FF               	movlw	255
  9372  174A  07D3               	addwf	i1___flmul@temp+1,f
  9373  174B                     i1l3574:
  9374  174B  1FD0               	btfss	i1___flmul@prod+2,7
  9375  174C  2F4E               	goto	u581_21
  9376  174D  2F4F               	goto	u581_20
  9377  174E                     u581_21:
  9378  174E  2F2E               	goto	i1l3564
  9379  174F                     u581_20:
  9380  174F                     i1l3576:
  9381  174F  01CC               	clrf	i1___flmul@aexp
  9382  1750                     i1l3578:
  9383  1750  1FCB               	btfss	i1___flmul@grs+3,7
  9384  1751  2F53               	goto	u582_21
  9385  1752  2F54               	goto	u582_20
  9386  1753                     u582_21:
  9387  1753  2F70               	goto	i1l3586
  9388  1754                     u582_20:
  9389  1754                     i1l3580:
  9390  1754  30FF               	movlw	255
  9391  1755  0548               	andwf	i1___flmul@grs,w
  9392  1756  00C2               	movwf	??i1___flmul
  9393  1757  30FF               	movlw	255
  9394  1758  0549               	andwf	i1___flmul@grs+1,w
  9395  1759  00C3               	movwf	??i1___flmul+1
  9396  175A  30FF               	movlw	255
  9397  175B  054A               	andwf	i1___flmul@grs+2,w
  9398  175C  00C4               	movwf	??i1___flmul+2
  9399  175D  307F               	movlw	127
  9400  175E  054B               	andwf	i1___flmul@grs+3,w
  9401  175F  00C5               	movwf	??i1___flmul+3
  9402  1760  0845               	movf	??i1___flmul+3,w
  9403  1761  0444               	iorwf	??i1___flmul+2,w
  9404  1762  0443               	iorwf	??i1___flmul+1,w
  9405  1763  0442               	iorwf	??i1___flmul,w
  9406  1764  1903               	skipnz
  9407  1765  2F67               	goto	u583_21
  9408  1766  2F68               	goto	u583_20
  9409  1767                     u583_21:
  9410  1767  2F6B               	goto	i1l739
  9411  1768                     u583_20:
  9412  1768                     i1l3582:
  9413  1768  01CC               	clrf	i1___flmul@aexp
  9414  1769  0ACC               	incf	i1___flmul@aexp,f
  9415  176A  2F70               	goto	i1l3586
  9416  176B                     i1l739:
  9417  176B  1C4E               	btfss	i1___flmul@prod,0
  9418  176C  2F6E               	goto	u584_21
  9419  176D  2F6F               	goto	u584_20
  9420  176E                     u584_21:
  9421  176E  2F70               	goto	i1l3586
  9422  176F                     u584_20:
  9423  176F  2F68               	goto	i1l3582
  9424  1770                     i1l3586:
  9425  1770  084C               	movf	i1___flmul@aexp,w
  9426  1771  1903               	btfsc	3,2
  9427  1772  2F74               	goto	u585_21
  9428  1773  2F75               	goto	u585_20
  9429  1774                     u585_21:
  9430  1774  2FA6               	goto	i1l3596
  9431  1775                     u585_20:
  9432  1775                     i1l3588:
  9433  1775  3001               	movlw	1
  9434  1776  07CE               	addwf	i1___flmul@prod,f
  9435  1777  3000               	movlw	0
  9436  1778  1803               	skipnc
  9437  1779  3001               	movlw	1
  9438  177A  07CF               	addwf	i1___flmul@prod+1,f
  9439  177B  3000               	movlw	0
  9440  177C  1803               	skipnc
  9441  177D  3001               	movlw	1
  9442  177E  07D0               	addwf	i1___flmul@prod+2,f
  9443  177F  3000               	movlw	0
  9444  1780  1803               	skipnc
  9445  1781  3001               	movlw	1
  9446  1782  07D1               	addwf	i1___flmul@prod+3,f
  9447  1783                     i1l3590:
  9448  1783  1C51               	btfss	i1___flmul@prod+3,0
  9449  1784  2F86               	goto	u586_21
  9450  1785  2F87               	goto	u586_20
  9451  1786                     u586_21:
  9452  1786  2FA6               	goto	i1l3596
  9453  1787                     u586_20:
  9454  1787                     i1l3592:
  9455  1787  084E               	movf	i1___flmul@prod,w
  9456  1788  00C2               	movwf	??i1___flmul
  9457  1789  084F               	movf	i1___flmul@prod+1,w
  9458  178A  00C3               	movwf	??i1___flmul+1
  9459  178B  0850               	movf	i1___flmul@prod+2,w
  9460  178C  00C4               	movwf	??i1___flmul+2
  9461  178D  0851               	movf	i1___flmul@prod+3,w
  9462  178E  00C5               	movwf	??i1___flmul+3
  9463  178F  3001               	movlw	1
  9464  1790  00C6               	movwf	??i1___flmul+4
  9465  1791                     u587_25:
  9466  1791  0D45               	rlf	??i1___flmul+3,w
  9467  1792  0CC5               	rrf	??i1___flmul+3,f
  9468  1793  0CC4               	rrf	??i1___flmul+2,f
  9469  1794  0CC3               	rrf	??i1___flmul+1,f
  9470  1795  0CC2               	rrf	??i1___flmul,f
  9471  1796                     u587_20:
  9472  1796  0BC6               	decfsz	??i1___flmul+4,f
  9473  1797  2F91               	goto	u587_25
  9474  1798  0845               	movf	??i1___flmul+3,w
  9475  1799  00D1               	movwf	i1___flmul@prod+3
  9476  179A  0844               	movf	??i1___flmul+2,w
  9477  179B  00D0               	movwf	i1___flmul@prod+2
  9478  179C  0843               	movf	??i1___flmul+1,w
  9479  179D  00CF               	movwf	i1___flmul@prod+1
  9480  179E  0842               	movf	??i1___flmul,w
  9481  179F  00CE               	movwf	i1___flmul@prod
  9482  17A0                     i1l3594:
  9483  17A0  3001               	movlw	1
  9484  17A1  07D2               	addwf	i1___flmul@temp,f
  9485  17A2  1803               	skipnc
  9486  17A3  0AD3               	incf	i1___flmul@temp+1,f
  9487  17A4  3000               	movlw	0
  9488  17A5  07D3               	addwf	i1___flmul@temp+1,f
  9489  17A6                     i1l3596:
  9490  17A6  0853               	movf	i1___flmul@temp+1,w
  9491  17A7  3A80               	xorlw	128
  9492  17A8  00FF               	movwf	btemp+1
  9493  17A9  3080               	movlw	128
  9494  17AA  027F               	subwf	btemp+1,w
  9495  17AB  1D03               	skipz
  9496  17AC  2FAF               	goto	u588_25
  9497  17AD  30FF               	movlw	255
  9498  17AE  0252               	subwf	i1___flmul@temp,w
  9499  17AF                     u588_25:
  9500  17AF  1C03               	skipc
  9501  17B0  2FB2               	goto	u588_21
  9502  17B1  2FB3               	goto	u588_20
  9503  17B2                     u588_21:
  9504  17B2  2FBE               	goto	i1l3600
  9505  17B3                     u588_20:
  9506  17B3                     i1l3598:
  9507  17B3  307F               	movlw	127
  9508  17B4  1283               	bcf	3,5	;RP0=0, select bank0
  9509  17B5  1303               	bcf	3,6	;RP1=0, select bank0
  9510  17B6  00D1               	movwf	i1___flmul@prod+3
  9511  17B7  3080               	movlw	128
  9512  17B8  00D0               	movwf	i1___flmul@prod+2
  9513  17B9  3000               	movlw	0
  9514  17BA  00CF               	movwf	i1___flmul@prod+1
  9515  17BB  3000               	movlw	0
  9516  17BC  00CE               	movwf	i1___flmul@prod
  9517  17BD  2FF3               	goto	i1l745
  9518  17BE                     i1l3600:
  9519  17BE  1283               	bcf	3,5	;RP0=0, select bank0
  9520  17BF  1303               	bcf	3,6	;RP1=0, select bank0
  9521  17C0  0853               	movf	i1___flmul@temp+1,w
  9522  17C1  3A80               	xorlw	128
  9523  17C2  00FF               	movwf	btemp+1
  9524  17C3  3080               	movlw	128
  9525  17C4  027F               	subwf	btemp+1,w
  9526  17C5  1D03               	skipz
  9527  17C6  2FC9               	goto	u589_25
  9528  17C7  3001               	movlw	1
  9529  17C8  0252               	subwf	i1___flmul@temp,w
  9530  17C9                     u589_25:
  9531  17C9  1803               	skipnc
  9532  17CA  2FCC               	goto	u589_21
  9533  17CB  2FCD               	goto	u589_20
  9534  17CC                     u589_21:
  9535  17CC  2FD9               	goto	i1l3606
  9536  17CD                     u589_20:
  9537  17CD                     i1l3602:
  9538  17CD  3000               	movlw	0
  9539  17CE  1283               	bcf	3,5	;RP0=0, select bank0
  9540  17CF  1303               	bcf	3,6	;RP1=0, select bank0
  9541  17D0  00D1               	movwf	i1___flmul@prod+3
  9542  17D1  3000               	movlw	0
  9543  17D2  00D0               	movwf	i1___flmul@prod+2
  9544  17D3  3000               	movlw	0
  9545  17D4  00CF               	movwf	i1___flmul@prod+1
  9546  17D5  3000               	movlw	0
  9547  17D6  00CE               	movwf	i1___flmul@prod
  9548  17D7                     i1l3604:
  9549  17D7  01C7               	clrf	i1___flmul@sign
  9550  17D8  2FF3               	goto	i1l745
  9551  17D9                     i1l3606:
  9552  17D9  1283               	bcf	3,5	;RP0=0, select bank0
  9553  17DA  1303               	bcf	3,6	;RP1=0, select bank0
  9554  17DB  0852               	movf	i1___flmul@temp,w
  9555  17DC  00C2               	movwf	??i1___flmul
  9556  17DD  0842               	movf	??i1___flmul,w
  9557  17DE  00CD               	movwf	i1___flmul@bexp
  9558  17DF  30FF               	movlw	255
  9559  17E0  05CE               	andwf	i1___flmul@prod,f
  9560  17E1  30FF               	movlw	255
  9561  17E2  05CF               	andwf	i1___flmul@prod+1,f
  9562  17E3  307F               	movlw	127
  9563  17E4  05D0               	andwf	i1___flmul@prod+2,f
  9564  17E5  3000               	movlw	0
  9565  17E6  05D1               	andwf	i1___flmul@prod+3,f
  9566  17E7                     i1l3608:
  9567  17E7  1C4D               	btfss	i1___flmul@bexp,0
  9568  17E8  2FEA               	goto	u590_21
  9569  17E9  2FEB               	goto	u590_20
  9570  17EA                     u590_21:
  9571  17EA  2FEC               	goto	i1l3612
  9572  17EB                     u590_20:
  9573  17EB                     i1l3610:
  9574  17EB  17D0               	bsf	i1___flmul@prod+2,7
  9575  17EC                     i1l3612:
  9576  17EC  084D               	movf	i1___flmul@bexp,w
  9577  17ED  00C2               	movwf	??i1___flmul
  9578  17EE  1003               	clrc
  9579  17EF  0C42               	rrf	??i1___flmul,w
  9580  17F0  00C3               	movwf	??i1___flmul+1
  9581  17F1  0843               	movf	??i1___flmul+1,w
  9582  17F2  00D1               	movwf	i1___flmul@prod+3
  9583  17F3                     i1l745:
  9584  17F3  0847               	movf	i1___flmul@sign,w
  9585  17F4  00C2               	movwf	??i1___flmul
  9586  17F5  0842               	movf	??i1___flmul,w
  9587  17F6  04D1               	iorwf	i1___flmul@prod+3,f
  9588  17F7                     i1l3614:
  9589  17F7  0851               	movf	i1___flmul@prod+3,w
  9590  17F8  00BD               	movwf	?i1___flmul+3
  9591  17F9  0850               	movf	i1___flmul@prod+2,w
  9592  17FA  00BC               	movwf	?i1___flmul+2
  9593  17FB  084F               	movf	i1___flmul@prod+1,w
  9594  17FC  00BB               	movwf	?i1___flmul+1
  9595  17FD  084E               	movf	i1___flmul@prod,w
  9596  17FE  00BA               	movwf	?i1___flmul
  9597  17FF                     i1l733:
  9598  17FF  0008               	return
  9599  1800                     __end_ofi1___flmul:
  9600                           
  9601                           	psect	text14
  9602  1882                     __ptext14:	
  9603 ;; *************** function i1__Umul8_16 *****************
  9604 ;; Defined at:
  9605 ;;		line 4 in file "C:\Program Files\Microchip\xc8\v2.35\pic\sources\c90\common\Umul8_16.c"
  9606 ;; Parameters:    Size  Location     Type
  9607 ;;  multiplier      1    wreg     unsigned char 
  9608 ;;  multiplicand    1    0[COMMON] unsigned char 
  9609 ;; Auto vars:     Size  Location     Type
  9610 ;;  multiplier      1    8[COMMON] unsigned char 
  9611 ;;  word_mpld       2    6[COMMON] unsigned int 
  9612 ;;  product         2    4[COMMON] unsigned int 
  9613 ;; Return value:  Size  Location     Type
  9614 ;;                  2    0[COMMON] unsigned int 
  9615 ;; Registers used:
  9616 ;;		wreg, status,2, status,0
  9617 ;; Tracked objects:
  9618 ;;		On entry : 0/0
  9619 ;;		On exit  : 0/0
  9620 ;;		Unchanged: 0/0
  9621 ;; Data sizes:     COMMON   BANK0   BANK1   BANK3   BANK2
  9622 ;;      Params:         2       0       0       0       0
  9623 ;;      Locals:         5       0       0       0       0
  9624 ;;      Temps:          2       0       0       0       0
  9625 ;;      Totals:         9       0       0       0       0
  9626 ;;Total ram usage:        9 bytes
  9627 ;; Hardware stack levels used: 1
  9628 ;; This function calls:
  9629 ;;		Nothing
  9630 ;; This function is called by:
  9631 ;;		i1___flmul
  9632 ;; This function uses a non-reentrant model
  9633 ;;
  9634                           
  9635  1882                     i1__Umul8_16:	
  9636                           ;psect for function i1__Umul8_16
  9637                           
  9638                           
  9639                           ;incstack = 0
  9640                           ; Regs used in i1__Umul8_16: [wreg+status,2+status,0]
  9641                           ;i1__Umul8_16@multiplier stored from wreg
  9642  1882  00F8               	movwf	i1__Umul8_16@multiplier
  9643  1883                     i1l2520:
  9644  1883  01F4               	clrf	i1__Umul8_16@product
  9645  1884  01F5               	clrf	i1__Umul8_16@product+1
  9646  1885                     i1l2522:
  9647  1885  0870               	movf	i1__Umul8_16@multiplicand,w
  9648  1886  00F2               	movwf	??i1__Umul8_16
  9649  1887  01F3               	clrf	??i1__Umul8_16+1
  9650  1888  0872               	movf	??i1__Umul8_16,w
  9651  1889  00F6               	movwf	i1__Umul8_16@word_mpld
  9652  188A  0873               	movf	??i1__Umul8_16+1,w
  9653  188B  00F7               	movwf	i1__Umul8_16@word_mpld+1
  9654  188C                     i1l2524:
  9655  188C  1C78               	btfss	i1__Umul8_16@multiplier,0
  9656  188D  288F               	goto	u330_21
  9657  188E  2890               	goto	u330_20
  9658  188F                     u330_21:
  9659  188F  2896               	goto	i1l752
  9660  1890                     u330_20:
  9661  1890                     i1l2526:
  9662  1890  0876               	movf	i1__Umul8_16@word_mpld,w
  9663  1891  07F4               	addwf	i1__Umul8_16@product,f
  9664  1892  1803               	skipnc
  9665  1893  0AF5               	incf	i1__Umul8_16@product+1,f
  9666  1894  0877               	movf	i1__Umul8_16@word_mpld+1,w
  9667  1895  07F5               	addwf	i1__Umul8_16@product+1,f
  9668  1896                     i1l752:
  9669  1896  3001               	movlw	1
  9670  1897                     u331_25:
  9671  1897  1003               	clrc
  9672  1898  0DF6               	rlf	i1__Umul8_16@word_mpld,f
  9673  1899  0DF7               	rlf	i1__Umul8_16@word_mpld+1,f
  9674  189A  3EFF               	addlw	-1
  9675  189B  1D03               	skipz
  9676  189C  2897               	goto	u331_25
  9677  189D  1003               	clrc
  9678  189E  0CF8               	rrf	i1__Umul8_16@multiplier,f
  9679  189F                     i1l2528:
  9680  189F  0878               	movf	i1__Umul8_16@multiplier,w
  9681  18A0  1D03               	btfss	3,2
  9682  18A1  28A3               	goto	u332_21
  9683  18A2  28A4               	goto	u332_20
  9684  18A3                     u332_21:
  9685  18A3  288C               	goto	i1l2524
  9686  18A4                     u332_20:
  9687  18A4                     i1l2530:
  9688  18A4  0875               	movf	i1__Umul8_16@product+1,w
  9689  18A5  00F1               	movwf	?i1__Umul8_16+1
  9690  18A6  0874               	movf	i1__Umul8_16@product,w
  9691  18A7  00F0               	movwf	?i1__Umul8_16
  9692  18A8                     i1l754:
  9693  18A8  0008               	return
  9694  18A9                     __end_ofi1__Umul8_16:
  9695                           
  9696                           	psect	text15
  9697  05AC                     __ptext15:	
  9698 ;; *************** function i1___fldiv *****************
  9699 ;; Defined at:
  9700 ;;		line 8 in file "C:\Program Files\Microchip\xc8\v2.35\pic\sources\c90\common\sprcdiv.c"
  9701 ;; Parameters:    Size  Location     Type
  9702 ;;  a               4    0[BANK0 ] unsigned int 
  9703 ;;  b               4    4[BANK0 ] unsigned int 
  9704 ;; Auto vars:     Size  Location     Type
  9705 ;;  grs             4   20[BANK0 ] unsigned long 
  9706 ;;  rem             4   13[BANK0 ] unsigned long 
  9707 ;;  new_exp         2   18[BANK0 ] int 
  9708 ;;  aexp            1   25[BANK0 ] unsigned char 
  9709 ;;  bexp            1   24[BANK0 ] unsigned char 
  9710 ;;  sign            1   17[BANK0 ] unsigned char 
  9711 ;; Return value:  Size  Location     Type
  9712 ;;                  4    0[BANK0 ] unsigned char 
  9713 ;; Registers used:
  9714 ;;		wreg, status,2, status,0, btemp+1
  9715 ;; Tracked objects:
  9716 ;;		On entry : 0/0
  9717 ;;		On exit  : 0/0
  9718 ;;		Unchanged: 0/0
  9719 ;; Data sizes:     COMMON   BANK0   BANK1   BANK3   BANK2
  9720 ;;      Params:         0       8       0       0       0
  9721 ;;      Locals:         0      13       0       0       0
  9722 ;;      Temps:          0       5       0       0       0
  9723 ;;      Totals:         0      26       0       0       0
  9724 ;;Total ram usage:       26 bytes
  9725 ;; Hardware stack levels used: 1
  9726 ;; This function calls:
  9727 ;;		Nothing
  9728 ;; This function is called by:
  9729 ;;		i1_map
  9730 ;; This function uses a non-reentrant model
  9731 ;;
  9732                           
  9733  05AC                     i1___fldiv:	
  9734                           ;psect for function i1___fldiv
  9735                           
  9736  05AC                     i1l3336:	
  9737                           ;incstack = 0
  9738                           ; Regs used in i1___fldiv: [wreg+status,2+status,0+btemp+1]
  9739                           
  9740  05AC  1283               	bcf	3,5	;RP0=0, select bank0
  9741  05AD  1303               	bcf	3,6	;RP1=0, select bank0
  9742  05AE  0827               	movf	i1___fldiv@b+3,w
  9743  05AF  3980               	andlw	128
  9744  05B0  00A8               	movwf	??i1___fldiv
  9745  05B1  0828               	movf	??i1___fldiv,w
  9746  05B2  00B1               	movwf	i1___fldiv@sign
  9747  05B3                     i1l3338:
  9748  05B3  0827               	movf	i1___fldiv@b+3,w
  9749  05B4  00A8               	movwf	??i1___fldiv
  9750  05B5  0728               	addwf	??i1___fldiv,w
  9751  05B6  00A9               	movwf	??i1___fldiv+1
  9752  05B7  0829               	movf	??i1___fldiv+1,w
  9753  05B8  00B8               	movwf	i1___fldiv@bexp
  9754  05B9                     i1l3340:
  9755  05B9  1FA6               	btfss	i1___fldiv@b+2,7
  9756  05BA  2DBC               	goto	u525_21
  9757  05BB  2DBD               	goto	u525_20
  9758  05BC                     u525_21:
  9759  05BC  2DBE               	goto	i1l3344
  9760  05BD                     u525_20:
  9761  05BD                     i1l3342:
  9762  05BD  1438               	bsf	i1___fldiv@bexp,0
  9763  05BE                     i1l3344:
  9764  05BE  0838               	movf	i1___fldiv@bexp,w
  9765  05BF  1903               	btfsc	3,2
  9766  05C0  2DC2               	goto	u526_21
  9767  05C1  2DC3               	goto	u526_20
  9768  05C2                     u526_21:
  9769  05C2  2DD3               	goto	i1l3354
  9770  05C3                     u526_20:
  9771  05C3                     i1l3346:
  9772  05C3  0A38               	incf	i1___fldiv@bexp,w
  9773  05C4  1D03               	btfss	3,2
  9774  05C5  2DC7               	goto	u527_21
  9775  05C6  2DC8               	goto	u527_20
  9776  05C7                     u527_21:
  9777  05C7  2DD0               	goto	i1l3350
  9778  05C8                     u527_20:
  9779  05C8                     i1l3348:
  9780  05C8  3000               	movlw	0
  9781  05C9  00A7               	movwf	i1___fldiv@b+3
  9782  05CA  3000               	movlw	0
  9783  05CB  00A6               	movwf	i1___fldiv@b+2
  9784  05CC  3000               	movlw	0
  9785  05CD  00A5               	movwf	i1___fldiv@b+1
  9786  05CE  3000               	movlw	0
  9787  05CF  00A4               	movwf	i1___fldiv@b
  9788  05D0                     i1l3350:
  9789  05D0  17A6               	bsf	i1___fldiv@b+2,7
  9790  05D1                     i1l3352:
  9791  05D1  01A7               	clrf	i1___fldiv@b+3
  9792  05D2  2DDB               	goto	i1l3356
  9793  05D3                     i1l3354:
  9794  05D3  3000               	movlw	0
  9795  05D4  00A7               	movwf	i1___fldiv@b+3
  9796  05D5  3000               	movlw	0
  9797  05D6  00A6               	movwf	i1___fldiv@b+2
  9798  05D7  3000               	movlw	0
  9799  05D8  00A5               	movwf	i1___fldiv@b+1
  9800  05D9  3000               	movlw	0
  9801  05DA  00A4               	movwf	i1___fldiv@b
  9802  05DB                     i1l3356:
  9803  05DB  0823               	movf	i1___fldiv@a+3,w
  9804  05DC  3980               	andlw	128
  9805  05DD  00A8               	movwf	??i1___fldiv
  9806  05DE  0828               	movf	??i1___fldiv,w
  9807  05DF  06B1               	xorwf	i1___fldiv@sign,f
  9808  05E0                     i1l3358:
  9809  05E0  0823               	movf	i1___fldiv@a+3,w
  9810  05E1  00A8               	movwf	??i1___fldiv
  9811  05E2  0728               	addwf	??i1___fldiv,w
  9812  05E3  00A9               	movwf	??i1___fldiv+1
  9813  05E4  0829               	movf	??i1___fldiv+1,w
  9814  05E5  00B9               	movwf	i1___fldiv@aexp
  9815  05E6                     i1l3360:
  9816  05E6  1FA2               	btfss	i1___fldiv@a+2,7
  9817  05E7  2DE9               	goto	u528_21
  9818  05E8  2DEA               	goto	u528_20
  9819  05E9                     u528_21:
  9820  05E9  2DEB               	goto	i1l3364
  9821  05EA                     u528_20:
  9822  05EA                     i1l3362:
  9823  05EA  1439               	bsf	i1___fldiv@aexp,0
  9824  05EB                     i1l3364:
  9825  05EB  0839               	movf	i1___fldiv@aexp,w
  9826  05EC  1903               	btfsc	3,2
  9827  05ED  2DEF               	goto	u529_21
  9828  05EE  2DF0               	goto	u529_20
  9829  05EF                     u529_21:
  9830  05EF  2E00               	goto	i1l3374
  9831  05F0                     u529_20:
  9832  05F0                     i1l3366:
  9833  05F0  0A39               	incf	i1___fldiv@aexp,w
  9834  05F1  1D03               	btfss	3,2
  9835  05F2  2DF4               	goto	u530_21
  9836  05F3  2DF5               	goto	u530_20
  9837  05F4                     u530_21:
  9838  05F4  2DFD               	goto	i1l3370
  9839  05F5                     u530_20:
  9840  05F5                     i1l3368:
  9841  05F5  3000               	movlw	0
  9842  05F6  00A3               	movwf	i1___fldiv@a+3
  9843  05F7  3000               	movlw	0
  9844  05F8  00A2               	movwf	i1___fldiv@a+2
  9845  05F9  3000               	movlw	0
  9846  05FA  00A1               	movwf	i1___fldiv@a+1
  9847  05FB  3000               	movlw	0
  9848  05FC  00A0               	movwf	i1___fldiv@a
  9849  05FD                     i1l3370:
  9850  05FD  17A2               	bsf	i1___fldiv@a+2,7
  9851  05FE                     i1l3372:
  9852  05FE  01A3               	clrf	i1___fldiv@a+3
  9853  05FF  2E08               	goto	i1l693
  9854  0600                     i1l3374:
  9855  0600  3000               	movlw	0
  9856  0601  00A3               	movwf	i1___fldiv@a+3
  9857  0602  3000               	movlw	0
  9858  0603  00A2               	movwf	i1___fldiv@a+2
  9859  0604  3000               	movlw	0
  9860  0605  00A1               	movwf	i1___fldiv@a+1
  9861  0606  3000               	movlw	0
  9862  0607  00A0               	movwf	i1___fldiv@a
  9863  0608                     i1l693:
  9864  0608  0823               	movf	i1___fldiv@a+3,w
  9865  0609  0422               	iorwf	i1___fldiv@a+2,w
  9866  060A  0421               	iorwf	i1___fldiv@a+1,w
  9867  060B  0420               	iorwf	i1___fldiv@a,w
  9868  060C  1D03               	skipz
  9869  060D  2E0F               	goto	u531_21
  9870  060E  2E10               	goto	u531_20
  9871  060F                     u531_21:
  9872  060F  2E29               	goto	i1l3384
  9873  0610                     u531_20:
  9874  0610                     i1l3376:
  9875  0610  3000               	movlw	0
  9876  0611  00A7               	movwf	i1___fldiv@b+3
  9877  0612  3000               	movlw	0
  9878  0613  00A6               	movwf	i1___fldiv@b+2
  9879  0614  3000               	movlw	0
  9880  0615  00A5               	movwf	i1___fldiv@b+1
  9881  0616  3000               	movlw	0
  9882  0617  00A4               	movwf	i1___fldiv@b
  9883  0618  3080               	movlw	128
  9884  0619  04A6               	iorwf	i1___fldiv@b+2,f
  9885  061A  307F               	movlw	127
  9886  061B  04A7               	iorwf	i1___fldiv@b+3,f
  9887  061C                     i1l3378:
  9888  061C  0831               	movf	i1___fldiv@sign,w
  9889  061D  00A8               	movwf	??i1___fldiv
  9890  061E  0828               	movf	??i1___fldiv,w
  9891  061F  04A7               	iorwf	i1___fldiv@b+3,f
  9892  0620                     i1l3380:
  9893  0620  0827               	movf	i1___fldiv@b+3,w
  9894  0621  00A3               	movwf	?i1___fldiv+3
  9895  0622  0826               	movf	i1___fldiv@b+2,w
  9896  0623  00A2               	movwf	?i1___fldiv+2
  9897  0624  0825               	movf	i1___fldiv@b+1,w
  9898  0625  00A1               	movwf	?i1___fldiv+1
  9899  0626  0824               	movf	i1___fldiv@b,w
  9900  0627  00A0               	movwf	?i1___fldiv
  9901  0628  2F88               	goto	i1l695
  9902  0629                     i1l3384:
  9903  0629  0838               	movf	i1___fldiv@bexp,w
  9904  062A  1D03               	btfss	3,2
  9905  062B  2E2D               	goto	u532_21
  9906  062C  2E2E               	goto	u532_20
  9907  062D                     u532_21:
  9908  062D  2E37               	goto	i1l3390
  9909  062E                     u532_20:
  9910  062E                     i1l3386:
  9911  062E  3000               	movlw	0
  9912  062F  00A3               	movwf	?i1___fldiv+3
  9913  0630  3000               	movlw	0
  9914  0631  00A2               	movwf	?i1___fldiv+2
  9915  0632  3000               	movlw	0
  9916  0633  00A1               	movwf	?i1___fldiv+1
  9917  0634  3000               	movlw	0
  9918  0635  00A0               	movwf	?i1___fldiv
  9919  0636  2F88               	goto	i1l695
  9920  0637                     i1l3390:
  9921  0637  0838               	movf	i1___fldiv@bexp,w
  9922  0638  00A8               	movwf	??i1___fldiv
  9923  0639  01A9               	clrf	??i1___fldiv+1
  9924  063A  0829               	movf	??i1___fldiv+1,w
  9925  063B  00AB               	movwf	??i1___fldiv+3
  9926  063C  0839               	movf	i1___fldiv@aexp,w
  9927  063D  0228               	subwf	??i1___fldiv,w
  9928  063E  00AA               	movwf	??i1___fldiv+2
  9929  063F  1C03               	skipc
  9930  0640  03AB               	decf	??i1___fldiv+3,f
  9931  0641  082A               	movf	??i1___fldiv+2,w
  9932  0642  3E7F               	addlw	127
  9933  0643  00B2               	movwf	i1___fldiv@new_exp
  9934  0644  082B               	movf	??i1___fldiv+3,w
  9935  0645  1803               	skipnc
  9936  0646  3E01               	addlw	1
  9937  0647  3E00               	addlw	0
  9938  0648  00B3               	movwf	i1___fldiv@new_exp+1
  9939  0649                     i1l3392:
  9940  0649  0827               	movf	i1___fldiv@b+3,w
  9941  064A  00B0               	movwf	i1___fldiv@rem+3
  9942  064B  0826               	movf	i1___fldiv@b+2,w
  9943  064C  00AF               	movwf	i1___fldiv@rem+2
  9944  064D  0825               	movf	i1___fldiv@b+1,w
  9945  064E  00AE               	movwf	i1___fldiv@rem+1
  9946  064F  0824               	movf	i1___fldiv@b,w
  9947  0650  00AD               	movwf	i1___fldiv@rem
  9948  0651                     i1l3394:
  9949  0651  3000               	movlw	0
  9950  0652  00A7               	movwf	i1___fldiv@b+3
  9951  0653  3000               	movlw	0
  9952  0654  00A6               	movwf	i1___fldiv@b+2
  9953  0655  3000               	movlw	0
  9954  0656  00A5               	movwf	i1___fldiv@b+1
  9955  0657  3000               	movlw	0
  9956  0658  00A4               	movwf	i1___fldiv@b
  9957  0659                     i1l3396:
  9958  0659  3000               	movlw	0
  9959  065A  00B7               	movwf	i1___fldiv@grs+3
  9960  065B  3000               	movlw	0
  9961  065C  00B6               	movwf	i1___fldiv@grs+2
  9962  065D  3000               	movlw	0
  9963  065E  00B5               	movwf	i1___fldiv@grs+1
  9964  065F  3000               	movlw	0
  9965  0660  00B4               	movwf	i1___fldiv@grs
  9966  0661                     i1l3398:
  9967  0661  01B9               	clrf	i1___fldiv@aexp
  9968  0662  2EAD               	goto	i1l3418
  9969  0663                     i1l3400:
  9970  0663  0839               	movf	i1___fldiv@aexp,w
  9971  0664  1903               	btfsc	3,2
  9972  0665  2E67               	goto	u533_21
  9973  0666  2E68               	goto	u533_20
  9974  0667                     u533_21:
  9975  0667  2E88               	goto	i1l3410
  9976  0668                     u533_20:
  9977  0668                     i1l3402:
  9978  0668  3001               	movlw	1
  9979  0669  00A8               	movwf	??i1___fldiv
  9980  066A                     u534_25:
  9981  066A  1003               	clrc
  9982  066B  0DAD               	rlf	i1___fldiv@rem,f
  9983  066C  0DAE               	rlf	i1___fldiv@rem+1,f
  9984  066D  0DAF               	rlf	i1___fldiv@rem+2,f
  9985  066E  0DB0               	rlf	i1___fldiv@rem+3,f
  9986  066F  0BA8               	decfsz	??i1___fldiv,f
  9987  0670  2E6A               	goto	u534_25
  9988  0671  3001               	movlw	1
  9989  0672  00A8               	movwf	??i1___fldiv
  9990  0673                     u535_25:
  9991  0673  1003               	clrc
  9992  0674  0DA4               	rlf	i1___fldiv@b,f
  9993  0675  0DA5               	rlf	i1___fldiv@b+1,f
  9994  0676  0DA6               	rlf	i1___fldiv@b+2,f
  9995  0677  0DA7               	rlf	i1___fldiv@b+3,f
  9996  0678  0BA8               	decfsz	??i1___fldiv,f
  9997  0679  2E73               	goto	u535_25
  9998  067A                     i1l3404:
  9999  067A  1FB7               	btfss	i1___fldiv@grs+3,7
 10000  067B  2E7D               	goto	u536_21
 10001  067C  2E7E               	goto	u536_20
 10002  067D                     u536_21:
 10003  067D  2E7F               	goto	i1l3408
 10004  067E                     u536_20:
 10005  067E                     i1l3406:
 10006  067E  1424               	bsf	i1___fldiv@b,0
 10007  067F                     i1l3408:
 10008  067F  3001               	movlw	1
 10009  0680  00A8               	movwf	??i1___fldiv
 10010  0681                     u537_25:
 10011  0681  1003               	clrc
 10012  0682  0DB4               	rlf	i1___fldiv@grs,f
 10013  0683  0DB5               	rlf	i1___fldiv@grs+1,f
 10014  0684  0DB6               	rlf	i1___fldiv@grs+2,f
 10015  0685  0DB7               	rlf	i1___fldiv@grs+3,f
 10016  0686  0BA8               	decfsz	??i1___fldiv,f
 10017  0687  2E81               	goto	u537_25
 10018  0688                     i1l3410:
 10019  0688  0823               	movf	i1___fldiv@a+3,w
 10020  0689  0230               	subwf	i1___fldiv@rem+3,w
 10021  068A  1D03               	skipz
 10022  068B  2E96               	goto	u538_25
 10023  068C  0822               	movf	i1___fldiv@a+2,w
 10024  068D  022F               	subwf	i1___fldiv@rem+2,w
 10025  068E  1D03               	skipz
 10026  068F  2E96               	goto	u538_25
 10027  0690  0821               	movf	i1___fldiv@a+1,w
 10028  0691  022E               	subwf	i1___fldiv@rem+1,w
 10029  0692  1D03               	skipz
 10030  0693  2E96               	goto	u538_25
 10031  0694  0820               	movf	i1___fldiv@a,w
 10032  0695  022D               	subwf	i1___fldiv@rem,w
 10033  0696                     u538_25:
 10034  0696  1C03               	skipc
 10035  0697  2E99               	goto	u538_21
 10036  0698  2E9A               	goto	u538_20
 10037  0699                     u538_21:
 10038  0699  2EA9               	goto	i1l3416
 10039  069A                     u538_20:
 10040  069A                     i1l3412:
 10041  069A  1737               	bsf	i1___fldiv@grs+3,6
 10042  069B                     i1l3414:
 10043  069B  0820               	movf	i1___fldiv@a,w
 10044  069C  02AD               	subwf	i1___fldiv@rem,f
 10045  069D  0821               	movf	i1___fldiv@a+1,w
 10046  069E  1C03               	skipc
 10047  069F  0F21               	incfsz	i1___fldiv@a+1,w
 10048  06A0  02AE               	subwf	i1___fldiv@rem+1,f
 10049  06A1  0822               	movf	i1___fldiv@a+2,w
 10050  06A2  1C03               	skipc
 10051  06A3  0F22               	incfsz	i1___fldiv@a+2,w
 10052  06A4  02AF               	subwf	i1___fldiv@rem+2,f
 10053  06A5  0823               	movf	i1___fldiv@a+3,w
 10054  06A6  1C03               	skipc
 10055  06A7  0F23               	incfsz	i1___fldiv@a+3,w
 10056  06A8  02B0               	subwf	i1___fldiv@rem+3,f
 10057  06A9                     i1l3416:
 10058  06A9  3001               	movlw	1
 10059  06AA  00A8               	movwf	??i1___fldiv
 10060  06AB  0828               	movf	??i1___fldiv,w
 10061  06AC  07B9               	addwf	i1___fldiv@aexp,f
 10062  06AD                     i1l3418:
 10063  06AD  301A               	movlw	26
 10064  06AE  0239               	subwf	i1___fldiv@aexp,w
 10065  06AF  1C03               	skipc
 10066  06B0  2EB2               	goto	u539_21
 10067  06B1  2EB3               	goto	u539_20
 10068  06B2                     u539_21:
 10069  06B2  2E63               	goto	i1l3400
 10070  06B3                     u539_20:
 10071  06B3                     i1l3420:
 10072  06B3  0830               	movf	i1___fldiv@rem+3,w
 10073  06B4  042F               	iorwf	i1___fldiv@rem+2,w
 10074  06B5  042E               	iorwf	i1___fldiv@rem+1,w
 10075  06B6  042D               	iorwf	i1___fldiv@rem,w
 10076  06B7  1903               	skipnz
 10077  06B8  2EBA               	goto	u540_21
 10078  06B9  2EBB               	goto	u540_20
 10079  06BA                     u540_21:
 10080  06BA  2EDA               	goto	i1l3434
 10081  06BB                     u540_20:
 10082  06BB                     i1l3422:
 10083  06BB  1434               	bsf	i1___fldiv@grs,0
 10084  06BC  2EDA               	goto	i1l3434
 10085  06BD                     i1l3424:
 10086  06BD  3001               	movlw	1
 10087  06BE  00A8               	movwf	??i1___fldiv
 10088  06BF                     u541_25:
 10089  06BF  1003               	clrc
 10090  06C0  0DA4               	rlf	i1___fldiv@b,f
 10091  06C1  0DA5               	rlf	i1___fldiv@b+1,f
 10092  06C2  0DA6               	rlf	i1___fldiv@b+2,f
 10093  06C3  0DA7               	rlf	i1___fldiv@b+3,f
 10094  06C4  0BA8               	decfsz	??i1___fldiv,f
 10095  06C5  2EBF               	goto	u541_25
 10096  06C6                     i1l3426:
 10097  06C6  1FB7               	btfss	i1___fldiv@grs+3,7
 10098  06C7  2EC9               	goto	u542_21
 10099  06C8  2ECA               	goto	u542_20
 10100  06C9                     u542_21:
 10101  06C9  2ECB               	goto	i1l3430
 10102  06CA                     u542_20:
 10103  06CA                     i1l3428:
 10104  06CA  1424               	bsf	i1___fldiv@b,0
 10105  06CB                     i1l3430:
 10106  06CB  3001               	movlw	1
 10107  06CC  00A8               	movwf	??i1___fldiv
 10108  06CD                     u543_25:
 10109  06CD  1003               	clrc
 10110  06CE  0DB4               	rlf	i1___fldiv@grs,f
 10111  06CF  0DB5               	rlf	i1___fldiv@grs+1,f
 10112  06D0  0DB6               	rlf	i1___fldiv@grs+2,f
 10113  06D1  0DB7               	rlf	i1___fldiv@grs+3,f
 10114  06D2  0BA8               	decfsz	??i1___fldiv,f
 10115  06D3  2ECD               	goto	u543_25
 10116  06D4                     i1l3432:
 10117  06D4  30FF               	movlw	255
 10118  06D5  07B2               	addwf	i1___fldiv@new_exp,f
 10119  06D6  1803               	skipnc
 10120  06D7  0AB3               	incf	i1___fldiv@new_exp+1,f
 10121  06D8  30FF               	movlw	255
 10122  06D9  07B3               	addwf	i1___fldiv@new_exp+1,f
 10123  06DA                     i1l3434:
 10124  06DA  1FA6               	btfss	i1___fldiv@b+2,7
 10125  06DB  2EDD               	goto	u544_21
 10126  06DC  2EDE               	goto	u544_20
 10127  06DD                     u544_21:
 10128  06DD  2EBD               	goto	i1l3424
 10129  06DE                     u544_20:
 10130  06DE                     i1l3436:
 10131  06DE  01B9               	clrf	i1___fldiv@aexp
 10132  06DF                     i1l3438:
 10133  06DF  1FB7               	btfss	i1___fldiv@grs+3,7
 10134  06E0  2EE2               	goto	u545_21
 10135  06E1  2EE3               	goto	u545_20
 10136  06E2                     u545_21:
 10137  06E2  2EFF               	goto	i1l3446
 10138  06E3                     u545_20:
 10139  06E3                     i1l3440:
 10140  06E3  30FF               	movlw	255
 10141  06E4  0534               	andwf	i1___fldiv@grs,w
 10142  06E5  00A8               	movwf	??i1___fldiv
 10143  06E6  30FF               	movlw	255
 10144  06E7  0535               	andwf	i1___fldiv@grs+1,w
 10145  06E8  00A9               	movwf	??i1___fldiv+1
 10146  06E9  30FF               	movlw	255
 10147  06EA  0536               	andwf	i1___fldiv@grs+2,w
 10148  06EB  00AA               	movwf	??i1___fldiv+2
 10149  06EC  307F               	movlw	127
 10150  06ED  0537               	andwf	i1___fldiv@grs+3,w
 10151  06EE  00AB               	movwf	??i1___fldiv+3
 10152  06EF  082B               	movf	??i1___fldiv+3,w
 10153  06F0  042A               	iorwf	??i1___fldiv+2,w
 10154  06F1  0429               	iorwf	??i1___fldiv+1,w
 10155  06F2  0428               	iorwf	??i1___fldiv,w
 10156  06F3  1903               	skipnz
 10157  06F4  2EF6               	goto	u546_21
 10158  06F5  2EF7               	goto	u546_20
 10159  06F6                     u546_21:
 10160  06F6  2EFA               	goto	i1l709
 10161  06F7                     u546_20:
 10162  06F7                     i1l3442:
 10163  06F7  01B9               	clrf	i1___fldiv@aexp
 10164  06F8  0AB9               	incf	i1___fldiv@aexp,f
 10165  06F9  2EFF               	goto	i1l3446
 10166  06FA                     i1l709:
 10167  06FA  1C24               	btfss	i1___fldiv@b,0
 10168  06FB  2EFD               	goto	u547_21
 10169  06FC  2EFE               	goto	u547_20
 10170  06FD                     u547_21:
 10171  06FD  2EFF               	goto	i1l3446
 10172  06FE                     u547_20:
 10173  06FE  2EF7               	goto	i1l3442
 10174  06FF                     i1l3446:
 10175  06FF  0839               	movf	i1___fldiv@aexp,w
 10176  0700  1903               	btfsc	3,2
 10177  0701  2F03               	goto	u548_21
 10178  0702  2F04               	goto	u548_20
 10179  0703                     u548_21:
 10180  0703  2F35               	goto	i1l3456
 10181  0704                     u548_20:
 10182  0704                     i1l3448:
 10183  0704  3001               	movlw	1
 10184  0705  07A4               	addwf	i1___fldiv@b,f
 10185  0706  3000               	movlw	0
 10186  0707  1803               	skipnc
 10187  0708  3001               	movlw	1
 10188  0709  07A5               	addwf	i1___fldiv@b+1,f
 10189  070A  3000               	movlw	0
 10190  070B  1803               	skipnc
 10191  070C  3001               	movlw	1
 10192  070D  07A6               	addwf	i1___fldiv@b+2,f
 10193  070E  3000               	movlw	0
 10194  070F  1803               	skipnc
 10195  0710  3001               	movlw	1
 10196  0711  07A7               	addwf	i1___fldiv@b+3,f
 10197  0712                     i1l3450:
 10198  0712  1C27               	btfss	i1___fldiv@b+3,0
 10199  0713  2F15               	goto	u549_21
 10200  0714  2F16               	goto	u549_20
 10201  0715                     u549_21:
 10202  0715  2F35               	goto	i1l3456
 10203  0716                     u549_20:
 10204  0716                     i1l3452:
 10205  0716  0824               	movf	i1___fldiv@b,w
 10206  0717  00A8               	movwf	??i1___fldiv
 10207  0718  0825               	movf	i1___fldiv@b+1,w
 10208  0719  00A9               	movwf	??i1___fldiv+1
 10209  071A  0826               	movf	i1___fldiv@b+2,w
 10210  071B  00AA               	movwf	??i1___fldiv+2
 10211  071C  0827               	movf	i1___fldiv@b+3,w
 10212  071D  00AB               	movwf	??i1___fldiv+3
 10213  071E  3001               	movlw	1
 10214  071F  00AC               	movwf	??i1___fldiv+4
 10215  0720                     u550_25:
 10216  0720  0D2B               	rlf	??i1___fldiv+3,w
 10217  0721  0CAB               	rrf	??i1___fldiv+3,f
 10218  0722  0CAA               	rrf	??i1___fldiv+2,f
 10219  0723  0CA9               	rrf	??i1___fldiv+1,f
 10220  0724  0CA8               	rrf	??i1___fldiv,f
 10221  0725                     u550_20:
 10222  0725  0BAC               	decfsz	??i1___fldiv+4,f
 10223  0726  2F20               	goto	u550_25
 10224  0727  082B               	movf	??i1___fldiv+3,w
 10225  0728  00A7               	movwf	i1___fldiv@b+3
 10226  0729  082A               	movf	??i1___fldiv+2,w
 10227  072A  00A6               	movwf	i1___fldiv@b+2
 10228  072B  0829               	movf	??i1___fldiv+1,w
 10229  072C  00A5               	movwf	i1___fldiv@b+1
 10230  072D  0828               	movf	??i1___fldiv,w
 10231  072E  00A4               	movwf	i1___fldiv@b
 10232  072F                     i1l3454:
 10233  072F  3001               	movlw	1
 10234  0730  07B2               	addwf	i1___fldiv@new_exp,f
 10235  0731  1803               	skipnc
 10236  0732  0AB3               	incf	i1___fldiv@new_exp+1,f
 10237  0733  3000               	movlw	0
 10238  0734  07B3               	addwf	i1___fldiv@new_exp+1,f
 10239  0735                     i1l3456:
 10240  0735  0833               	movf	i1___fldiv@new_exp+1,w
 10241  0736  3A80               	xorlw	128
 10242  0737  00FF               	movwf	btemp+1
 10243  0738  3080               	movlw	128
 10244  0739  027F               	subwf	btemp+1,w
 10245  073A  1D03               	skipz
 10246  073B  2F3E               	goto	u551_25
 10247  073C  30FF               	movlw	255
 10248  073D  0232               	subwf	i1___fldiv@new_exp,w
 10249  073E                     u551_25:
 10250  073E  1C03               	skipc
 10251  073F  2F41               	goto	u551_21
 10252  0740  2F42               	goto	u551_20
 10253  0741                     u551_21:
 10254  0741  2F50               	goto	i1l3460
 10255  0742                     u551_20:
 10256  0742                     i1l3458:
 10257  0742  30FF               	movlw	255
 10258  0743  1283               	bcf	3,5	;RP0=0, select bank0
 10259  0744  1303               	bcf	3,6	;RP1=0, select bank0
 10260  0745  00B2               	movwf	i1___fldiv@new_exp
 10261  0746  3000               	movlw	0
 10262  0747  00B3               	movwf	i1___fldiv@new_exp+1
 10263  0748  3000               	movlw	0
 10264  0749  00A7               	movwf	i1___fldiv@b+3
 10265  074A  3000               	movlw	0
 10266  074B  00A6               	movwf	i1___fldiv@b+2
 10267  074C  3000               	movlw	0
 10268  074D  00A5               	movwf	i1___fldiv@b+1
 10269  074E  3000               	movlw	0
 10270  074F  00A4               	movwf	i1___fldiv@b
 10271  0750                     i1l3460:
 10272  0750  1283               	bcf	3,5	;RP0=0, select bank0
 10273  0751  1303               	bcf	3,6	;RP1=0, select bank0
 10274  0752  0833               	movf	i1___fldiv@new_exp+1,w
 10275  0753  3A80               	xorlw	128
 10276  0754  00FF               	movwf	btemp+1
 10277  0755  3080               	movlw	128
 10278  0756  027F               	subwf	btemp+1,w
 10279  0757  1D03               	skipz
 10280  0758  2F5B               	goto	u552_25
 10281  0759  3001               	movlw	1
 10282  075A  0232               	subwf	i1___fldiv@new_exp,w
 10283  075B                     u552_25:
 10284  075B  1803               	skipnc
 10285  075C  2F5E               	goto	u552_21
 10286  075D  2F5F               	goto	u552_20
 10287  075E                     u552_21:
 10288  075E  2F6C               	goto	i1l715
 10289  075F                     u552_20:
 10290  075F                     i1l3462:
 10291  075F  1283               	bcf	3,5	;RP0=0, select bank0
 10292  0760  1303               	bcf	3,6	;RP1=0, select bank0
 10293  0761  01B2               	clrf	i1___fldiv@new_exp
 10294  0762  01B3               	clrf	i1___fldiv@new_exp+1
 10295  0763                     i1l3464:
 10296  0763  3000               	movlw	0
 10297  0764  00A7               	movwf	i1___fldiv@b+3
 10298  0765  3000               	movlw	0
 10299  0766  00A6               	movwf	i1___fldiv@b+2
 10300  0767  3000               	movlw	0
 10301  0768  00A5               	movwf	i1___fldiv@b+1
 10302  0769  3000               	movlw	0
 10303  076A  00A4               	movwf	i1___fldiv@b
 10304  076B                     i1l3466:
 10305  076B  01B1               	clrf	i1___fldiv@sign
 10306  076C                     i1l715:
 10307  076C  1283               	bcf	3,5	;RP0=0, select bank0
 10308  076D  1303               	bcf	3,6	;RP1=0, select bank0
 10309  076E  0832               	movf	i1___fldiv@new_exp,w
 10310  076F  00A8               	movwf	??i1___fldiv
 10311  0770  0828               	movf	??i1___fldiv,w
 10312  0771  00B8               	movwf	i1___fldiv@bexp
 10313  0772                     i1l3468:
 10314  0772  1C38               	btfss	i1___fldiv@bexp,0
 10315  0773  2F75               	goto	u553_21
 10316  0774  2F76               	goto	u553_20
 10317  0775                     u553_21:
 10318  0775  2F78               	goto	i1l3472
 10319  0776                     u553_20:
 10320  0776                     i1l3470:
 10321  0776  17A6               	bsf	i1___fldiv@b+2,7
 10322  0777  2F7C               	goto	i1l717
 10323  0778                     i1l3472:
 10324  0778  307F               	movlw	127
 10325  0779  00A8               	movwf	??i1___fldiv
 10326  077A  0828               	movf	??i1___fldiv,w
 10327  077B  05A6               	andwf	i1___fldiv@b+2,f
 10328  077C                     i1l717:
 10329  077C  0838               	movf	i1___fldiv@bexp,w
 10330  077D  00A8               	movwf	??i1___fldiv
 10331  077E  1003               	clrc
 10332  077F  0C28               	rrf	??i1___fldiv,w
 10333  0780  00A9               	movwf	??i1___fldiv+1
 10334  0781  0829               	movf	??i1___fldiv+1,w
 10335  0782  00A7               	movwf	i1___fldiv@b+3
 10336  0783  0831               	movf	i1___fldiv@sign,w
 10337  0784  00A8               	movwf	??i1___fldiv
 10338  0785  0828               	movf	??i1___fldiv,w
 10339  0786  04A7               	iorwf	i1___fldiv@b+3,f
 10340  0787  2E20               	goto	i1l3380
 10341  0788                     i1l695:
 10342  0788  0008               	return
 10343  0789                     __end_ofi1___fldiv:
 10344                           
 10345                           	psect	text16
 10346  1D78                     __ptext16:	
 10347 ;; *************** function i1___fladd *****************
 10348 ;; Defined at:
 10349 ;;		line 10 in file "C:\Program Files\Microchip\xc8\v2.35\pic\sources\c90\common\sprcadd.c"
 10350 ;; Parameters:    Size  Location     Type
 10351 ;;  b               4   52[BANK0 ] unsigned char 
 10352 ;;  a               4   56[BANK0 ] unsigned char 
 10353 ;; Auto vars:     Size  Location     Type
 10354 ;;  grs             1   71[BANK0 ] unsigned char 
 10355 ;;  bexp            1   70[BANK0 ] unsigned char 
 10356 ;;  aexp            1   69[BANK0 ] unsigned char 
 10357 ;;  signs           1   68[BANK0 ] unsigned char 
 10358 ;; Return value:  Size  Location     Type
 10359 ;;                  4   52[BANK0 ] unsigned char 
 10360 ;; Registers used:
 10361 ;;		wreg, status,2, status,0, btemp+1
 10362 ;; Tracked objects:
 10363 ;;		On entry : 0/0
 10364 ;;		On exit  : 0/0
 10365 ;;		Unchanged: 0/0
 10366 ;; Data sizes:     COMMON   BANK0   BANK1   BANK3   BANK2
 10367 ;;      Params:         0       8       0       0       0
 10368 ;;      Locals:         0       4       0       0       0
 10369 ;;      Temps:          0       8       0       0       0
 10370 ;;      Totals:         0      20       0       0       0
 10371 ;;Total ram usage:       20 bytes
 10372 ;; Hardware stack levels used: 1
 10373 ;; This function calls:
 10374 ;;		Nothing
 10375 ;; This function is called by:
 10376 ;;		i1_map
 10377 ;; This function uses a non-reentrant model
 10378 ;;
 10379                           
 10380  1D78                     i1___fladd:	
 10381                           ;psect for function i1___fladd
 10382                           
 10383  1D78                     i1l3142:	
 10384                           ;incstack = 0
 10385                           ; Regs used in i1___fladd: [wreg+status,2+status,0+btemp+1]
 10386                           
 10387  1D78  1283               	bcf	3,5	;RP0=0, select bank0
 10388  1D79  1303               	bcf	3,6	;RP1=0, select bank0
 10389  1D7A  0857               	movf	i1___fladd@b+3,w
 10390  1D7B  3980               	andlw	128
 10391  1D7C  00DC               	movwf	??i1___fladd
 10392  1D7D  085C               	movf	??i1___fladd,w
 10393  1D7E  00E4               	movwf	i1___fladd@signs
 10394  1D7F                     i1l3144:
 10395  1D7F  0857               	movf	i1___fladd@b+3,w
 10396  1D80  00DC               	movwf	??i1___fladd
 10397  1D81  075C               	addwf	??i1___fladd,w
 10398  1D82  00DD               	movwf	??i1___fladd+1
 10399  1D83  085D               	movf	??i1___fladd+1,w
 10400  1D84  00E6               	movwf	i1___fladd@bexp
 10401  1D85                     i1l3146:
 10402  1D85  1FD6               	btfss	i1___fladd@b+2,7
 10403  1D86  2D88               	goto	u479_21
 10404  1D87  2D89               	goto	u479_20
 10405  1D88                     u479_21:
 10406  1D88  2D8A               	goto	i1l3150
 10407  1D89                     u479_20:
 10408  1D89                     i1l3148:
 10409  1D89  1466               	bsf	i1___fladd@bexp,0
 10410  1D8A                     i1l3150:
 10411  1D8A  0866               	movf	i1___fladd@bexp,w
 10412  1D8B  1903               	btfsc	3,2
 10413  1D8C  2D8E               	goto	u480_21
 10414  1D8D  2D8F               	goto	u480_20
 10415  1D8E                     u480_21:
 10416  1D8E  2D9F               	goto	i1l3160
 10417  1D8F                     u480_20:
 10418  1D8F                     i1l3152:
 10419  1D8F  0A66               	incf	i1___fladd@bexp,w
 10420  1D90  1D03               	btfss	3,2
 10421  1D91  2D93               	goto	u481_21
 10422  1D92  2D94               	goto	u481_20
 10423  1D93                     u481_21:
 10424  1D93  2D9C               	goto	i1l3156
 10425  1D94                     u481_20:
 10426  1D94                     i1l3154:
 10427  1D94  3000               	movlw	0
 10428  1D95  00D7               	movwf	i1___fladd@b+3
 10429  1D96  3000               	movlw	0
 10430  1D97  00D6               	movwf	i1___fladd@b+2
 10431  1D98  3000               	movlw	0
 10432  1D99  00D5               	movwf	i1___fladd@b+1
 10433  1D9A  3000               	movlw	0
 10434  1D9B  00D4               	movwf	i1___fladd@b
 10435  1D9C                     i1l3156:
 10436  1D9C  17D6               	bsf	i1___fladd@b+2,7
 10437  1D9D                     i1l3158:
 10438  1D9D  01D7               	clrf	i1___fladd@b+3
 10439  1D9E  2DA7               	goto	i1l3162
 10440  1D9F                     i1l3160:
 10441  1D9F  3000               	movlw	0
 10442  1DA0  00D7               	movwf	i1___fladd@b+3
 10443  1DA1  3000               	movlw	0
 10444  1DA2  00D6               	movwf	i1___fladd@b+2
 10445  1DA3  3000               	movlw	0
 10446  1DA4  00D5               	movwf	i1___fladd@b+1
 10447  1DA5  3000               	movlw	0
 10448  1DA6  00D4               	movwf	i1___fladd@b
 10449  1DA7                     i1l3162:
 10450  1DA7  085B               	movf	i1___fladd@a+3,w
 10451  1DA8  3980               	andlw	128
 10452  1DA9  00DC               	movwf	??i1___fladd
 10453  1DAA  085C               	movf	??i1___fladd,w
 10454  1DAB  00E5               	movwf	i1___fladd@aexp
 10455  1DAC                     i1l3164:
 10456  1DAC  0865               	movf	i1___fladd@aexp,w
 10457  1DAD  0664               	xorwf	i1___fladd@signs,w
 10458  1DAE  1903               	skipnz
 10459  1DAF  2DB1               	goto	u482_21
 10460  1DB0  2DB2               	goto	u482_20
 10461  1DB1                     u482_21:
 10462  1DB1  2DB3               	goto	i1l3168
 10463  1DB2                     u482_20:
 10464  1DB2                     i1l3166:
 10465  1DB2  1764               	bsf	i1___fladd@signs,6
 10466  1DB3                     i1l3168:
 10467  1DB3  085B               	movf	i1___fladd@a+3,w
 10468  1DB4  00DC               	movwf	??i1___fladd
 10469  1DB5  075C               	addwf	??i1___fladd,w
 10470  1DB6  00DD               	movwf	??i1___fladd+1
 10471  1DB7  085D               	movf	??i1___fladd+1,w
 10472  1DB8  00E5               	movwf	i1___fladd@aexp
 10473  1DB9                     i1l3170:
 10474  1DB9  1FDA               	btfss	i1___fladd@a+2,7
 10475  1DBA  2DBC               	goto	u483_21
 10476  1DBB  2DBD               	goto	u483_20
 10477  1DBC                     u483_21:
 10478  1DBC  2DBE               	goto	i1l3174
 10479  1DBD                     u483_20:
 10480  1DBD                     i1l3172:
 10481  1DBD  1465               	bsf	i1___fladd@aexp,0
 10482  1DBE                     i1l3174:
 10483  1DBE  0865               	movf	i1___fladd@aexp,w
 10484  1DBF  1903               	btfsc	3,2
 10485  1DC0  2DC2               	goto	u484_21
 10486  1DC1  2DC3               	goto	u484_20
 10487  1DC2                     u484_21:
 10488  1DC2  2DD3               	goto	i1l3184
 10489  1DC3                     u484_20:
 10490  1DC3                     i1l3176:
 10491  1DC3  0A65               	incf	i1___fladd@aexp,w
 10492  1DC4  1D03               	btfss	3,2
 10493  1DC5  2DC7               	goto	u485_21
 10494  1DC6  2DC8               	goto	u485_20
 10495  1DC7                     u485_21:
 10496  1DC7  2DD0               	goto	i1l3180
 10497  1DC8                     u485_20:
 10498  1DC8                     i1l3178:
 10499  1DC8  3000               	movlw	0
 10500  1DC9  00DB               	movwf	i1___fladd@a+3
 10501  1DCA  3000               	movlw	0
 10502  1DCB  00DA               	movwf	i1___fladd@a+2
 10503  1DCC  3000               	movlw	0
 10504  1DCD  00D9               	movwf	i1___fladd@a+1
 10505  1DCE  3000               	movlw	0
 10506  1DCF  00D8               	movwf	i1___fladd@a
 10507  1DD0                     i1l3180:
 10508  1DD0  17DA               	bsf	i1___fladd@a+2,7
 10509  1DD1                     i1l3182:
 10510  1DD1  01DB               	clrf	i1___fladd@a+3
 10511  1DD2  2DDB               	goto	i1l637
 10512  1DD3                     i1l3184:
 10513  1DD3  3000               	movlw	0
 10514  1DD4  00DB               	movwf	i1___fladd@a+3
 10515  1DD5  3000               	movlw	0
 10516  1DD6  00DA               	movwf	i1___fladd@a+2
 10517  1DD7  3000               	movlw	0
 10518  1DD8  00D9               	movwf	i1___fladd@a+1
 10519  1DD9  3000               	movlw	0
 10520  1DDA  00D8               	movwf	i1___fladd@a
 10521  1DDB                     i1l637:
 10522  1DDB  0866               	movf	i1___fladd@bexp,w
 10523  1DDC  0265               	subwf	i1___fladd@aexp,w
 10524  1DDD  1803               	skipnc
 10525  1DDE  2DE0               	goto	u486_21
 10526  1DDF  2DE1               	goto	u486_20
 10527  1DE0                     u486_21:
 10528  1DE0  2E25               	goto	i1l3220
 10529  1DE1                     u486_20:
 10530  1DE1                     i1l3186:
 10531  1DE1  1F64               	btfss	i1___fladd@signs,6
 10532  1DE2  2DE4               	goto	u487_21
 10533  1DE3  2DE5               	goto	u487_20
 10534  1DE4                     u487_21:
 10535  1DE4  2DE9               	goto	i1l3190
 10536  1DE5                     u487_20:
 10537  1DE5                     i1l3188:
 10538  1DE5  3080               	movlw	128
 10539  1DE6  00DC               	movwf	??i1___fladd
 10540  1DE7  085C               	movf	??i1___fladd,w
 10541  1DE8  06E4               	xorwf	i1___fladd@signs,f
 10542  1DE9                     i1l3190:
 10543  1DE9  0866               	movf	i1___fladd@bexp,w
 10544  1DEA  00DC               	movwf	??i1___fladd
 10545  1DEB  085C               	movf	??i1___fladd,w
 10546  1DEC  00E7               	movwf	i1___fladd@grs
 10547  1DED                     i1l3192:
 10548  1DED  0865               	movf	i1___fladd@aexp,w
 10549  1DEE  00DC               	movwf	??i1___fladd
 10550  1DEF  085C               	movf	??i1___fladd,w
 10551  1DF0  00E6               	movwf	i1___fladd@bexp
 10552  1DF1                     i1l3194:
 10553  1DF1  0867               	movf	i1___fladd@grs,w
 10554  1DF2  00DC               	movwf	??i1___fladd
 10555  1DF3  085C               	movf	??i1___fladd,w
 10556  1DF4  00E5               	movwf	i1___fladd@aexp
 10557  1DF5                     i1l3196:
 10558  1DF5  0854               	movf	i1___fladd@b,w
 10559  1DF6  00DC               	movwf	??i1___fladd
 10560  1DF7  085C               	movf	??i1___fladd,w
 10561  1DF8  00E7               	movwf	i1___fladd@grs
 10562  1DF9                     i1l3198:
 10563  1DF9  0858               	movf	i1___fladd@a,w
 10564  1DFA  00DC               	movwf	??i1___fladd
 10565  1DFB  085C               	movf	??i1___fladd,w
 10566  1DFC  00D4               	movwf	i1___fladd@b
 10567  1DFD                     i1l3200:
 10568  1DFD  0867               	movf	i1___fladd@grs,w
 10569  1DFE  00DC               	movwf	??i1___fladd
 10570  1DFF  085C               	movf	??i1___fladd,w
 10571  1E00  00D8               	movwf	i1___fladd@a
 10572  1E01                     i1l3202:
 10573  1E01  0855               	movf	i1___fladd@b+1,w
 10574  1E02  00DC               	movwf	??i1___fladd
 10575  1E03  085C               	movf	??i1___fladd,w
 10576  1E04  00E7               	movwf	i1___fladd@grs
 10577  1E05                     i1l3204:
 10578  1E05  0859               	movf	i1___fladd@a+1,w
 10579  1E06  00DC               	movwf	??i1___fladd
 10580  1E07  085C               	movf	??i1___fladd,w
 10581  1E08  00D5               	movwf	i1___fladd@b+1
 10582  1E09                     i1l3206:
 10583  1E09  0867               	movf	i1___fladd@grs,w
 10584  1E0A  00DC               	movwf	??i1___fladd
 10585  1E0B  085C               	movf	??i1___fladd,w
 10586  1E0C  00D9               	movwf	i1___fladd@a+1
 10587  1E0D                     i1l3208:
 10588  1E0D  0856               	movf	i1___fladd@b+2,w
 10589  1E0E  00DC               	movwf	??i1___fladd
 10590  1E0F  085C               	movf	??i1___fladd,w
 10591  1E10  00E7               	movwf	i1___fladd@grs
 10592  1E11                     i1l3210:
 10593  1E11  085A               	movf	i1___fladd@a+2,w
 10594  1E12  00DC               	movwf	??i1___fladd
 10595  1E13  085C               	movf	??i1___fladd,w
 10596  1E14  00D6               	movwf	i1___fladd@b+2
 10597  1E15                     i1l3212:
 10598  1E15  0867               	movf	i1___fladd@grs,w
 10599  1E16  00DC               	movwf	??i1___fladd
 10600  1E17  085C               	movf	??i1___fladd,w
 10601  1E18  00DA               	movwf	i1___fladd@a+2
 10602  1E19                     i1l3214:
 10603  1E19  0857               	movf	i1___fladd@b+3,w
 10604  1E1A  00DC               	movwf	??i1___fladd
 10605  1E1B  085C               	movf	??i1___fladd,w
 10606  1E1C  00E7               	movwf	i1___fladd@grs
 10607  1E1D                     i1l3216:
 10608  1E1D  085B               	movf	i1___fladd@a+3,w
 10609  1E1E  00DC               	movwf	??i1___fladd
 10610  1E1F  085C               	movf	??i1___fladd,w
 10611  1E20  00D7               	movwf	i1___fladd@b+3
 10612  1E21                     i1l3218:
 10613  1E21  0867               	movf	i1___fladd@grs,w
 10614  1E22  00DC               	movwf	??i1___fladd
 10615  1E23  085C               	movf	??i1___fladd,w
 10616  1E24  00DB               	movwf	i1___fladd@a+3
 10617  1E25                     i1l3220:
 10618  1E25  01E7               	clrf	i1___fladd@grs
 10619  1E26                     i1l3222:
 10620  1E26  0865               	movf	i1___fladd@aexp,w
 10621  1E27  00DC               	movwf	??i1___fladd
 10622  1E28  01DD               	clrf	??i1___fladd+1
 10623  1E29  085D               	movf	??i1___fladd+1,w
 10624  1E2A  00DF               	movwf	??i1___fladd+3
 10625  1E2B  0866               	movf	i1___fladd@bexp,w
 10626  1E2C  025C               	subwf	??i1___fladd,w
 10627  1E2D  00DE               	movwf	??i1___fladd+2
 10628  1E2E  1C03               	skipc
 10629  1E2F  03DF               	decf	??i1___fladd+3,f
 10630  1E30  085F               	movf	??i1___fladd+3,w
 10631  1E31  3A80               	xorlw	128
 10632  1E32  00FF               	movwf	btemp+1
 10633  1E33  3080               	movlw	128
 10634  1E34  027F               	subwf	btemp+1,w
 10635  1E35  1D03               	skipz
 10636  1E36  2E39               	goto	u488_25
 10637  1E37  301A               	movlw	26
 10638  1E38  025E               	subwf	??i1___fladd+2,w
 10639  1E39                     u488_25:
 10640  1E39  1C03               	skipc
 10641  1E3A  2E3C               	goto	u488_21
 10642  1E3B  2E3D               	goto	u488_20
 10643  1E3C                     u488_21:
 10644  1E3C  2E7A               	goto	i1l3238
 10645  1E3D                     u488_20:
 10646  1E3D                     i1l3224:
 10647  1E3D  1283               	bcf	3,5	;RP0=0, select bank0
 10648  1E3E  1303               	bcf	3,6	;RP1=0, select bank0
 10649  1E3F  0857               	movf	i1___fladd@b+3,w
 10650  1E40  0456               	iorwf	i1___fladd@b+2,w
 10651  1E41  0455               	iorwf	i1___fladd@b+1,w
 10652  1E42  0454               	iorwf	i1___fladd@b,w
 10653  1E43  1D03               	skipz
 10654  1E44  2E46               	goto	u489_21
 10655  1E45  2E48               	goto	u489_20
 10656  1E46                     u489_21:
 10657  1E46  3001               	movlw	1
 10658  1E47  2E49               	goto	u490_20
 10659  1E48                     u489_20:
 10660  1E48  3000               	movlw	0
 10661  1E49                     u490_20:
 10662  1E49  00DC               	movwf	??i1___fladd
 10663  1E4A  085C               	movf	??i1___fladd,w
 10664  1E4B  00E7               	movwf	i1___fladd@grs
 10665  1E4C  3000               	movlw	0
 10666  1E4D  00D7               	movwf	i1___fladd@b+3
 10667  1E4E  3000               	movlw	0
 10668  1E4F  00D6               	movwf	i1___fladd@b+2
 10669  1E50  3000               	movlw	0
 10670  1E51  00D5               	movwf	i1___fladd@b+1
 10671  1E52  3000               	movlw	0
 10672  1E53  00D4               	movwf	i1___fladd@b
 10673  1E54  0865               	movf	i1___fladd@aexp,w
 10674  1E55  00DC               	movwf	??i1___fladd
 10675  1E56  085C               	movf	??i1___fladd,w
 10676  1E57  00E6               	movwf	i1___fladd@bexp
 10677  1E58  2E82               	goto	i1l641
 10678  1E59                     i1l643:
 10679  1E59  1C67               	btfss	i1___fladd@grs,0
 10680  1E5A  2E5C               	goto	u491_21
 10681  1E5B  2E5D               	goto	u491_20
 10682  1E5C                     u491_21:
 10683  1E5C  2E66               	goto	i1l3228
 10684  1E5D                     u491_20:
 10685  1E5D                     i1l3226:
 10686  1E5D  0867               	movf	i1___fladd@grs,w
 10687  1E5E  00DC               	movwf	??i1___fladd
 10688  1E5F  1003               	clrc
 10689  1E60  0C5C               	rrf	??i1___fladd,w
 10690  1E61  3801               	iorlw	1
 10691  1E62  00DD               	movwf	??i1___fladd+1
 10692  1E63  085D               	movf	??i1___fladd+1,w
 10693  1E64  00E7               	movwf	i1___fladd@grs
 10694  1E65  2E68               	goto	i1l3230
 10695  1E66                     i1l3228:
 10696  1E66  1003               	clrc
 10697  1E67  0CE7               	rrf	i1___fladd@grs,f
 10698  1E68                     i1l3230:
 10699  1E68  1C54               	btfss	i1___fladd@b,0
 10700  1E69  2E6B               	goto	u492_21
 10701  1E6A  2E6C               	goto	u492_20
 10702  1E6B                     u492_21:
 10703  1E6B  2E6D               	goto	i1l3234
 10704  1E6C                     u492_20:
 10705  1E6C                     i1l3232:
 10706  1E6C  17E7               	bsf	i1___fladd@grs,7
 10707  1E6D                     i1l3234:
 10708  1E6D  3001               	movlw	1
 10709  1E6E  00DC               	movwf	??i1___fladd
 10710  1E6F                     u493_25:
 10711  1E6F  0D57               	rlf	i1___fladd@b+3,w
 10712  1E70  0CD7               	rrf	i1___fladd@b+3,f
 10713  1E71  0CD6               	rrf	i1___fladd@b+2,f
 10714  1E72  0CD5               	rrf	i1___fladd@b+1,f
 10715  1E73  0CD4               	rrf	i1___fladd@b,f
 10716  1E74  0BDC               	decfsz	??i1___fladd& (0+127),f
 10717  1E75  2E6F               	goto	u493_25
 10718  1E76                     i1l3236:
 10719  1E76  3001               	movlw	1
 10720  1E77  00DC               	movwf	??i1___fladd
 10721  1E78  085C               	movf	??i1___fladd,w
 10722  1E79  07E6               	addwf	i1___fladd@bexp,f
 10723  1E7A                     i1l3238:
 10724  1E7A  1283               	bcf	3,5	;RP0=0, select bank0
 10725  1E7B  1303               	bcf	3,6	;RP1=0, select bank0
 10726  1E7C  0865               	movf	i1___fladd@aexp,w
 10727  1E7D  0266               	subwf	i1___fladd@bexp,w
 10728  1E7E  1C03               	skipc
 10729  1E7F  2E81               	goto	u494_21
 10730  1E80  2E82               	goto	u494_20
 10731  1E81                     u494_21:
 10732  1E81  2E59               	goto	i1l643
 10733  1E82                     u494_20:
 10734  1E82                     i1l641:
 10735  1E82  1B64               	btfsc	i1___fladd@signs,6
 10736  1E83  2E85               	goto	u495_21
 10737  1E84  2E86               	goto	u495_20
 10738  1E85                     u495_21:
 10739  1E85  2ED1               	goto	i1l3264
 10740  1E86                     u495_20:
 10741  1E86                     i1l3240:
 10742  1E86  0866               	movf	i1___fladd@bexp,w
 10743  1E87  1D03               	btfss	3,2
 10744  1E88  2E8A               	goto	u496_21
 10745  1E89  2E8B               	goto	u496_20
 10746  1E8A                     u496_21:
 10747  1E8A  2E94               	goto	i1l3246
 10748  1E8B                     u496_20:
 10749  1E8B                     i1l3242:
 10750  1E8B  3000               	movlw	0
 10751  1E8C  00D7               	movwf	?i1___fladd+3
 10752  1E8D  3000               	movlw	0
 10753  1E8E  00D6               	movwf	?i1___fladd+2
 10754  1E8F  3000               	movlw	0
 10755  1E90  00D5               	movwf	?i1___fladd+1
 10756  1E91  3000               	movlw	0
 10757  1E92  00D4               	movwf	?i1___fladd
 10758  1E93  2FFF               	goto	i1l650
 10759  1E94                     i1l3246:
 10760  1E94  0858               	movf	i1___fladd@a,w
 10761  1E95  07D4               	addwf	i1___fladd@b,f
 10762  1E96  0859               	movf	i1___fladd@a+1,w
 10763  1E97  1103               	clrz
 10764  1E98  1803               	skipnc
 10765  1E99  3E01               	addlw	1
 10766  1E9A  1903               	skipnz
 10767  1E9B  2E9D               	goto	u497_21
 10768  1E9C  07D5               	addwf	i1___fladd@b+1,f
 10769  1E9D                     u497_21:
 10770  1E9D  085A               	movf	i1___fladd@a+2,w
 10771  1E9E  1103               	clrz
 10772  1E9F  1803               	skipnc
 10773  1EA0  3E01               	addlw	1
 10774  1EA1  1903               	skipnz
 10775  1EA2  2EA4               	goto	u497_22
 10776  1EA3  07D6               	addwf	i1___fladd@b+2,f
 10777  1EA4                     u497_22:
 10778  1EA4  085B               	movf	i1___fladd@a+3,w
 10779  1EA5  1103               	clrz
 10780  1EA6  1803               	skipnc
 10781  1EA7  3E01               	addlw	1
 10782  1EA8  1903               	skipnz
 10783  1EA9  2EAB               	goto	u497_23
 10784  1EAA  07D7               	addwf	i1___fladd@b+3,f
 10785  1EAB                     u497_23:
 10786  1EAB                     i1l3248:
 10787  1EAB  1C57               	btfss	i1___fladd@b+3,0
 10788  1EAC  2EAE               	goto	u498_21
 10789  1EAD  2EAF               	goto	u498_20
 10790  1EAE                     u498_21:
 10791  1EAE  2F85               	goto	i1l3298
 10792  1EAF                     u498_20:
 10793  1EAF                     i1l3250:
 10794  1EAF  1C67               	btfss	i1___fladd@grs,0
 10795  1EB0  2EB2               	goto	u499_21
 10796  1EB1  2EB3               	goto	u499_20
 10797  1EB2                     u499_21:
 10798  1EB2  2EBC               	goto	i1l3254
 10799  1EB3                     u499_20:
 10800  1EB3                     i1l3252:
 10801  1EB3  0867               	movf	i1___fladd@grs,w
 10802  1EB4  00DC               	movwf	??i1___fladd
 10803  1EB5  1003               	clrc
 10804  1EB6  0C5C               	rrf	??i1___fladd,w
 10805  1EB7  3801               	iorlw	1
 10806  1EB8  00DD               	movwf	??i1___fladd+1
 10807  1EB9  085D               	movf	??i1___fladd+1,w
 10808  1EBA  00E7               	movwf	i1___fladd@grs
 10809  1EBB  2EBE               	goto	i1l3256
 10810  1EBC                     i1l3254:
 10811  1EBC  1003               	clrc
 10812  1EBD  0CE7               	rrf	i1___fladd@grs,f
 10813  1EBE                     i1l3256:
 10814  1EBE  1C54               	btfss	i1___fladd@b,0
 10815  1EBF  2EC1               	goto	u500_21
 10816  1EC0  2EC2               	goto	u500_20
 10817  1EC1                     u500_21:
 10818  1EC1  2EC3               	goto	i1l3260
 10819  1EC2                     u500_20:
 10820  1EC2                     i1l3258:
 10821  1EC2  17E7               	bsf	i1___fladd@grs,7
 10822  1EC3                     i1l3260:
 10823  1EC3  3001               	movlw	1
 10824  1EC4  00DC               	movwf	??i1___fladd
 10825  1EC5                     u501_25:
 10826  1EC5  0D57               	rlf	i1___fladd@b+3,w
 10827  1EC6  0CD7               	rrf	i1___fladd@b+3,f
 10828  1EC7  0CD6               	rrf	i1___fladd@b+2,f
 10829  1EC8  0CD5               	rrf	i1___fladd@b+1,f
 10830  1EC9  0CD4               	rrf	i1___fladd@b,f
 10831  1ECA  0BDC               	decfsz	??i1___fladd& (0+127),f
 10832  1ECB  2EC5               	goto	u501_25
 10833  1ECC                     i1l3262:
 10834  1ECC  3001               	movlw	1
 10835  1ECD  00DC               	movwf	??i1___fladd
 10836  1ECE  085C               	movf	??i1___fladd,w
 10837  1ECF  07E6               	addwf	i1___fladd@bexp,f
 10838  1ED0  2F85               	goto	i1l3298
 10839  1ED1                     i1l3264:
 10840  1ED1  0857               	movf	i1___fladd@b+3,w
 10841  1ED2  3A80               	xorlw	128
 10842  1ED3  00FF               	movwf	btemp+1
 10843  1ED4  085B               	movf	i1___fladd@a+3,w
 10844  1ED5  3A80               	xorlw	128
 10845  1ED6  027F               	subwf	btemp+1,w
 10846  1ED7  1D03               	skipz
 10847  1ED8  2EE3               	goto	u502_23
 10848  1ED9  085A               	movf	i1___fladd@a+2,w
 10849  1EDA  0256               	subwf	i1___fladd@b+2,w
 10850  1EDB  1D03               	skipz
 10851  1EDC  2EE3               	goto	u502_23
 10852  1EDD  0859               	movf	i1___fladd@a+1,w
 10853  1EDE  0255               	subwf	i1___fladd@b+1,w
 10854  1EDF  1D03               	skipz
 10855  1EE0  2EE3               	goto	u502_23
 10856  1EE1  0858               	movf	i1___fladd@a,w
 10857  1EE2  0254               	subwf	i1___fladd@b,w
 10858  1EE3                     u502_23:
 10859  1EE3  1803               	skipnc
 10860  1EE4  2EE6               	goto	u502_21
 10861  1EE5  2EE7               	goto	u502_20
 10862  1EE6                     u502_21:
 10863  1EE6  2F3F               	goto	i1l3274
 10864  1EE7                     u502_20:
 10865  1EE7                     i1l3266:
 10866  1EE7  30FF               	movlw	255
 10867  1EE8  00DC               	movwf	??i1___fladd
 10868  1EE9  30FF               	movlw	255
 10869  1EEA  00DD               	movwf	??i1___fladd+1
 10870  1EEB  30FF               	movlw	255
 10871  1EEC  00DE               	movwf	??i1___fladd+2
 10872  1EED  30FF               	movlw	255
 10873  1EEE  00DF               	movwf	??i1___fladd+3
 10874  1EEF  0858               	movf	i1___fladd@a,w
 10875  1EF0  00E0               	movwf	??i1___fladd+4
 10876  1EF1  0859               	movf	i1___fladd@a+1,w
 10877  1EF2  00E1               	movwf	??i1___fladd+5
 10878  1EF3  085A               	movf	i1___fladd@a+2,w
 10879  1EF4  00E2               	movwf	??i1___fladd+6
 10880  1EF5  085B               	movf	i1___fladd@a+3,w
 10881  1EF6  00E3               	movwf	??i1___fladd+7
 10882  1EF7  0854               	movf	i1___fladd@b,w
 10883  1EF8  02E0               	subwf	??i1___fladd+4,f
 10884  1EF9  0855               	movf	i1___fladd@b+1,w
 10885  1EFA  1C03               	skipc
 10886  1EFB  0F55               	incfsz	i1___fladd@b+1,w
 10887  1EFC  2EFE               	goto	u503_21
 10888  1EFD  2EFF               	goto	u503_22
 10889  1EFE                     u503_21:
 10890  1EFE  02E1               	subwf	??i1___fladd+5,f
 10891  1EFF                     u503_22:
 10892  1EFF  0856               	movf	i1___fladd@b+2,w
 10893  1F00  1C03               	skipc
 10894  1F01  0F56               	incfsz	i1___fladd@b+2,w
 10895  1F02  2F04               	goto	u503_23
 10896  1F03  2F05               	goto	u503_24
 10897  1F04                     u503_23:
 10898  1F04  02E2               	subwf	??i1___fladd+6,f
 10899  1F05                     u503_24:
 10900  1F05  0857               	movf	i1___fladd@b+3,w
 10901  1F06  1C03               	skipc
 10902  1F07  0F57               	incfsz	i1___fladd@b+3,w
 10903  1F08  2F0A               	goto	u503_25
 10904  1F09  2F0B               	goto	u503_26
 10905  1F0A                     u503_25:
 10906  1F0A  02E3               	subwf	??i1___fladd+7,f
 10907  1F0B                     u503_26:
 10908  1F0B  0860               	movf	??i1___fladd+4,w
 10909  1F0C  07DC               	addwf	??i1___fladd,f
 10910  1F0D  0861               	movf	??i1___fladd+5,w
 10911  1F0E  1803               	skipnc
 10912  1F0F  0F61               	incfsz	??i1___fladd+5,w
 10913  1F10  2F12               	goto	u504_20
 10914  1F11  2F13               	goto	u504_21
 10915  1F12                     u504_20:
 10916  1F12  07DD               	addwf	??i1___fladd+1,f
 10917  1F13                     u504_21:
 10918  1F13  0862               	movf	??i1___fladd+6,w
 10919  1F14  1803               	skipnc
 10920  1F15  0F62               	incfsz	??i1___fladd+6,w
 10921  1F16  2F18               	goto	u504_22
 10922  1F17  2F19               	goto	u504_23
 10923  1F18                     u504_22:
 10924  1F18  07DE               	addwf	??i1___fladd+2,f
 10925  1F19                     u504_23:
 10926  1F19  0863               	movf	??i1___fladd+7,w
 10927  1F1A  1803               	skipnc
 10928  1F1B  0A63               	incf	??i1___fladd+7,w
 10929  1F1C  07DF               	addwf	??i1___fladd+3,f
 10930  1F1D  085F               	movf	??i1___fladd+3,w
 10931  1F1E  00D7               	movwf	i1___fladd@b+3
 10932  1F1F  085E               	movf	??i1___fladd+2,w
 10933  1F20  00D6               	movwf	i1___fladd@b+2
 10934  1F21  085D               	movf	??i1___fladd+1,w
 10935  1F22  00D5               	movwf	i1___fladd@b+1
 10936  1F23  085C               	movf	??i1___fladd,w
 10937  1F24  00D4               	movwf	i1___fladd@b
 10938  1F25                     i1l3268:
 10939  1F25  3080               	movlw	128
 10940  1F26  00DC               	movwf	??i1___fladd
 10941  1F27  085C               	movf	??i1___fladd,w
 10942  1F28  06E4               	xorwf	i1___fladd@signs,f
 10943  1F29  09E7               	comf	i1___fladd@grs,f
 10944  1F2A  0AE7               	incf	i1___fladd@grs,f
 10945  1F2B                     i1l3270:
 10946  1F2B  0867               	movf	i1___fladd@grs,w
 10947  1F2C  1D03               	btfss	3,2
 10948  1F2D  2F2F               	goto	u505_21
 10949  1F2E  2F30               	goto	u505_20
 10950  1F2F                     u505_21:
 10951  1F2F  2F4D               	goto	i1l658
 10952  1F30                     u505_20:
 10953  1F30                     i1l3272:
 10954  1F30  3001               	movlw	1
 10955  1F31  07D4               	addwf	i1___fladd@b,f
 10956  1F32  3000               	movlw	0
 10957  1F33  1803               	skipnc
 10958  1F34  3001               	movlw	1
 10959  1F35  07D5               	addwf	i1___fladd@b+1,f
 10960  1F36  3000               	movlw	0
 10961  1F37  1803               	skipnc
 10962  1F38  3001               	movlw	1
 10963  1F39  07D6               	addwf	i1___fladd@b+2,f
 10964  1F3A  3000               	movlw	0
 10965  1F3B  1803               	skipnc
 10966  1F3C  3001               	movlw	1
 10967  1F3D  07D7               	addwf	i1___fladd@b+3,f
 10968  1F3E  2F4D               	goto	i1l658
 10969  1F3F                     i1l3274:
 10970  1F3F  0858               	movf	i1___fladd@a,w
 10971  1F40  02D4               	subwf	i1___fladd@b,f
 10972  1F41  0859               	movf	i1___fladd@a+1,w
 10973  1F42  1C03               	skipc
 10974  1F43  0F59               	incfsz	i1___fladd@a+1,w
 10975  1F44  02D5               	subwf	i1___fladd@b+1,f
 10976  1F45  085A               	movf	i1___fladd@a+2,w
 10977  1F46  1C03               	skipc
 10978  1F47  0F5A               	incfsz	i1___fladd@a+2,w
 10979  1F48  02D6               	subwf	i1___fladd@b+2,f
 10980  1F49  085B               	movf	i1___fladd@a+3,w
 10981  1F4A  1C03               	skipc
 10982  1F4B  0F5B               	incfsz	i1___fladd@a+3,w
 10983  1F4C  02D7               	subwf	i1___fladd@b+3,f
 10984  1F4D                     i1l658:
 10985  1F4D  0857               	movf	i1___fladd@b+3,w
 10986  1F4E  0456               	iorwf	i1___fladd@b+2,w
 10987  1F4F  0455               	iorwf	i1___fladd@b+1,w
 10988  1F50  0454               	iorwf	i1___fladd@b,w
 10989  1F51  1D03               	skipz
 10990  1F52  2F54               	goto	u506_21
 10991  1F53  2F55               	goto	u506_20
 10992  1F54                     u506_21:
 10993  1F54  2F81               	goto	i1l3296
 10994  1F55                     u506_20:
 10995  1F55                     i1l3276:
 10996  1F55  0867               	movf	i1___fladd@grs,w
 10997  1F56  1D03               	btfss	3,2
 10998  1F57  2F59               	goto	u507_21
 10999  1F58  2F5A               	goto	u507_20
 11000  1F59                     u507_21:
 11001  1F59  2F81               	goto	i1l3296
 11002  1F5A                     u507_20:
 11003  1F5A                     i1l3278:
 11004  1F5A  3000               	movlw	0
 11005  1F5B  00D7               	movwf	?i1___fladd+3
 11006  1F5C  3000               	movlw	0
 11007  1F5D  00D6               	movwf	?i1___fladd+2
 11008  1F5E  3000               	movlw	0
 11009  1F5F  00D5               	movwf	?i1___fladd+1
 11010  1F60  3000               	movlw	0
 11011  1F61  00D4               	movwf	?i1___fladd
 11012  1F62  2FFF               	goto	i1l650
 11013  1F63                     i1l3282:
 11014  1F63  3001               	movlw	1
 11015  1F64  00DC               	movwf	??i1___fladd
 11016  1F65                     u508_25:
 11017  1F65  1003               	clrc
 11018  1F66  0DD4               	rlf	i1___fladd@b,f
 11019  1F67  0DD5               	rlf	i1___fladd@b+1,f
 11020  1F68  0DD6               	rlf	i1___fladd@b+2,f
 11021  1F69  0DD7               	rlf	i1___fladd@b+3,f
 11022  1F6A  0BDC               	decfsz	??i1___fladd,f
 11023  1F6B  2F65               	goto	u508_25
 11024  1F6C                     i1l3284:
 11025  1F6C  1FE7               	btfss	i1___fladd@grs,7
 11026  1F6D  2F6F               	goto	u509_21
 11027  1F6E  2F70               	goto	u509_20
 11028  1F6F                     u509_21:
 11029  1F6F  2F71               	goto	i1l662
 11030  1F70                     u509_20:
 11031  1F70                     i1l3286:
 11032  1F70  1454               	bsf	i1___fladd@b,0
 11033  1F71                     i1l662:
 11034  1F71  1C67               	btfss	i1___fladd@grs,0
 11035  1F72  2F74               	goto	u510_21
 11036  1F73  2F75               	goto	u510_20
 11037  1F74                     u510_21:
 11038  1F74  2F78               	goto	i1l3290
 11039  1F75                     u510_20:
 11040  1F75                     i1l3288:
 11041  1F75  1403               	setc
 11042  1F76  0DE7               	rlf	i1___fladd@grs,f
 11043  1F77  2F7A               	goto	i1l3292
 11044  1F78                     i1l3290:
 11045  1F78  1003               	clrc
 11046  1F79  0DE7               	rlf	i1___fladd@grs,f
 11047  1F7A                     i1l3292:
 11048  1F7A  0866               	movf	i1___fladd@bexp,w
 11049  1F7B  1903               	btfsc	3,2
 11050  1F7C  2F7E               	goto	u511_21
 11051  1F7D  2F7F               	goto	u511_20
 11052  1F7E                     u511_21:
 11053  1F7E  2F81               	goto	i1l3296
 11054  1F7F                     u511_20:
 11055  1F7F                     i1l3294:
 11056  1F7F  3001               	movlw	1
 11057  1F80  02E6               	subwf	i1___fladd@bexp,f
 11058  1F81                     i1l3296:
 11059  1F81  1FD6               	btfss	i1___fladd@b+2,7
 11060  1F82  2F84               	goto	u512_21
 11061  1F83  2F85               	goto	u512_20
 11062  1F84                     u512_21:
 11063  1F84  2F63               	goto	i1l3282
 11064  1F85                     u512_20:
 11065  1F85                     i1l3298:
 11066  1F85  01E5               	clrf	i1___fladd@aexp
 11067  1F86                     i1l3300:
 11068  1F86  1FE7               	btfss	i1___fladd@grs,7
 11069  1F87  2F89               	goto	u513_21
 11070  1F88  2F8A               	goto	u513_20
 11071  1F89                     u513_21:
 11072  1F89  2F98               	goto	i1l3308
 11073  1F8A                     u513_20:
 11074  1F8A                     i1l3302:
 11075  1F8A  0867               	movf	i1___fladd@grs,w
 11076  1F8B  397F               	andlw	127
 11077  1F8C  1903               	btfsc	3,2
 11078  1F8D  2F8F               	goto	u514_21
 11079  1F8E  2F90               	goto	u514_20
 11080  1F8F                     u514_21:
 11081  1F8F  2F93               	goto	i1l668
 11082  1F90                     u514_20:
 11083  1F90                     i1l3304:
 11084  1F90  01E5               	clrf	i1___fladd@aexp
 11085  1F91  0AE5               	incf	i1___fladd@aexp,f
 11086  1F92  2F98               	goto	i1l3308
 11087  1F93                     i1l668:
 11088  1F93  1C54               	btfss	i1___fladd@b,0
 11089  1F94  2F96               	goto	u515_21
 11090  1F95  2F97               	goto	u515_20
 11091  1F96                     u515_21:
 11092  1F96  2F98               	goto	i1l3308
 11093  1F97                     u515_20:
 11094  1F97  2F90               	goto	i1l3304
 11095  1F98                     i1l3308:
 11096  1F98  0865               	movf	i1___fladd@aexp,w
 11097  1F99  1903               	btfsc	3,2
 11098  1F9A  2F9C               	goto	u516_21
 11099  1F9B  2F9D               	goto	u516_20
 11100  1F9C                     u516_21:
 11101  1F9C  2FD1               	goto	i1l671
 11102  1F9D                     u516_20:
 11103  1F9D                     i1l3310:
 11104  1F9D  3001               	movlw	1
 11105  1F9E  07D4               	addwf	i1___fladd@b,f
 11106  1F9F  3000               	movlw	0
 11107  1FA0  1803               	skipnc
 11108  1FA1  3001               	movlw	1
 11109  1FA2  07D5               	addwf	i1___fladd@b+1,f
 11110  1FA3  3000               	movlw	0
 11111  1FA4  1803               	skipnc
 11112  1FA5  3001               	movlw	1
 11113  1FA6  07D6               	addwf	i1___fladd@b+2,f
 11114  1FA7  3000               	movlw	0
 11115  1FA8  1803               	skipnc
 11116  1FA9  3001               	movlw	1
 11117  1FAA  07D7               	addwf	i1___fladd@b+3,f
 11118  1FAB                     i1l3312:
 11119  1FAB  1C57               	btfss	i1___fladd@b+3,0
 11120  1FAC  2FAE               	goto	u517_21
 11121  1FAD  2FAF               	goto	u517_20
 11122  1FAE                     u517_21:
 11123  1FAE  2FD1               	goto	i1l671
 11124  1FAF                     u517_20:
 11125  1FAF                     i1l3314:
 11126  1FAF  0854               	movf	i1___fladd@b,w
 11127  1FB0  00DC               	movwf	??i1___fladd
 11128  1FB1  0855               	movf	i1___fladd@b+1,w
 11129  1FB2  00DD               	movwf	??i1___fladd+1
 11130  1FB3  0856               	movf	i1___fladd@b+2,w
 11131  1FB4  00DE               	movwf	??i1___fladd+2
 11132  1FB5  0857               	movf	i1___fladd@b+3,w
 11133  1FB6  00DF               	movwf	??i1___fladd+3
 11134  1FB7  3001               	movlw	1
 11135  1FB8  00E0               	movwf	??i1___fladd+4
 11136  1FB9                     u518_25:
 11137  1FB9  0D5F               	rlf	??i1___fladd+3,w
 11138  1FBA  0CDF               	rrf	??i1___fladd+3,f
 11139  1FBB  0CDE               	rrf	??i1___fladd+2,f
 11140  1FBC  0CDD               	rrf	??i1___fladd+1,f
 11141  1FBD  0CDC               	rrf	??i1___fladd,f
 11142  1FBE                     u518_20:
 11143  1FBE  0BE0               	decfsz	??i1___fladd+4,f
 11144  1FBF  2FB9               	goto	u518_25
 11145  1FC0  085F               	movf	??i1___fladd+3,w
 11146  1FC1  00D7               	movwf	i1___fladd@b+3
 11147  1FC2  085E               	movf	??i1___fladd+2,w
 11148  1FC3  00D6               	movwf	i1___fladd@b+2
 11149  1FC4  085D               	movf	??i1___fladd+1,w
 11150  1FC5  00D5               	movwf	i1___fladd@b+1
 11151  1FC6  085C               	movf	??i1___fladd,w
 11152  1FC7  00D4               	movwf	i1___fladd@b
 11153  1FC8  0A66               	incf	i1___fladd@bexp,w
 11154  1FC9  1903               	btfsc	3,2
 11155  1FCA  2FCC               	goto	u519_21
 11156  1FCB  2FCD               	goto	u519_20
 11157  1FCC                     u519_21:
 11158  1FCC  2FD1               	goto	i1l671
 11159  1FCD                     u519_20:
 11160  1FCD                     i1l3316:
 11161  1FCD  3001               	movlw	1
 11162  1FCE  00DC               	movwf	??i1___fladd
 11163  1FCF  085C               	movf	??i1___fladd,w
 11164  1FD0  07E6               	addwf	i1___fladd@bexp,f
 11165  1FD1                     i1l671:
 11166  1FD1  0A66               	incf	i1___fladd@bexp,w
 11167  1FD2  1903               	btfsc	3,2
 11168  1FD3  2FD5               	goto	u520_21
 11169  1FD4  2FD6               	goto	u520_20
 11170  1FD5                     u520_21:
 11171  1FD5  2FDB               	goto	i1l3320
 11172  1FD6                     u520_20:
 11173  1FD6                     i1l3318:
 11174  1FD6  0866               	movf	i1___fladd@bexp,w
 11175  1FD7  1D03               	btfss	3,2
 11176  1FD8  2FDA               	goto	u521_21
 11177  1FD9  2FDB               	goto	u521_20
 11178  1FDA                     u521_21:
 11179  1FDA  2FE9               	goto	i1l3326
 11180  1FDB                     u521_20:
 11181  1FDB                     i1l3320:
 11182  1FDB  3000               	movlw	0
 11183  1FDC  00D7               	movwf	i1___fladd@b+3
 11184  1FDD  3000               	movlw	0
 11185  1FDE  00D6               	movwf	i1___fladd@b+2
 11186  1FDF  3000               	movlw	0
 11187  1FE0  00D5               	movwf	i1___fladd@b+1
 11188  1FE1  3000               	movlw	0
 11189  1FE2  00D4               	movwf	i1___fladd@b
 11190  1FE3                     i1l3322:
 11191  1FE3  0866               	movf	i1___fladd@bexp,w
 11192  1FE4  1D03               	btfss	3,2
 11193  1FE5  2FE7               	goto	u522_21
 11194  1FE6  2FE8               	goto	u522_20
 11195  1FE7                     u522_21:
 11196  1FE7  2FE9               	goto	i1l3326
 11197  1FE8                     u522_20:
 11198  1FE8                     i1l3324:
 11199  1FE8  01E4               	clrf	i1___fladd@signs
 11200  1FE9                     i1l3326:
 11201  1FE9  1C66               	btfss	i1___fladd@bexp,0
 11202  1FEA  2FEC               	goto	u523_21
 11203  1FEB  2FED               	goto	u523_20
 11204  1FEC                     u523_21:
 11205  1FEC  2FEF               	goto	i1l3330
 11206  1FED                     u523_20:
 11207  1FED                     i1l3328:
 11208  1FED  17D6               	bsf	i1___fladd@b+2,7
 11209  1FEE  2FF3               	goto	i1l679
 11210  1FEF                     i1l3330:
 11211  1FEF  307F               	movlw	127
 11212  1FF0  00DC               	movwf	??i1___fladd
 11213  1FF1  085C               	movf	??i1___fladd,w
 11214  1FF2  05D6               	andwf	i1___fladd@b+2,f
 11215  1FF3                     i1l679:
 11216  1FF3  0866               	movf	i1___fladd@bexp,w
 11217  1FF4  00DC               	movwf	??i1___fladd
 11218  1FF5  1003               	clrc
 11219  1FF6  0C5C               	rrf	??i1___fladd,w
 11220  1FF7  00DD               	movwf	??i1___fladd+1
 11221  1FF8  085D               	movf	??i1___fladd+1,w
 11222  1FF9  00D7               	movwf	i1___fladd@b+3
 11223  1FFA                     i1l3332:
 11224  1FFA  1FE4               	btfss	i1___fladd@signs,7
 11225  1FFB  2FFD               	goto	u524_21
 11226  1FFC  2FFE               	goto	u524_20
 11227  1FFD                     u524_21:
 11228  1FFD  2FFF               	goto	i1l680
 11229  1FFE                     u524_20:
 11230  1FFE                     i1l3334:
 11231  1FFE  17D7               	bsf	i1___fladd@b+3,7
 11232  1FFF                     i1l680:
 11233  1FFF                     i1l650:
 11234  1FFF  0008               	return
 11235  2000                     __end_ofi1___fladd:
 11236                           
 11237                           	psect	text17
 11238  0789                     __ptext17:	
 11239 ;; *************** function _load_data_rb2 *****************
 11240 ;; Defined at:
 11241 ;;		line 477 in file "master_main_dar-alv.c"
 11242 ;; Parameters:    Size  Location     Type
 11243 ;;		None
 11244 ;; Auto vars:     Size  Location     Type
 11245 ;;		None
 11246 ;; Return value:  Size  Location     Type
 11247 ;;                  1    wreg      void 
 11248 ;; Registers used:
 11249 ;;		wreg, status,2, status,0, pclath, cstack
 11250 ;; Tracked objects:
 11251 ;;		On entry : 0/0
 11252 ;;		On exit  : 0/0
 11253 ;;		Unchanged: 0/0
 11254 ;; Data sizes:     COMMON   BANK0   BANK1   BANK3   BANK2
 11255 ;;      Params:         0       0       0       0       0
 11256 ;;      Locals:         0       0       0       0       0
 11257 ;;      Temps:          2       0       0       0       0
 11258 ;;      Totals:         2       0       0       0       0
 11259 ;;Total ram usage:        2 bytes
 11260 ;; Hardware stack levels used: 1
 11261 ;; Hardware stack levels required when called: 1
 11262 ;; This function calls:
 11263 ;;		_EEPROM_write
 11264 ;; This function is called by:
 11265 ;;		_isr
 11266 ;; This function uses a non-reentrant model
 11267 ;;
 11268                           
 11269  0789                     _load_data_rb2:	
 11270                           ;psect for function _load_data_rb2
 11271                           
 11272  0789                     i1l3674:	
 11273                           ;incstack = 0
 11274                           ; Regs used in _load_data_rb2: [wreg+status,2+status,0+pclath+cstack]
 11275                           
 11276                           
 11277                           ;master_main_dar-alv.c: 478:     EEPROM_write(0x04, pot1_in);
 11278  0789  1683               	bsf	3,5	;RP0=1, select bank1
 11279  078A  1303               	bcf	3,6	;RP1=0, select bank1
 11280  078B  0859               	movf	_pot1_in^(0+128),w
 11281  078C  00F2               	movwf	??_load_data_rb2
 11282  078D  0872               	movf	??_load_data_rb2,w
 11283  078E  00F0               	movwf	EEPROM_write@data
 11284  078F  3004               	movlw	4
 11285  0790  120A  118A  27DE  120A  118A  	fcall	_EEPROM_write
 11286  0795                     i1l3676:
 11287                           
 11288                           ;master_main_dar-alv.c: 479:     _delay((unsigned long)((250)*(500000/4000.0)));
 11289  0795  3029               	movlw	41
 11290  0796  00F3               	movwf	??_load_data_rb2+1
 11291  0797  3094               	movlw	148
 11292  0798  00F2               	movwf	??_load_data_rb2
 11293  0799                     u765_27:
 11294  0799  0BF2               	decfsz	??_load_data_rb2,f
 11295  079A  2F99               	goto	u765_27
 11296  079B  0BF3               	decfsz	??_load_data_rb2+1,f
 11297  079C  2F99               	goto	u765_27
 11298  079D  0000               	nop
 11299  079E                     i1l3678:
 11300                           
 11301                           ;master_main_dar-alv.c: 480:     EEPROM_write(0x05, pot2_in);
 11302  079E  1683               	bsf	3,5	;RP0=1, select bank1
 11303  079F  1303               	bcf	3,6	;RP1=0, select bank1
 11304  07A0  0858               	movf	_pot2_in^(0+128),w
 11305  07A1  00F2               	movwf	??_load_data_rb2
 11306  07A2  0872               	movf	??_load_data_rb2,w
 11307  07A3  00F0               	movwf	EEPROM_write@data
 11308  07A4  3005               	movlw	5
 11309  07A5  120A  118A  27DE  120A  118A  	fcall	_EEPROM_write
 11310                           
 11311                           ;master_main_dar-alv.c: 481:     _delay((unsigned long)((250)*(500000/4000.0)));
 11312  07AA  3029               	movlw	41
 11313  07AB  00F3               	movwf	??_load_data_rb2+1
 11314  07AC  3094               	movlw	148
 11315  07AD  00F2               	movwf	??_load_data_rb2
 11316  07AE                     u766_27:
 11317  07AE  0BF2               	decfsz	??_load_data_rb2,f
 11318  07AF  2FAE               	goto	u766_27
 11319  07B0  0BF3               	decfsz	??_load_data_rb2+1,f
 11320  07B1  2FAE               	goto	u766_27
 11321  07B2  0000               	nop
 11322  07B3                     i1l3680:
 11323                           
 11324                           ;master_main_dar-alv.c: 482:     EEPROM_write(0x06, pot3_in);
 11325  07B3  1683               	bsf	3,5	;RP0=1, select bank1
 11326  07B4  1303               	bcf	3,6	;RP1=0, select bank1
 11327  07B5  0857               	movf	_pot3_in^(0+128),w
 11328  07B6  00F2               	movwf	??_load_data_rb2
 11329  07B7  0872               	movf	??_load_data_rb2,w
 11330  07B8  00F0               	movwf	EEPROM_write@data
 11331  07B9  3006               	movlw	6
 11332  07BA  120A  118A  27DE  120A  118A  	fcall	_EEPROM_write
 11333  07BF                     i1l3682:
 11334                           
 11335                           ;master_main_dar-alv.c: 483:     _delay((unsigned long)((250)*(500000/4000.0)));
 11336  07BF  3029               	movlw	41
 11337  07C0  00F3               	movwf	??_load_data_rb2+1
 11338  07C1  3094               	movlw	148
 11339  07C2  00F2               	movwf	??_load_data_rb2
 11340  07C3                     u767_27:
 11341  07C3  0BF2               	decfsz	??_load_data_rb2,f
 11342  07C4  2FC3               	goto	u767_27
 11343  07C5  0BF3               	decfsz	??_load_data_rb2+1,f
 11344  07C6  2FC3               	goto	u767_27
 11345  07C7  0000               	nop
 11346                           
 11347                           ;master_main_dar-alv.c: 484:     EEPROM_write(0x07, pot4_in);
 11348  07C8  1683               	bsf	3,5	;RP0=1, select bank1
 11349  07C9  1303               	bcf	3,6	;RP1=0, select bank1
 11350  07CA  0856               	movf	_pot4_in^(0+128),w
 11351  07CB  00F2               	movwf	??_load_data_rb2
 11352  07CC  0872               	movf	??_load_data_rb2,w
 11353  07CD  00F0               	movwf	EEPROM_write@data
 11354  07CE  3007               	movlw	7
 11355  07CF  120A  118A  27DE  120A  118A  	fcall	_EEPROM_write
 11356  07D4                     i1l3684:
 11357                           
 11358                           ;master_main_dar-alv.c: 485:     _delay((unsigned long)((250)*(500000/4000.0)));
 11359  07D4  3029               	movlw	41
 11360  07D5  00F3               	movwf	??_load_data_rb2+1
 11361  07D6  3094               	movlw	148
 11362  07D7  00F2               	movwf	??_load_data_rb2
 11363  07D8                     u768_27:
 11364  07D8  0BF2               	decfsz	??_load_data_rb2,f
 11365  07D9  2FD8               	goto	u768_27
 11366  07DA  0BF3               	decfsz	??_load_data_rb2+1,f
 11367  07DB  2FD8               	goto	u768_27
 11368  07DC  0000               	nop
 11369  07DD                     i1l258:
 11370  07DD  0008               	return
 11371  07DE                     __end_of_load_data_rb2:
 11372                           
 11373                           	psect	text18
 11374  18D2                     __ptext18:	
 11375 ;; *************** function _load_data_rb1 *****************
 11376 ;; Defined at:
 11377 ;;		line 466 in file "master_main_dar-alv.c"
 11378 ;; Parameters:    Size  Location     Type
 11379 ;;		None
 11380 ;; Auto vars:     Size  Location     Type
 11381 ;;		None
 11382 ;; Return value:  Size  Location     Type
 11383 ;;                  1    wreg      void 
 11384 ;; Registers used:
 11385 ;;		wreg, status,2, status,0, pclath, cstack
 11386 ;; Tracked objects:
 11387 ;;		On entry : 0/0
 11388 ;;		On exit  : 0/0
 11389 ;;		Unchanged: 0/0
 11390 ;; Data sizes:     COMMON   BANK0   BANK1   BANK3   BANK2
 11391 ;;      Params:         0       0       0       0       0
 11392 ;;      Locals:         0       0       0       0       0
 11393 ;;      Temps:          2       0       0       0       0
 11394 ;;      Totals:         2       0       0       0       0
 11395 ;;Total ram usage:        2 bytes
 11396 ;; Hardware stack levels used: 1
 11397 ;; Hardware stack levels required when called: 1
 11398 ;; This function calls:
 11399 ;;		_EEPROM_write
 11400 ;; This function is called by:
 11401 ;;		_isr
 11402 ;; This function uses a non-reentrant model
 11403 ;;
 11404                           
 11405  18D2                     _load_data_rb1:	
 11406                           ;psect for function _load_data_rb1
 11407                           
 11408  18D2                     i1l3662:	
 11409                           ;incstack = 0
 11410                           ; Regs used in _load_data_rb1: [wreg+status,2+status,0+pclath+cstack]
 11411                           
 11412                           
 11413                           ;master_main_dar-alv.c: 467:     EEPROM_write(0x00, pot1_in);
 11414  18D2  1683               	bsf	3,5	;RP0=1, select bank1
 11415  18D3  1303               	bcf	3,6	;RP1=0, select bank1
 11416  18D4  0859               	movf	_pot1_in^(0+128),w
 11417  18D5  00F2               	movwf	??_load_data_rb1
 11418  18D6  0872               	movf	??_load_data_rb1,w
 11419  18D7  00F0               	movwf	EEPROM_write@data
 11420  18D8  3000               	movlw	0
 11421  18D9  120A  118A  27DE  160A  158A  	fcall	_EEPROM_write
 11422  18DE                     i1l3664:
 11423                           
 11424                           ;master_main_dar-alv.c: 468:     _delay((unsigned long)((250)*(500000/4000.0)));
 11425  18DE  3029               	movlw	41
 11426  18DF  00F3               	movwf	??_load_data_rb1+1
 11427  18E0  3094               	movlw	148
 11428  18E1  00F2               	movwf	??_load_data_rb1
 11429  18E2                     u769_27:
 11430  18E2  0BF2               	decfsz	??_load_data_rb1,f
 11431  18E3  28E2               	goto	u769_27
 11432  18E4  0BF3               	decfsz	??_load_data_rb1+1,f
 11433  18E5  28E2               	goto	u769_27
 11434  18E6  0000               	nop
 11435  18E7                     i1l3666:
 11436                           
 11437                           ;master_main_dar-alv.c: 469:     EEPROM_write(0x01, pot2_in);
 11438  18E7  1683               	bsf	3,5	;RP0=1, select bank1
 11439  18E8  1303               	bcf	3,6	;RP1=0, select bank1
 11440  18E9  0858               	movf	_pot2_in^(0+128),w
 11441  18EA  00F2               	movwf	??_load_data_rb1
 11442  18EB  0872               	movf	??_load_data_rb1,w
 11443  18EC  00F0               	movwf	EEPROM_write@data
 11444  18ED  3001               	movlw	1
 11445  18EE  120A  118A  27DE  160A  158A  	fcall	_EEPROM_write
 11446                           
 11447                           ;master_main_dar-alv.c: 470:     _delay((unsigned long)((250)*(500000/4000.0)));
 11448  18F3  3029               	movlw	41
 11449  18F4  00F3               	movwf	??_load_data_rb1+1
 11450  18F5  3094               	movlw	148
 11451  18F6  00F2               	movwf	??_load_data_rb1
 11452  18F7                     u770_27:
 11453  18F7  0BF2               	decfsz	??_load_data_rb1,f
 11454  18F8  28F7               	goto	u770_27
 11455  18F9  0BF3               	decfsz	??_load_data_rb1+1,f
 11456  18FA  28F7               	goto	u770_27
 11457  18FB  0000               	nop
 11458  18FC                     i1l3668:
 11459                           
 11460                           ;master_main_dar-alv.c: 471:     EEPROM_write(0x02, pot3_in);
 11461  18FC  1683               	bsf	3,5	;RP0=1, select bank1
 11462  18FD  1303               	bcf	3,6	;RP1=0, select bank1
 11463  18FE  0857               	movf	_pot3_in^(0+128),w
 11464  18FF  00F2               	movwf	??_load_data_rb1
 11465  1900  0872               	movf	??_load_data_rb1,w
 11466  1901  00F0               	movwf	EEPROM_write@data
 11467  1902  3002               	movlw	2
 11468  1903  120A  118A  27DE  160A  158A  	fcall	_EEPROM_write
 11469  1908                     i1l3670:
 11470                           
 11471                           ;master_main_dar-alv.c: 472:     _delay((unsigned long)((250)*(500000/4000.0)));
 11472  1908  3029               	movlw	41
 11473  1909  00F3               	movwf	??_load_data_rb1+1
 11474  190A  3094               	movlw	148
 11475  190B  00F2               	movwf	??_load_data_rb1
 11476  190C                     u771_27:
 11477  190C  0BF2               	decfsz	??_load_data_rb1,f
 11478  190D  290C               	goto	u771_27
 11479  190E  0BF3               	decfsz	??_load_data_rb1+1,f
 11480  190F  290C               	goto	u771_27
 11481  1910  0000               	nop
 11482                           
 11483                           ;master_main_dar-alv.c: 473:     EEPROM_write(0x03, pot4_in);
 11484  1911  1683               	bsf	3,5	;RP0=1, select bank1
 11485  1912  1303               	bcf	3,6	;RP1=0, select bank1
 11486  1913  0856               	movf	_pot4_in^(0+128),w
 11487  1914  00F2               	movwf	??_load_data_rb1
 11488  1915  0872               	movf	??_load_data_rb1,w
 11489  1916  00F0               	movwf	EEPROM_write@data
 11490  1917  3003               	movlw	3
 11491  1918  120A  118A  27DE  160A  158A  	fcall	_EEPROM_write
 11492  191D                     i1l3672:
 11493                           
 11494                           ;master_main_dar-alv.c: 474:     _delay((unsigned long)((250)*(500000/4000.0)));
 11495  191D  3029               	movlw	41
 11496  191E  00F3               	movwf	??_load_data_rb1+1
 11497  191F  3094               	movlw	148
 11498  1920  00F2               	movwf	??_load_data_rb1
 11499  1921                     u772_27:
 11500  1921  0BF2               	decfsz	??_load_data_rb1,f
 11501  1922  2921               	goto	u772_27
 11502  1923  0BF3               	decfsz	??_load_data_rb1+1,f
 11503  1924  2921               	goto	u772_27
 11504  1925  0000               	nop
 11505  1926                     i1l255:
 11506  1926  0008               	return
 11507  1927                     __end_of_load_data_rb1:
 11508                           
 11509                           	psect	text19
 11510  07DE                     __ptext19:	
 11511 ;; *************** function _EEPROM_write *****************
 11512 ;; Defined at:
 11513 ;;		line 449 in file "master_main_dar-alv.c"
 11514 ;; Parameters:    Size  Location     Type
 11515 ;;  adress          1    wreg     unsigned char 
 11516 ;;  data            1    0[COMMON] unsigned char 
 11517 ;; Auto vars:     Size  Location     Type
 11518 ;;  adress          1    1[COMMON] unsigned char 
 11519 ;; Return value:  Size  Location     Type
 11520 ;;                  1    wreg      void 
 11521 ;; Registers used:
 11522 ;;		wreg
 11523 ;; Tracked objects:
 11524 ;;		On entry : 0/0
 11525 ;;		On exit  : 0/0
 11526 ;;		Unchanged: 0/0
 11527 ;; Data sizes:     COMMON   BANK0   BANK1   BANK3   BANK2
 11528 ;;      Params:         1       0       0       0       0
 11529 ;;      Locals:         1       0       0       0       0
 11530 ;;      Temps:          0       0       0       0       0
 11531 ;;      Totals:         2       0       0       0       0
 11532 ;;Total ram usage:        2 bytes
 11533 ;; Hardware stack levels used: 1
 11534 ;; This function calls:
 11535 ;;		Nothing
 11536 ;; This function is called by:
 11537 ;;		_load_data_rb1
 11538 ;;		_load_data_rb2
 11539 ;; This function uses a non-reentrant model
 11540 ;;
 11541                           
 11542  07DE                     _EEPROM_write:	
 11543                           ;psect for function _EEPROM_write
 11544                           
 11545                           
 11546                           ;incstack = 0
 11547                           ; Regs used in _EEPROM_write: [wreg]
 11548                           ;EEPROM_write@adress stored from wreg
 11549  07DE  00F1               	movwf	EEPROM_write@adress
 11550  07DF                     i1l2534:
 11551                           
 11552                           ;master_main_dar-alv.c: 450:     EEADR = adress;
 11553  07DF  0871               	movf	EEPROM_write@adress,w
 11554  07E0  1283               	bcf	3,5	;RP0=0, select bank2
 11555  07E1  1703               	bsf	3,6	;RP1=1, select bank2
 11556  07E2  008D               	movwf	13	;volatile
 11557                           
 11558                           ;master_main_dar-alv.c: 451:     EEDAT = data;
 11559  07E3  0870               	movf	EEPROM_write@data,w
 11560  07E4  008C               	movwf	12	;volatile
 11561  07E5                     i1l2536:
 11562                           
 11563                           ;master_main_dar-alv.c: 452:     EECON1bits.EEPGD = 0;
 11564  07E5  1683               	bsf	3,5	;RP0=1, select bank3
 11565  07E6  1703               	bsf	3,6	;RP1=1, select bank3
 11566  07E7  138C               	bcf	12,7	;volsfr
 11567  07E8                     i1l2538:
 11568                           
 11569                           ;master_main_dar-alv.c: 453:     EECON1bits.WREN = 1;
 11570  07E8  150C               	bsf	12,2	;volsfr
 11571  07E9                     i1l2540:
 11572                           
 11573                           ;master_main_dar-alv.c: 455:     INTCONbits.GIE = 0;
 11574  07E9  138B               	bcf	11,7	;volatile
 11575                           
 11576                           ;master_main_dar-alv.c: 456:     EECON2 = 0x55;
 11577  07EA  3055               	movlw	85
 11578  07EB  008D               	movwf	13	;volsfr
 11579                           
 11580                           ;master_main_dar-alv.c: 457:     EECON2 = 0xAA;
 11581  07EC  30AA               	movlw	170
 11582  07ED  008D               	movwf	13	;volsfr
 11583  07EE                     i1l2542:
 11584                           
 11585                           ;master_main_dar-alv.c: 459:     EECON1bits.WR = 1;
 11586  07EE  148C               	bsf	12,1	;volsfr
 11587  07EF                     i1l2544:
 11588                           
 11589                           ;master_main_dar-alv.c: 461:     EECON1bits.WREN = 0;
 11590  07EF  110C               	bcf	12,2	;volsfr
 11591  07F0                     i1l2546:
 11592                           
 11593                           ;master_main_dar-alv.c: 462:     INTCONbits.RBIF = 0;
 11594  07F0  100B               	bcf	11,0	;volatile
 11595  07F1                     i1l2548:
 11596                           
 11597                           ;master_main_dar-alv.c: 463:     INTCONbits.GIE = 1;
 11598  07F1  178B               	bsf	11,7	;volatile
 11599  07F2                     i1l252:
 11600  07F2  0008               	return
 11601  07F3                     __end_of_EEPROM_write:
 11602                           
 11603                           	psect	text20
 11604  07F3                     __ptext20:	
 11605 ;; *************** function _EEPROM_read *****************
 11606 ;; Defined at:
 11607 ;;		line 441 in file "master_main_dar-alv.c"
 11608 ;; Parameters:    Size  Location     Type
 11609 ;;  adress          1    wreg     unsigned char 
 11610 ;; Auto vars:     Size  Location     Type
 11611 ;;  adress          1    0[COMMON] unsigned char 
 11612 ;; Return value:  Size  Location     Type
 11613 ;;                  1    wreg      unsigned char 
 11614 ;; Registers used:
 11615 ;;		wreg
 11616 ;; Tracked objects:
 11617 ;;		On entry : 0/0
 11618 ;;		On exit  : 0/0
 11619 ;;		Unchanged: 0/0
 11620 ;; Data sizes:     COMMON   BANK0   BANK1   BANK3   BANK2
 11621 ;;      Params:         0       0       0       0       0
 11622 ;;      Locals:         1       0       0       0       0
 11623 ;;      Temps:          0       0       0       0       0
 11624 ;;      Totals:         1       0       0       0       0
 11625 ;;Total ram usage:        1 bytes
 11626 ;; Hardware stack levels used: 1
 11627 ;; This function calls:
 11628 ;;		Nothing
 11629 ;; This function is called by:
 11630 ;;		_isr
 11631 ;; This function uses a non-reentrant model
 11632 ;;
 11633                           
 11634  07F3                     _EEPROM_read:	
 11635                           ;psect for function _EEPROM_read
 11636                           
 11637                           
 11638                           ;incstack = 0
 11639                           ; Regs used in _EEPROM_read: [wreg]
 11640                           ;EEPROM_read@adress stored from wreg
 11641  07F3  00F0               	movwf	EEPROM_read@adress
 11642  07F4                     i1l3686:
 11643                           
 11644                           ;master_main_dar-alv.c: 442:     EEADR = adress;
 11645  07F4  0870               	movf	EEPROM_read@adress,w
 11646  07F5  1283               	bcf	3,5	;RP0=0, select bank2
 11647  07F6  1703               	bsf	3,6	;RP1=1, select bank2
 11648  07F7  008D               	movwf	13	;volatile
 11649  07F8                     i1l3688:
 11650                           
 11651                           ;master_main_dar-alv.c: 443:     EECON1bits.EEPGD = 0;
 11652  07F8  1683               	bsf	3,5	;RP0=1, select bank3
 11653  07F9  1703               	bsf	3,6	;RP1=1, select bank3
 11654  07FA  138C               	bcf	12,7	;volsfr
 11655  07FB                     i1l3690:
 11656                           
 11657                           ;master_main_dar-alv.c: 444:     EECON1bits.RD = 1;
 11658  07FB  140C               	bsf	12,0	;volsfr
 11659                           
 11660                           ;master_main_dar-alv.c: 445:     return EEDAT;
 11661  07FC  1283               	bcf	3,5	;RP0=0, select bank2
 11662  07FD  1703               	bsf	3,6	;RP1=1, select bank2
 11663  07FE  080C               	movf	12,w	;volatile
 11664  07FF                     i1l249:
 11665  07FF  0008               	return
 11666  0800                     __end_of_EEPROM_read:
 11667  007E                     btemp	set	126	;btemp
 11668  007E                     wtemp0	set	126
 11669                           
 11670                           	psect	idloc
 11671                           
 11672                           ;Config register IDLOC0 @ 0x2000
 11673                           ;	unspecified, using default values
 11674  2000                     	org	8192
 11675  2000  3FFF               	dw	16383
 11676                           
 11677                           ;Config register IDLOC1 @ 0x2001
 11678                           ;	unspecified, using default values
 11679  2001                     	org	8193
 11680  2001  3FFF               	dw	16383
 11681                           
 11682                           ;Config register IDLOC2 @ 0x2002
 11683                           ;	unspecified, using default values
 11684  2002                     	org	8194
 11685  2002  3FFF               	dw	16383
 11686                           
 11687                           ;Config register IDLOC3 @ 0x2003
 11688                           ;	unspecified, using default values
 11689  2003                     	org	8195
 11690  2003  3FFF               	dw	16383
 11691                           
 11692                           	psect	config
 11693                           
 11694                           ;Config register CONFIG1 @ 0x2007
 11695                           ;	Oscillator Selection bits
 11696                           ;	FOSC = INTRC_NOCLKOUT, INTOSCIO oscillator: I/O function on RA6/OSC2/CLKOUT pin, I/O f
      +                          unction on RA7/OSC1/CLKIN
 11697                           ;	Watchdog Timer Enable bit
 11698                           ;	WDTE = OFF, WDT disabled and can be enabled by SWDTEN bit of the WDTCON register
 11699                           ;	Power-up Timer Enable bit
 11700                           ;	PWRTE = OFF, PWRT disabled
 11701                           ;	RE3/MCLR pin function select bit
 11702                           ;	MCLRE = OFF, RE3/MCLR pin function is digital input, MCLR internally tied to VDD
 11703                           ;	Code Protection bit
 11704                           ;	CP = OFF, Program memory code protection is disabled
 11705                           ;	Data Code Protection bit
 11706                           ;	CPD = OFF, Data memory code protection is disabled
 11707                           ;	Brown Out Reset Selection bits
 11708                           ;	BOREN = OFF, BOR disabled
 11709                           ;	Internal External Switchover bit
 11710                           ;	IESO = OFF, Internal/External Switchover mode is disabled
 11711                           ;	Fail-Safe Clock Monitor Enabled bit
 11712                           ;	FCMEN = OFF, Fail-Safe Clock Monitor is disabled
 11713                           ;	Low Voltage Programming Enable bit
 11714                           ;	LVP = OFF, RB3 pin has digital I/O, HV on MCLR must be used for programming
 11715                           ;	In-Circuit Debugger Mode bit
 11716                           ;	DEBUG = 0x1, unprogrammed default
 11717  2007                     	org	8199
 11718  2007  20D4               	dw	8404
 11719                           
 11720                           ;Config register CONFIG2 @ 0x2008
 11721                           ;	Brown-out Reset Selection bit
 11722                           ;	BOR4V = BOR40V, Brown-out Reset set to 4.0V
 11723                           ;	Flash Program Memory Self Write Enable bits
 11724                           ;	WRT = OFF, Write protection off
 11725  2008                     	org	8200
 11726  2008  3FFF               	dw	16383

Data Sizes:
    Strings     0
    Constant    0
    Data        7
    BSS         14
    Persistent  0
    Stack       0

Auto Spaces:
    Space          Size  Autos    Used
    COMMON           14     14      14
    BANK0            80     79      80
    BANK1            80     48      64
    BANK3            96     75      79
    BANK2            96      0       0

Pointer List with Targets:

    None.

Critical Paths under _main in COMMON

    None.

Critical Paths under _isr in COMMON

    i1_map->i1___xxtofl
    i1___fltol->i1___xxtofl
    i1___flmul->i1___xxtofl
    i1___fldiv->i1___xxtofl
    i1___fladd->i1___xxtofl
    _load_data_rb2->_EEPROM_write
    _load_data_rb1->_EEPROM_write

Critical Paths under _main in BANK0

    None.

Critical Paths under _isr in BANK0

    _isr->i1_map
    i1_map->i1___fltol
    i1___fltol->i1___fladd
    i1___flmul->i1___fldiv
    i1___fladd->i1___flmul

Critical Paths under _main in BANK1

    _map->___flmul
    ___fltol->___flmul
    ___flmul->___fldiv
    ___fldiv->___xxtofl
    ___fladd->___flmul

Critical Paths under _isr in BANK1

    _isr->i1_map
    i1_map->i1___fltol

Critical Paths under _main in BANK3

    _main->_map
    _map->___fltol
    ___fltol->___fladd
    ___flmul->___fldiv
    ___fladd->___flmul

Critical Paths under _isr in BANK3

    None.

Critical Paths under _main in BANK2

    None.

Critical Paths under _isr in BANK2

    None.

Call Graph Tables:

 ---------------------------------------------------------------------------------
 (Depth) Function   	        Calls       Base Space   Used Autos Params    Refs
 ---------------------------------------------------------------------------------
 (0) _main                                                 3     3      0   11925
                                             72 BANK3      3     3      0
                                _map
                              _setup
 ---------------------------------------------------------------------------------
 (1) _setup                                                1     1      0       0
                                             16 BANK1      1     1      0
 ---------------------------------------------------------------------------------
 (1) _map                                                  7     1      6   11925
                                             65 BANK3      7     1      6
                            ___fladd
                            ___fldiv
                            ___flmul
                            ___fltol
                           ___xxtofl
 ---------------------------------------------------------------------------------
 (2) ___xxtofl                                            14    10      4     626
                                             16 BANK1     14    10      4
 ---------------------------------------------------------------------------------
 (2) ___fltol                                             11     7      4     305
                                             54 BANK3     11     7      4
                            ___fladd (ARG)
                            ___fldiv (ARG)
                            ___flmul (ARG)
                           ___xxtofl (ARG)
 ---------------------------------------------------------------------------------
 (2) ___flmul                                             26    18      8    3172
                                             43 BANK1      5     5      0
                                             13 BANK3     21    13      8
                          __Umul8_16
                            ___fldiv (ARG)
                           ___xxtofl (ARG)
 ---------------------------------------------------------------------------------
 (3) __Umul8_16                                            9     7      2     799
                                             16 BANK1      9     7      2
 ---------------------------------------------------------------------------------
 (2) ___fldiv                                             26    18      8    1863
                                             30 BANK1     13     5      8
                                              0 BANK3     13    13      0
                           ___xxtofl (ARG)
 ---------------------------------------------------------------------------------
 (2) ___fladd                                             20    12      8    2262
                                             34 BANK3     20    12      8
                            ___fldiv (ARG)
                            ___flmul (ARG)
                           ___xxtofl (ARG)
 ---------------------------------------------------------------------------------
 Estimated maximum stack depth 3
 ---------------------------------------------------------------------------------
 (Depth) Function   	        Calls       Base Space   Used Autos Params    Refs
 ---------------------------------------------------------------------------------
 (4) _isr                                                  5     5      0    7861
                                             11 BANK1      5     5      0
                        _EEPROM_read
                      _load_data_rb1
                      _load_data_rb2
                              i1_map
 ---------------------------------------------------------------------------------
 (5) i1_map                                                7     1      6    6535
                                             78 BANK0      1     1      0
                                              5 BANK1      6     0      6
                          i1___fladd
                          i1___fldiv
                          i1___flmul
                          i1___fltol
                         i1___xxtofl
 ---------------------------------------------------------------------------------
 (6) i1___xxtofl                                          14    10      4     426
                                              0 COMMON    14    10      4
 ---------------------------------------------------------------------------------
 (6) i1___fltol                                           11     7      4     255
                                             72 BANK0      6     2      4
                                              0 BANK1      5     5      0
                          i1___fladd (ARG)
                          i1___fldiv (ARG)
                          i1___flmul (ARG)
                         i1___xxtofl (ARG)
 ---------------------------------------------------------------------------------
 (6) i1___flmul                                           26    18      8    1867
                                             26 BANK0     26    18      8
                        i1__Umul8_16
                          i1___fldiv (ARG)
                         i1___xxtofl (ARG)
 ---------------------------------------------------------------------------------
 (7) i1__Umul8_16                                          9     7      2     349
                                              0 COMMON     9     7      2
 ---------------------------------------------------------------------------------
 (6) i1___fldiv                                           26    18      8    1173
                                              0 BANK0     26    18      8
                         i1___xxtofl (ARG)
 ---------------------------------------------------------------------------------
 (6) i1___fladd                                           20    12      8    2036
                                             52 BANK0     20    12      8
                          i1___fldiv (ARG)
                          i1___flmul (ARG)
                         i1___xxtofl (ARG)
 ---------------------------------------------------------------------------------
 (5) _load_data_rb2                                        2     2      0     652
                                              2 COMMON     2     2      0
                       _EEPROM_write
 ---------------------------------------------------------------------------------
 (5) _load_data_rb1                                        2     2      0     652
                                              2 COMMON     2     2      0
                       _EEPROM_write
 ---------------------------------------------------------------------------------
 (6) _EEPROM_write                                         2     1      1     652
                                              0 COMMON     2     1      1
 ---------------------------------------------------------------------------------
 (5) _EEPROM_read                                          1     1      0      22
                                              0 COMMON     1     1      0
 ---------------------------------------------------------------------------------
 Estimated maximum stack depth 7
 ---------------------------------------------------------------------------------

 Call Graph Graphs:

 _main (ROOT)
   _map
     ___fladd
       ___fldiv (ARG)
         ___xxtofl (ARG)
       ___flmul (ARG)
         __Umul8_16
         ___fldiv (ARG)
         ___xxtofl (ARG)
       ___xxtofl (ARG)
     ___fldiv
     ___flmul
     ___fltol
       ___fladd (ARG)
       ___fldiv (ARG)
       ___flmul (ARG)
       ___xxtofl (ARG)
     ___xxtofl
   _setup

 _isr (ROOT)
   _EEPROM_read
   _load_data_rb1
     _EEPROM_write
   _load_data_rb2
     _EEPROM_write
   i1_map
     i1___fladd
       i1___fldiv (ARG)
         i1___xxtofl (ARG)
       i1___flmul (ARG)
         i1__Umul8_16
         i1___fldiv (ARG)
         i1___xxtofl (ARG)
       i1___xxtofl (ARG)
     i1___fldiv
     i1___flmul
     i1___fltol
       i1___fladd (ARG)
       i1___fldiv (ARG)
       i1___flmul (ARG)
       i1___xxtofl (ARG)
     i1___xxtofl

 Address spaces:
Name               Size   Autos  Total    Cost      Usage
BANK3               60     4B      4F       9       82.3%
BITBANK3            60      0       0       8        0.0%
SFR3                 0      0       0       4        0.0%
BITSFR3              0      0       0       4        0.0%
BANK2               60      0       0      11        0.0%
BITBANK2            60      0       0      10        0.0%
SFR2                 0      0       0       5        0.0%
BITSFR2              0      0       0       5        0.0%
BANK1               50     30      40       7       80.0%
BITBANK1            50      0       0       6        0.0%
SFR1                 0      0       0       2        0.0%
BITSFR1              0      0       0       2        0.0%
BANK0               50     4F      50       5      100.0%
BITBANK0            50      0       0       4        0.0%
SFR0                 0      0       0       1        0.0%
BITSFR0              0      0       0       1        0.0%
COMMON               E      E       E       1      100.0%
BITCOMMON            E      0       0       0        0.0%
CODE                 0      0       0       0        0.0%
DATA                 0      0      ED      12        0.0%
ABS                  0      0      ED       3        0.0%
NULL                 0      0       0       0        0.0%
STACK                0      0       0       2        0.0%
EEDATA             100      0       0       0        0.0%


Microchip Technology PIC Macro Assembler V2.35 build 20211206165544 
Symbol Table                                                                                   Fri Jun 03 17:10:57 2022

                       _A 00DF                         _B 006F                         _C 00DE  
                       _D 00DD                         _E 00DC                         _F 00DB  
            ___fldiv@aexp 019C              ___fldiv@bexp 019B               i1___fladd@a 0058  
             i1___fladd@b 0054              ___fldiv@sign 0194               i1___fldiv@a 0020  
             i1___fldiv@b 0024               _SSPSTATbits 0094               i1___flmul@a 003E  
             i1___flmul@b 003A       __Umul8_16@word_mpld 00B6                i1___xxtofl 1A57  
                     l211 1B71                       l221 1B9F                       l223 1BA5  
                     l215 1B6B                       l240 199A                       l232 1D6E  
                     l224 1BC7                       l242 199E                       l243 19BA  
                     l229 1D1C                       l246 1216                       l530 107C  
                     l540 107C                       l641 1321                       l537 1067  
                     l650 149E                       l643 12F8                       l715 0B2C  
                     l637 127A                       l717 0B44                       l709 0AAC  
                     l733 05AB                       l662 1410                       l671 1470  
                     l680 149E                       l752 18BF                       l745 059B  
                     l658 13EC                       l754 18D1                       l739 04ED  
                     l668 1432                       l693 0937                       l790 1102  
                     l679 1492                       l695 0B58                       l791 110E  
                     l783 10E6                       l777 10A1                       l779 1138  
                     _PR2 0092                       _map 1139                       _isr 0B59  
            i1___fltol@f1 0068             i1___fladd@grs 0067              ___flmul@aexp 01A6  
            ___flmul@bexp 01AB              ___flmul@sign 01A5              ___flmul@temp 01B0  
            ___flmul@prod 01AC             i1___fldiv@grs 0034             i1___fldiv@rem 002D  
            ___fltol@exp1 01D0                      l3100 112F                      l3102 1130  
                    l2510 18B5                      l3070 10A9                      l3062 1080  
                    l2600 123B                      l4200 092D                      l2512 18B9  
                    l3080 10CB                      l3064 1085                      l2610 1251  
                    l2602 123C                      l4202 093F                      l4210 095C  
                    l2514 18C8                      l2506 18AC                      l3090 10FC  
                    l3082 10CF                      l3074 10B2                      l3066 1089  
                    l2700 135D                      l2620 1262                      l2612 1252  
                    l2604 123E                      l4220 09A4                      l4212 0963  
                    l4204 094B                      l2516 18CD                      l2508 18AE  
                    l3092 1106                      l3084 10DD                      l3076 10B7  
                    l3068 1099                      l2710 1386                      l2702 1361  
                    l2630 1280                      l2622 1267                      l2614 1258  
                    l2606 1246                      l4230 09D7                      l4222 09AE  
                    l4206 0953                      l4310 0070                      l2550 1001  
                    l3094 1110                      l3086 10ED                      l3078 10C4  
                    l2720 13F4                      l2712 13C4                      l2704 1362  
                    l2640 1294                      l2632 1284                      l2624 126F  
                    l2616 125C                      l2608 124B                      l4240 0A10  
                    l4232 09DD                      l4224 09B8                      l4216 096E  
                    l4400 04BD                      l4320 0085                      l4312 0071  
                    l4304 0057                      l2560 102D                      l2552 100E  
                    l3096 1126                      l3088 10F8                      l2730 140F  
                    l2722 13F9                      l2714 13CA                      l2706 136B  
                    l2650 12A8                      l2642 1298                      l2634 1288  
                    l2626 1270                      l2618 125D                      l4250 0A50  
                    l4242 0A38                      l4234 09E0                      l4226 09BA  
                    l4218 098C                      l4170 08D5                      l4162 08B9  
                    l4402 04C1                      l4330 00A5                      l4322 008D  
                    l4314 0076                      l4306 0062                      l2562 1035  
                    l3098 112B                      l2732 1414                      l2740 1420  
                    l2716 13CF                      l2708 1370                      l2660 12BC  
                    l2652 12AC                      l2644 129C                      l2636 128C  
                    l2628 1272                      l4252 0A59                      l4260 0A78  
                    l4228 09BF                      l4236 09EE                      l4244 0A40  
                    l4172 08DC                      l4180 08EF                      l4164 08C2  
                    l4420 0540                      l4412 04F4                      l4404 04C2  
                    l4340 00C1                      l4332 00AA                      l4324 0096  
                    l4316 007B                      l4308 006C                      l2580 105C  
                    l2572 1043                      l2564 1037                      l2556 1017  
                    l3700 192B                      l4500 1C35                      l2734 1417  
                    l2726 1402                      l2718 13DE                      l2742 1424  
                    l2670 12FC                      l2662 12C0                      l2654 12B0  
                    l2646 12A0                      l2638 1290                      l2590 1224  
                    l4262 0A7E                      l4254 0A5F                      l4246 0A46  
                    l4238 0A0F                      l4190 0913                      l4182 08F9  
                    l4174 08E1                      l4166 08CC                      l4430 0577  
                    l4414 04F9                      l4422 0546                      l4406 04C6  
                    l4350 00EE                      l4342 00C6                      l4334 00AF  
                    l4326 00A0                      l4318 0083                      l2582 106C  
                    l2566 103B                      l2574 1055                      l2558 102C  
                    l3710 1941                      l3702 192C                      l4510 1CA9  
                    l4502 1C48                      l2760 146C                      l2752 1437  
                    l2744 1425                      l2736 1419                      l2728 140B  
                    l2680 1315                      l2672 1305                      l2656 12B4  
                    l2648 12A4                      l2664 12C4                      l2592 1228  
                    l4280 0AE5                      l4272 0AB1                      l4264 0A81  
                    l4256 0A62                      l4248 0A4E                      l4192 091A  
                    l4184 0900                      l4176 08EB                      l4168 08D2  
                    l4440 05A3                      l4432 0579                      l4424 0553  
                    l4416 0507                      l4408 04E8                      l4360 01EC  
                    l4352 010B                      l4344 00CB                      l4336 00B7  
                    l4328 00A4                      l2584 1071                      l3800 1999  
                    l3720 194A                      l3712 1942                      l3704 1938  
                    l4520 1CFD                      l4512 1CBC                      l4504 1C53  
                    l2770 1488                      l2762 1475                      l2754 143C  
                    l2746 1429                      l2738 141E                      l2690 1333  
                    l2674 1307                      l2682 1319                      l2666 12C5  
                    l2658 12B8                      l2594 1229                      l2586 1217  
                    l4290 0B1F                      l4274 0AB8                      l4282 0AED  
                    l4266 0A85                      l4258 0A70                      l4194 091F  
                    l4186 090A                      l4178 08ED                      l4434 058B  
                    l4426 055E                      l4418 050B                      l4370 0296  
                    l4362 021C                      l4354 0142                      l4338 00B9  
                    l3810 19B3                      l3802 19A8                      l3730 1951  
                    l3722 194B                      l3714 1943                      l3706 193C  
                    l4530 1D2D                      l4522 1D08                      l4514 1CD0  
                    l4506 1C72                      l4450 1B16                      l2772 148C  
                    l2764 147A                      l2756 144A                      l2748 142F  
                    l2692 134A                      l2684 1325                      l2676 130B  
                    l2668 12DC                      l2596 122E                      l2588 121E  
                    l4292 0B29                      l4284 0AFC                      l4276 0AC8  
                    l4268 0AA7                      l4196 0929                      l4188 0910  
                    l4436 058F                      l4428 056D                      l4380 0394  
                    l4372 02CB                      l4364 022B                      l4356 0172  
                    l4348 00D4                      l4444 113C                      l3812 19B4  
                    l3804 19AB                      l3740 1956                      l3732 1952  
                    l3724 194C                      l3716 1946                      l3708 193F  
                    l4540 1D68                      l4532 1D4C                      l4524 1D0B  
                    l4516 1CDB                      l4508 1C95                      l4460 1B3E  
                    l4452 1B1C                      l2774 148E                      l2766 1482  
                    l2758 144E                      l2694 134E                      l2686 132A  
                    l2678 130C                      l2598 1233                      l4294 0B36  
                    l4286 0B0C                      l4278 0ACC                      l4198 092B  
                    l4438 0590                      l4390 0490                      l4382 03E3  
                    l4374 02F6                      l4366 0247                      l4358 01BC  
                    l3814 19B7                      l3806 19AD                      l3750 195B  
                    l3742 1957                      l3734 1953                      l3726 194D  
                    l3718 1947                      l4534 1D4F                      l4526 1D16  
                    l4518 1CFA                      l4470 1B59                      l4454 1B27  
                    ?_map 01D1                      l2776 1499                      l2768 1487  
                    l2696 1352                      l4296 0B3A                      l4288 0B1B  
                    l4392 049F                      l4384 0421                      l4376 032B  
                    l4368 027C                      l3808 19B0                      l3760 1968  
                    l3752 195C                      l3744 1958                      l3736 1954  
                    l3728 1950                      l4536 1D5A                      l4528 1D22  
                    l4480 1B78                      l4472 1B66                      l4464 1B45  
                    l4456 1B2D                      l4448 1B11                      l2778 149D  
                    l2698 135B                      l4298 0B3E                      l4394 04A5  
                    l4386 0469                      l4378 037A                      l3770 197A  
                    l3762 1969                      l3754 1960                      l3746 1959  
                    l3738 1955                      l4538 1D5D                      l4490 1BB3  
                    l4482 1B7F                      l4466 1B52                      l4458 1B31  
                    l4396 04A6                      l4388 0478                      l3780 1984  
                    l3772 197D                      l3764 196D                      l3756 1961  
                    l3748 195A                      l4484 1B80                      l4492 1BCD  
                    l4476 1B6B                      l4398 04B5                      l3790 1992  
                    l3782 1986                      l3774 197E                      l3766 1970  
                    l3758 1965                      l4486 1B8B                      l4494 1BD9  
                    l4478 1B6E                      l3792 1994                      l3784 198A  
                    l3776 1980                      l3768 1973                      l4496 1BDF  
                    l4488 1BA8                      l3794 1995                      l3786 198E  
                    l3778 1983                      l3698 1927                      l4498 1C21  
                    l3796 1996                      l3788 1990                      l3798 1998  
                    ?_isr 0070                      _CCPR 00D2                      u3410 106C  
                    u3330 100E                      u3411 106B                      u3331 100D  
                    u3500 1280                      u3420 1071                      u3340 1025  
                    u3501 127F                      u3421 1070                      u3405 105E  
                    u3510 1284                      u3430 1228                      u3270 18B9  
                    u3350 103B                      u3511 1283                      u3431 1227  
                    u3271 18B8                      u3351 103A                      u3600 132A  
                    u3520 12DC                      u3440 122E                      u3360 1042  
                    u3601 1329                      u3521 12DB                      u3441 122D  
                    u3361 1041                      u3345 1020                      u3530 12E7  
                    u3450 1233                      u3290 18CD                      u3611 133C  
                    u3531 12E5                      u3451 1232                      u3291 18CC  
                    u3700 13F4                      u3620 134E                      u3612 1343  
                    u3540 12E8                      u3460 1251                      u3380 1054  
                    u3701 13F3                      u3621 134D                      u3613 134A  
                    u3525 12D8                      u3461 1250                      u3285 18C0  
                    u3381 1053                      u3710 13F9                      u3630 1352  
                    u3550 12FC                      u3470 125C                      u3390 105B  
                    u3711 13F8                      u3631 1351                      u3551 12FB  
                    u3471 125B                      u3391 105A                      u3375 1044  
                    u3800 143C                      u3640 1361                      u3560 130B  
                    u3480 1262                      u3801 143B                      u3641 1360  
                    u3561 130A                      u3481 1261                      u7001 0360  
                    u3810 144E                      u3730 140F                      u3490 1267  
                    u7002 036B                      u4610 10EC                      u6050 199E  
                    u3811 144D                      u3731 140E                      u3491 1266  
                    u7011 03AF                      u7003 0376                      u4611 10EB  
                    u6051 199D                      u3820 145D                      u3740 1414  
                    u3660 1386                      u3580 1321                      u7100 04C1  
                    u7020 03F5                      u7012 03BA                      u3741 1413  
                    u3725 1404                      u3661 1385                      u3581 1320  
                    u7101 04C0                      u7013 03C5                      u4605 10DE  
                    u3830 146C                      u3750 141E                      u3590 1325  
                    u7110 04C6                      u4630 10FC                      u4550 1085  
                    u3831 146B                      u3751 141D                      u3671 139D  
                    u3663 1382                      u3655 1364                      u3591 1324  
                    u3575 130E                      u7111 04C5                      u7031 0407  
                    u4631 10FB                      u4551 1084                      u3840 1475  
                    u3760 1424                      u3680 13B1                      u3672 139E  
                    u7120 04E8                      u7040 043D                      u7032 0412  
                    u4640 1102                      u4560 1089                      u7200 1B1C  
                    u3841 1474                      u3825 1458                      u3761 1423  
                    u3681 13B2                      u3673 13A3                      u7121 04E7  
                    u7033 041D                      u7025 03F0                      u4641 1101  
                    u4625 10F1                      u4561 1088                      u7201 1B1B  
                    u3850 147A                      u3770 1429                      u3690 13CF  
                    u3682 13B7                      u3674 13A4                      u7130 04F3  
                    u4650 1106                      u4570 10A9                      u7210 1B27  
                    u3851 1479                      u3771 1428                      u3691 13CE  
                    u3683 13B8                      u3675 13A9                      u7131 04F2  
                    u7051 044F                      u4651 1105                      u4571 10A8  
                    u7211 1B26                      u3860 1487                      u3780 142F  
                    u3676 13AA                      u7140 04F9                      u7052 045A  
                    u4660 111B                      u7300 1D22                      u7220 1B3E  
                    u3861 1486                      u3781 142E                      u7141 04F8  
                    u7053 0465                      u7045 0438                      u7301 1D21  
                    u7221 1B3D                      u3870 148C                      u3790 1436  
                    u7150 050B                      u4670 112B                      u4590 10CA  
                    u7310 1D74                      u7230 1B52                      u3871 148B  
                    u3791 1435                      u7151 050A                      u4671 112A  
                    u4591 10C9                      u7311 1D73                      u7231 1B51  
                    u3880 149D                      u6600 0963                      u7160 0528  
                    u7080 04A5                      u4680 112F                      u7240 1B66  
                    u3881 149C                      u6601 0962                      u7081 04A4  
                    u7065 046D                      u4681 112E                      u4665 1116  
                    u4585 10BC                      u7241 1B65                      u6610 09BF  
                    u6530 08D2                      u7170 0553                      u7250 1B78  
                    u6611 09BE                      u6531 08D1                      u7171 0552  
                    u7075 0494                      u7251 1B77                      u6540 08DC  
                    u7180 056D                      u7260 1B7F                      u6541 08DB  
                    u7181 056C                      u7165 0523                      u7261 1B7E  
                    u6710 0A5F                      u6550 08E1                      u7190 058F  
                    u7270 1BA5                      u6711 0A5E                      u6551 08E0  
                    u7191 058E                      u7175 054F                      u7095 04AA  
                    u7407 1D11                      u7271 1BA4                      u7327 1B86  
                    u6800 0AFC                      u6640 09DD                      u6560 0910  
                    u7280 1BCD                      u6801 0AFB                      u6705 0A52  
                    u6641 09DC                      u6625 09C3                      u6561 090F  
                    u7185 0569                      u7417 1D28                      u7281 1BCC  
                    u7337 1B94                      u6810 0B1B                      u6730 0A7E  
                    u6570 091A                      u7290 1BDF                      u6811 0B1A  
                    u6731 0A7D                      u6635 09D0                      u6571 0919  
                    u7427 1D55                      u7291 1BDE                      u7347 1BAE  
                    u6820 0B3A                      u6740 0A85                      u6660 0A0F  
                    u6580 091F                      u6900 00CB                      u6821 0B39  
                    u6805 0AF8                      u6741 0A84                      u6725 0A65  
                    u6661 0A0E                      u6581 091E                      u6901 00CA  
                    u7437 1D63                      u7357 1BBC                      u6750 0AA7  
                    u6670 0A34                      u6590 093F                      u6830 0070  
                    u6815 0B17                      u6751 0AA6                      u6655 09E3  
                    u6591 093E                      u6911 0158                      u6831 006F  
                    u7447 1977                      u7367 1BD3                      u6760 0AB0  
                    u6680 0A46                      u6912 0163                      u6840 0076  
                    u6761 0AAF                      u6681 0A45                      u6665 0A0B  
                    u6921 0188                      u6913 016E                      u6841 0075  
                    u7377 1C4E                      u6770 0AB8                      u6690 0A4E  
                    u6922 0193                      u6850 007B                      u6771 0AB7  
                    u6691 0A4D                      u6675 0A1D                      u6931 01D2  
                    u6923 019E                      u6851 007A                      u7387 1CD6  
                    u6780 0ACC                      u6676 0A20                      u6932 01DD  
                    u6860 00A4                      u6781 0ACB                      u6677 0A27  
                    u6941 0202                      u6933 01E8                      u6861 00A3  
                    u7397 1D03                      u6790 0ADB                      u6678 0A2A  
                    u6942 020D                      u6870 00AA                      u6679 0A31  
                    u6943 0218                      u6871 00A9                      u6880 00AF  
                    u6961 0262                      u6881 00AE                      u6962 026D  
                    u6890 00C6                      u6795 0AD6                      u6971 02B1  
                    u6963 0278                      u6955 0220                      u6891 00C5  
                    u6972 02BC                      u6973 02C7                      u6991 0311  
                    u6992 031C                      u6993 0327                      u6985 02CF  
                    _main 1B11             i1___flmul@grs 0048                      map@x 01D7  
                    btemp 007E            i1___fladd@aexp 0065            i1___fladd@bexp 0066  
                    start 0010           ___fldiv@new_exp 0195                     ??_map 00D0  
                   ??_isr 00AB            i1___fldiv@aexp 0039            i1___fldiv@bexp 0038  
          i1___fldiv@sign 0031      __end_of_EEPROM_write 07F3             ___fltol@sign1 01CF  
         __end_of___fladd 149F                     ?_main 0070           __end_of___fldiv 0B59  
                   _EEADR 010D                     _EEDAT 010C           __end_of___flmul 05AC  
         __end_of___fltol 107D                     _ANSEL 0188                     _CCPRx 00D0  
                   i1l205 0FF5                     i1l162 0D34                     i1l163 0CEF  
                   i1l155 0BBD                     i1l252 07F2                     i1l172 0E4D  
                   i1l246 08B8                     i1l166 0D2D                     i1l255 1926  
                   i1l183 0F82                     i1l175 0E96                     i1l159 0E9C  
                   i1l249 07FF                     i1l258 07DD                     i1l530 1A56  
                   i1l540 1A56                     i1l199 0FF5                     i1l641 1E82  
                   i1l537 1A41                     i1l650 1FFF                     i1l643 1E59  
                   i1l715 076C                     i1l637 1DDB                     i1l717 077C  
                   i1l709 06FA                     i1l733 17FF                     i1l662 1F71  
                   i1l671 1FD1                     i1l680 1FFF                     i1l752 1896  
                   i1l745 17F3                     i1l658 1F4D                     i1l754 18A8  
                   i1l739 176B                     i1l668 1F93                     i1l693 0608  
                   i1l790 1ADA                     i1l679 1FF3                     i1l695 0788  
                   i1l791 1AE6                     i1l783 1ABE                     i1l777 1A79  
                   i1l779 1B10                     _RCREG 001A                     _SPBRG 0099  
                   _PORTA 0005                     _PORTB 0006                     _PORTC 0007  
                   _PORTD 0008                     _PORTE 0009                     _TRISA 0085  
                   _TRISC 0087                     _TRISD 0088                     _TRISE 0089  
                   i1_map 0807            i1___flmul@aexp 004C            i1___flmul@bexp 004D  
          i1___flmul@sign 0047            i1___flmul@temp 0052                     map@x0 01D1  
                   map@x1 01D2                     map@y0 01D3                     map@y1 01D5  
          i1___flmul@prod 004E                     _setup 1927                     pclath 000A  
          i1___fltol@exp1 006D                     status 0003                     wtemp0 007E  
         i1___fladd@signs 0064           __initialization 0013              __end_of_main 1D78  
                  ??_main 01D8               ?i1___xxtofl 0070                    ?i1_map 00A5  
                  _ADRESH 001E                    _CCPR1L 0015                    _CCPR2L 001B  
                  _EECON2 018D                    ?_setup 0070                    _ANSELH 0189  
                  i1l3200 1DFD                    i1l3120 1A05                    i1l3112 19D5  
                  i1l4000 0EBD                    i1l3210 1E11                    i1l3202 1E01  
                  i1l3122 1A09                    i1l3130 1A27                    i1l3114 19FA  
                  i1l3106 19BB                    i1l4010 0F0B                    i1l4002 0ED6  
                  i1l3300 1F86                    i1l3212 1E15                    i1l3204 1E05  
                  i1l3220 1E25                    i1l3140 1A4B                    i1l3116 19FB  
                  i1l3108 19CC                    i1l4020 0F63                    i1l4012 0F24  
                  i1l4004 0EE4                    i1l3310 1F9D                    i1l3302 1F8A  
                  i1l3230 1E68                    i1l3222 1E26                    i1l3214 1E19  
                  i1l3206 1E09                    i1l3150 1D8A                    i1l3142 1D78  
                  i1l3118 1A03                    i1l4030 0F8C                    i1l4022 0F6C  
                  i1l4014 0F32                    i1l4006 0EF6                    i1l3320 1FDB  
                  i1l3312 1FAB                    i1l3304 1F90                    i1l3240 1E86  
                  i1l3232 1E6C                    i1l3224 1E3D                    i1l3216 1E1D  
                  i1l3208 1E0D                    i1l3152 1D8F                    i1l3160 1D9F  
                  i1l3144 1D7F                    i1l3400 0663                    i1l2520 1883  
                  i1l3136 1A2E                    i1l3128 1A11                    i1l4040 0FA4  
                  i1l4032 0F92                    i1l4024 0F79                    i1l4016 0F43  
                  i1l4008 0F03                    i1l3330 1FEF                    i1l3322 1FE3  
                  i1l3314 1FAF                    i1l3250 1EAF                    i1l3242 1E8B  
                  i1l3234 1E6D                    i1l3226 1E5D                    i1l3218 1E21  
                  i1l3170 1DB9                    i1l3162 1DA7                    i1l3154 1D94  
                  i1l3146 1D85                    i1l3402 0668                    i1l3410 0688  
                  i1l2530 18A4                    i1l2522 1885                    i1l3138 1A46  
                  i1l4050 0FBD                    i1l4042 0FA7                    i1l4034 0F98  
                  i1l4018 0F56                    i1l4026 0F82                    i1l2540 07E9  
                  i1l3332 1FFA                    i1l3324 1FE8                    i1l3316 1FCD  
                  i1l3308 1F98                    i1l3260 1EC3                    i1l3252 1EB3  
                  i1l3236 1E76                    i1l3228 1E66                    i1l3180 1DD0  
                  i1l3172 1DBD                    i1l3164 1DAC                    i1l3156 1D9C  
                  i1l3148 1D89                    i1l3420 06B3                    i1l3412 069A  
                  i1l3404 067A                    i1l3340 05B9                    i1l2524 188C  
                  i1l3500 14D8                    i1l4060 0FDB                    i1l4052 0FC3  
                  i1l4044 0FAD                    i1l4036 0F9D                    i1l4028 0F84  
                  i1l2542 07EE                    i1l2534 07DF                    i1l3334 1FFE  
                  i1l3326 1FE9                    i1l3318 1FD6                    i1l3270 1F2B  
                  i1l3262 1ECC                    i1l3254 1EBC                    i1l3246 1E94  
                  i1l3238 1E7A                    i1l3190 1DE9                    i1l3182 1DD1  
                  i1l3174 1DBE                    i1l3166 1DB2                    i1l3158 1D9D  
                  i1l3430 06CB                    i1l3422 06BB                    i1l3414 069B  
                  i1l3406 067E                    i1l3350 05D0                    i1l3342 05BD  
                  i1l2526 1890                    i1l3510 14EF                    i1l3502 14DC  
                  i1l4062 0FE1                    i1l4054 0FC8                    i1l4046 0FB2  
                  i1l4038 0F9F                    i1l2544 07EF                    i1l2536 07E5  
                  i1l3328 1FED                    i1l3272 1F30                    i1l3256 1EBE  
                  i1l3248 1EAB                    i1l3264 1ED1                    i1l3192 1DED  
                  i1l3176 1DC3                    i1l3184 1DD3                    i1l3168 1DB3  
                  i1l3440 06E3                    i1l3432 06D4                    i1l3424 06BD  
                  i1l3416 06A9                    i1l3408 067F                    i1l3360 05E6  
                  i1l3352 05D1                    i1l3344 05BE                    i1l3336 05AC  
                  i1l2528 189F                    i1l3600 17BE                    i1l3512 14F1  
                  i1l3504 14DD                    i1l4064 0FE8                    i1l4056 0FCF  
                  i1l4048 0FB8                    i1l2546 07F0                    i1l2538 07E8  
                  i1l3290 1F78                    i1l3282 1F63                    i1l3266 1EE7  
                  i1l3274 1F3F                    i1l3258 1EC2                    i1l3194 1DF1  
                  i1l3186 1DE1                    i1l3178 1DC8                    i1l3450 0712  
                  i1l3442 06F7                    i1l3426 06C6                    i1l3434 06DA  
                  i1l3418 06AD                    i1l3370 05FD                    i1l3362 05EA  
                  i1l3346 05C3                    i1l3354 05D3                    i1l3338 05B3  
                  i1l3610 17EB                    i1l3602 17CD                    i1l3530 1562  
                  i1l3522 150C                    i1l3514 14F9                    i1l3506 14E2  
                  i1l4066 0FEE                    i1l4058 0FD4                    i1l2548 07F1  
                  i1l3292 1F7A                    i1l3284 1F6C                    i1l3276 1F55  
                  i1l3268 1F25                    i1l3196 1DF5                    i1l3188 1DE5  
                  i1l3460 0750                    i1l3452 0716                    i1l3436 06DE  
                  i1l3428 06CA                    i1l3380 0620                    i1l3372 05FE  
                  i1l3364 05EB                    i1l3356 05DB                    i1l3348 05C8  
                  i1l3612 17EC                    i1l3604 17D7                    i1l3540 15DF  
                  i1l3532 158E                    i1l3524 151C                    i1l3516 14FE  
                  i1l3508 14E7                    i1l3620 1A5D                    i1l3294 1F7F  
                  i1l3286 1F70                    i1l3278 1F5A                    i1l3198 1DF9  
                  i1l3470 0776                    i1l3462 075F                    i1l3454 072F  
                  i1l3446 06FF                    i1l3438 06DF                    i1l3390 0637  
                  i1l3366 05F0                    i1l3374 0600                    i1l3358 05E0  
                  i1l3614 17F7                    i1l3606 17D9                    i1l3550 165F  
                  i1l3542 15FC                    i1l3534 15AA                    i1l3526 1529  
                  i1l3518 1503                    i1l3630 1A8A                    i1l3622 1A61  
                  i1l3288 1F75                    i1l3296 1F81                    i1l3472 0778  
                  i1l3464 0763                    i1l3448 0704                    i1l3456 0735  
                  i1l3392 0649                    i1l3376 0610                    i1l3384 0629  
                  i1l3368 05F5                    i1l3608 17E7                    i1l3560 1717  
                  i1l3552 168C                    i1l3544 160C                    i1l3536 15C6  
                  i1l3528 1546                    i1l3480 14A6                    i1l3640 1AB5  
                  i1l3632 1A8F                    i1l3624 1A71                    i1l3298 1F85  
                  i1l3466 076B                    i1l3458 0742                    i1l3394 0651  
                  i1l3386 062E                    i1l3378 061C                    i1l3570 173C  
                  i1l3562 1720                    i1l3554 169C                    i1l3546 1629  
                  i1l3538 15CF                    i1l3490 14BB                    i1l3482 14AC  
                  i1l3650 1AE8                    i1l3642 1AC5                    i1l3634 1A9C  
                  i1l3626 1A81                    i1l3618 1A58                    i1l3468 0772  
                  i1l3396 0659                    i1l3580 1754                    i1l3572 1745  
                  i1l3564 172E                    i1l3556 16C9                    i1l3548 1642  
                  i1l3492 14C3                    i1l3484 14B0                    i1l3652 1AFE  
                  i1l3644 1AD0                    i1l3636 1AA3                    i1l3900 0CA5  
                  i1l3670 1908                    i1l3662 18D2                    i1l3398 0661  
                  i1l3590 1783                    i1l3582 1768                    i1l3566 1737  
                  i1l3574 174B                    i1l3558 16EF                    i1l3494 14C5  
                  i1l3486 14B1                    i1l3478 149F                    i1l3654 1B03  
                  i1l3646 1AD4                    i1l3638 1AA7                    i1l3910 0CDB  
                  i1l3902 0CB7                    i1l3830 0B72                    i1l3822 0B59  
                  i1l3672 191D                    i1l3664 18DE                    i1l3680 07B3  
                  i1l3592 1787                    i1l3576 174F                    i1l3568 173B  
                  i1l3496 14CD                    i1l3488 14B6                    i1l3656 1B07  
                  i1l3648 1ADE                    i1l3920 0D0B                    i1l3912 0CDE  
                  i1l3904 0CC2                    i1l3840 0B92                    i1l3832 0B7A  
                  i1l3824 0B5D                    i1l3690 07FB                    i1l3666 18E7  
                  i1l3682 07BF                    i1l3674 0789                    i1l3594 17A0  
                  i1l3586 1770                    i1l3578 1750                    i1l3498 14D2  
                  i1l3658 1B08                    i1l3818 080A                    i1l3930 0D3A  
                  i1l3922 0D0E                    i1l3914 0CE9                    i1l3906 0CCD  
                  i1l3850 0BA7                    i1l3842 0B93                    i1l3834 0B80  
                  i1l3826 0B69                    i1l3668 18FC                    i1l3684 07D4  
                  i1l3676 0795                    i1l3588 1775                    i1l3596 17A6  
                  i1l3940 0D58                    i1l3932 0D3D                    i1l3924 0D19  
                  i1l3916 0CF5                    i1l3908 0CD0                    i1l3860 0BC6  
                  i1l3852 0BAB                    i1l3844 0B97                    i1l3836 0B86  
                  i1l3828 0B6C                    i1l3686 07F4                    i1l3678 079E  
                  i1l3598 17B3                    i1l3950 0DA8                    i1l3942 0D63  
                  i1l3934 0D41                    i1l3926 0D1C                    i1l3918 0D00  
                  i1l3870 0BE1                    i1l3862 0BCA                    i1l3854 0BB3  
                  i1l3846 0B9E                    i1l3838 0B8A                    i1l3688 07F8  
                  i1l3960 0E0A                    i1l3952 0DB3                    i1l3944 0D7E  
                  i1l3936 0D49                    i1l3928 0D27                    i1l3880 0BFA  
                  i1l3872 0BE7                    i1l3864 0BD2                    i1l3856 0BB7  
                  i1l3848 0BA4                    i1l3970 0E39                    i1l3962 0E15  
                  i1l3954 0DD9                    i1l3946 0D8C                    i1l3938 0D4D  
                  i1l3890 0C4A                    i1l3882 0C05                    i1l3874 0BEA  
                  i1l3866 0BD6                    i1l3858 0BC3                    i1l3980 0E69  
                  i1l3972 0E3C                    i1l3964 0E20                    i1l3956 0DE7  
                  i1l3948 0D9D                    i1l3892 0C55                    i1l3884 0C10  
                  i1l3876 0BEE                    i1l3868 0BDC                    i1l3990 0E90  
                  i1l3982 0E74                    i1l3974 0E47                    i1l3966 0E2B  
                  i1l3958 0DF8                    i1l3894 0C60                    i1l3886 0C2B  
                  i1l3878 0BF6                    i1l3984 0E77                    i1l3976 0E53  
                  i1l3968 0E2E                    i1l3896 0C86                    i1l3888 0C39  
                  i1l3992 0E9D                    i1l3994 0EA4                    i1l3986 0E82  
                  i1l3978 0E5E                    i1l3898 0C94                    i1l3996 0EAA  
                  i1l3988 0E85                    i1l3998 0EB5                    u330_20 1890  
                  u330_21 188F                    u331_25 1897                    u500_20 1EC2  
                  u332_20 18A4                    u500_21 1EC1                    u332_21 18A3  
                  u501_25 1EC5                    u510_20 1F75                    u502_20 1EE7  
                  u510_21 1F74                    u502_21 1EE6                    u502_23 1EE3  
                  u511_20 1F7F                    u511_21 1F7E                    u503_21 1EFE  
                  u503_22 1EFF                    u503_23 1F04                    u503_24 1F05  
                  u503_25 1F0A                    u503_26 1F0B                    u520_20 1FD6  
                  u512_20 1F85                    u504_20 1F12                    u600_20 1ADA  
                  u520_21 1FD5                    u512_21 1F84                    u504_21 1F13  
                  u600_21 1AD9                    u504_22 1F18                    u504_23 1F19  
                  u521_20 1FDB                    u513_20 1F8A                    u505_20 1F30  
                  u601_20 1ADE                    u521_21 1FDA                    u513_21 1F89  
                  u505_21 1F2F                    u601_21 1ADD                    u522_20 1FE8  
                  u514_20 1F90                    u506_20 1F55                    u530_20 05F5  
                  u602_20 1AF3                    u610_20 0B9E                    u522_21 1FE7  
                  u514_21 1F8F                    u506_21 1F54                    u530_21 05F4  
                  u610_21 0B9D                    u602_25 1AEE                    u523_20 1FED  
                  u515_20 1F97                    u507_20 1F5A                    u531_20 0610  
                  u603_20 1B03                    u611_20 0BA4                    u523_21 1FEC  
                  u515_21 1F96                    u507_21 1F59                    u531_21 060F  
                  u603_21 1B02                    u611_21 0BA3                    u524_20 1FFE  
                  u516_20 1F9D                    u540_20 06BB                    u532_20 062E  
                  u604_20 1B07                    u620_20 0D3A                    u612_20 0BB3  
                  u524_21 1FFD                    u516_21 1F9C                    u540_21 06BA  
                  u532_21 062D                    u604_21 1B06                    u620_21 0D39  
                  u612_21 0BB2                    u508_25 1F65                    u517_20 1FAF  
                  u509_20 1F70                    u533_20 0668                    u525_20 05BD  
                  u621_20 0D49                    u613_20 0BC3                    u517_21 1FAE  
                  u509_21 1F6F                    u533_21 0667                    u525_21 05BC  
                  u621_21 0D48                    u613_21 0BC2                    u541_25 06BF  
                  u518_20 1FBE                    u550_20 0725                    u542_20 06CA  
                  u526_20 05C3                    u470_20 19F1                    u630_20 0F8C  
                  u622_20 0E53                    u614_20 0BD2                    u606_20 0B5D  
                  u542_21 06C9                    u526_21 05C2                    u630_21 0F8B  
                  u622_21 0E52                    u614_21 0BD1                    u606_21 0B5C  
                  u518_25 1FB9                    u550_25 0720                    u534_25 066A  
                  u470_25 19EC                    u519_20 1FCD                    u551_20 0742  
                  u527_20 05C8                    u471_20 1A09                    u631_20 0F92  
                  u623_20 0E9C                    u615_20 0BE1                    u607_20 0B69  
                  u519_21 1FCC                    u551_21 0741                    u527_21 05C7  
                  u471_21 1A08                    u631_21 0F91                    u623_21 0E9B  
                  u615_21 0BE0                    u607_21 0B68                    u551_25 073E  
                  u543_25 06CD                    u535_25 0673                    u480_20 1D8F  
                  u552_20 075F                    u544_20 06DE                    u536_20 067E  
                  u528_20 05EA                    u560_20 14FE                    u472_20 1A10  
                  u640_20 0FEE                    u632_20 0F9D                    u624_20 0EA4  
                  u616_20 0BE7                    u608_20 0B7A                    u480_21 1D8E  
                  u552_21 075E                    u544_21 06DD                    u536_21 067D  
                  u528_21 05E9                    u560_21 14FD                    u472_21 1A0F  
                  u640_21 0FED                    u632_21 0F9C                    u624_21 0EA3  
                  u616_21 0BE6                    u608_21 0B79                    u552_25 075B  
                  u481_20 1D94                    u553_20 0776                    u545_20 06E3  
                  u529_20 05F0                    u561_20 1503                    u633_20 0FA4  
                  u625_20 0EAA                    u617_20 0BF6                    u609_20 0B92  
                  u481_21 1D93                    u553_21 0775                    u545_21 06E2  
                  u529_21 05EF                    u561_21 1502                    u633_21 0FA3  
                  u625_21 0EA9                    u617_21 0BF5                    u609_21 0B91  
                  u537_25 0681                    u473_25 1A12                    u490_20 1E49  
                  u482_20 1DB2                    u546_20 06F7                    u538_20 069A  
                  u554_20 14B0                    u474_20 1A26                    u634_20 0FAD  
                  u626_20 0EB5                    u618_20 0CF5                    u482_21 1DB1  
                  u546_21 06F6                    u538_21 0699                    u570_21 1651  
                  u562_21 1554                    u554_21 14AF                    u474_21 1A25  
                  u634_21 0FAC                    u626_21 0EB4                    u618_21 0CF4  
                  u570_22 1658                    u562_22 155B                    u570_23 165F  
                  u562_23 1562                    u538_25 0696                    u491_20 1E5D  
                  u483_20 1DBD                    u547_20 06FE                    u539_20 06B3  
                  u555_20 14B6                    u475_20 1A2D                    u635_20 0FB8  
                  u627_20 0F03                    u619_20 0D33                    u491_21 1E5C  
                  u483_21 1DBC                    u547_21 06FD                    u539_21 06B2  
                  u571_21 167E                    u563_21 1570                    u555_21 14B5  
                  u475_21 1A2C                    u635_21 0FB7                    u627_21 0F02  
                  u619_21 0D32                    u571_22 1685                    u563_22 1577  
                  u571_23 168C                    u563_23 157E                    u492_20 1E6C  
                  u484_20 1DC3                    u548_20 0704                    u556_20 14BB  
                  u636_20 0FC3                    u628_20 0F63                    u492_21 1E6B  
                  u484_21 1DC2                    u548_21 0703                    u572_21 16AB  
                  u564_21 159C                    u556_21 14BA                    u636_21 0FC2  
                  u628_21 0F62                    u572_22 16B2                    u564_22 15A3  
                  u572_23 16B9                    u564_23 15AA                    u580_25 173E  
                  u476_25 1A32                    u485_20 1DC8                    u549_20 0716  
                  u581_20 174F                    u573_20 16D5                    u557_20 14DC  
                  u477_20 1A46                    u469_20 19CC                    u637_20 0FC8  
                  u629_20 0F79                    u485_21 1DC7                    u549_21 0715  
                  u581_21 174E                    u565_21 15B8                    u557_21 14DB  
                  u477_21 1A45                    u469_21 19CB                    u637_21 0FC7  
                  u629_21 0F78                    u565_22 15BF                    u565_23 15C6  
                  u493_25 1E6F                    u573_25 16D0                    u494_20 1E82  
                  u486_20 1DE1                    u590_20 17EB                    u582_20 1754  
                  u558_20 14E2                    u478_20 1A4B                    u638_20 0FD4  
                  u494_21 1E81                    u486_21 1DE0                    u590_21 17EA  
                  u582_21 1753                    u574_21 16E1                    u558_21 14E1  
                  u478_21 1A4A                    u638_21 0FD3                    u574_22 16E8  
                  u574_23 16EF                    u566_25 15C8                    u750_27 0CE4  
                  u495_20 1E86                    u487_20 1DE5                    u479_20 1D89  
                  u583_20 1768                    u575_20 16FD                    u559_20 14E7  
                  u591_20 1A5D                    u639_20 0FE1                    u495_21 1E85  
                  u487_21 1DE4                    u479_21 1D88                    u583_21 1767  
                  u567_21 15EE                    u559_21 14E6                    u591_21 1A5C  
                  u639_21 0FE0                    u567_22 15F5                    u567_23 15FC  
                  u575_25 16F8                    u751_27 0CFB                    u496_20 1E8B  
                  u488_20 1E3D                    u584_20 176F                    u592_20 1A61  
                  u496_21 1E8A                    u488_21 1E3C                    u584_21 176E  
                  u576_21 1709                    u568_21 161B                    u592_21 1A60  
                  u576_22 1710                    u568_22 1622                    u576_23 1717  
                  u568_23 1629                    u488_25 1E39                    u760_27 0E42  
                  u752_27 0D14                    u489_20 1E48                    u585_20 1775  
                  u593_20 1A81                    u497_21 1E9D                    u489_21 1E46  
                  u585_21 1774                    u593_21 1A80                    u497_22 1EA4  
                  u497_23 1EAB                    u577_25 1719                    u569_25 162B  
                  u761_27 0E59                    u753_27 0D22                    u745_27 0C0B  
                  u498_20 1EAF                    u586_20 1787                    u498_21 1EAE  
                  u586_21 1786                    u578_25 1730                    u594_25 1A94  
                  u770_27 18F7                    u762_27 0E6F                    u754_27 0D5E  
                  u746_27 0C50                    u499_20 1EB3                    u587_20 1796  
                  u579_20 173B                    u595_20 1AA2                    u499_21 1EB2  
                  u579_21 173A                    u595_21 1AA1                    u587_25 1791  
                  u771_27 190C                    u763_27 0E7D                    u755_27 0DA3  
                  u747_27 0C66                    u588_20 17B3                    u588_21 17B2  
                  u588_25 17AF                    u596_25 1AB6                    u772_27 1921  
                  u764_27 0E8B                    u756_27 0DB9                    u748_27 0CBD  
                  u589_20 17CD                    u597_20 1AC4                    u589_21 17CC  
                  u597_21 1AC3                    u589_25 17C9                    u765_27 0799  
                  u757_27 0E10                    u749_27 0CD6                    u598_25 1AC9  
                  u766_27 07AE                    u758_27 0E26                    u599_20 1AD4  
                  u599_21 1AD3                    _SPBRGH 009A                    u767_27 07C3  
                  u759_27 0E34                    u768_27 07D8                    u769_27 18E2  
                  _SSPBUF 0013          __end_of___xxtofl 1139                    i1map@x 006E  
               ??___fladd 01BA                 ??___fldiv 00C6                 ??___flmul 00CB  
               ??___fltol 01CA                    _estado 00DA         __end_ofi1___fladd 2000  
       __end_ofi1___fldiv 0789         __end_ofi1___flmul 1800         __end_ofi1___fltol 1A57  
                  saved_w 007E           i1___fltol@sign1 006C              ___xxtofl@arg 00BA  
            ___xxtofl@exp 00B9              ___xxtofl@val 00B0   __end_of__initialization 0053  
           _load_data_rb1 18D2             _load_data_rb2 0789                ___fltol@f1 01C6  
            ?i1__Umul8_16 0070             __end_ofi1_map 08B9            __pcstackCOMMON 0070  
            __pidataBANK0 0003              __pidataBANK1 0801             __end_of_setup 19BB  
          _OPTION_REGbits 0081                   ??i1_map 007E                   ??_setup 00B0  
              __pbssBANK1 00D0                __pbssBANK3 01DB            ?_load_data_rb1 0070  
          ?_load_data_rb2 0070              _EEPROM_write 07DE            i1___xxtofl@arg 007A  
          i1___xxtofl@exp 0079            i1___xxtofl@val 0070         __end_of__Umul8_16 18D2  
              __pmaintext 1B11                __pintentry 0004                   _CCP1CON 0017  
                 _CCP2CON 001D                 ?___xxtofl 00B0       i1__Umul8_16@product 0074  
                 i1map@x0 00A5                   i1map@x1 00A6                   i1map@y0 00A7  
                 i1map@y1 00A9          EEPROM_write@data 0070                   ___fladd 1217  
                 ___fldiv 08B9                   ___flmul 0057                   ___fltol 1001  
            ??i1___xxtofl 0074                   __ptext1 1927                   __ptext2 1139  
                 __ptext3 107D                   __ptext4 1001                   __ptext5 0057  
                 __ptext6 18A9                   __ptext7 08B9                   __ptext8 1217  
                 __ptext9 0B59                 _T2CONbits 0012                ??___xxtofl 00B4  
                 _pot1_in 00D9                   _pot2_in 00D8                   _pot3_in 00D7  
                 _pot4_in 00D6           ??_load_data_rb1 0072           ??_load_data_rb2 0072  
    end_of_initialization 0053             ??_EEPROM_read 0070        __end_ofi1___xxtofl 1B11  
              _serial_val 00D5                 _RCSTAbits 0018     i1__Umul8_16@word_mpld 0076  
               _PORTAbits 0005                 _PORTBbits 0006                 _PORTDbits 0008  
             ___fladd@grs 01C5             ___xxtofl@sign 00B8                 _TRISBbits 0086  
               _TRISCbits 0087                 i1___fladd 1D78                 i1___fldiv 05AC  
               i1___flmul 149F               ___fldiv@grs 0197                 i1___fltol 19BB  
             ___fldiv@rem 0190         EEPROM_read@adress 0070               ___flmul@grs 01A7  
             _CCP1CONbits 0017               _CCP2CONbits 001D                 _TXSTAbits 0098  
     __end_of_EEPROM_read 0800               _BAUDCTLbits 0187       start_initialization 0013  
              ?i1___fladd 0054               __end_of_map 1217                ?i1___fldiv 0020  
             __end_of_isr 1000                ?i1___flmul 003A                ?i1___fltol 0068  
      EEPROM_write@adress 0071                 __Umul8_16 18A9               __pdataBANK0 006F  
             __pdataBANK1 00DA                 ___fladd@a 01B6                 ___fladd@b 01B2  
               ___fldiv@a 00BE                 ___fldiv@b 00C2                 ___flmul@a 01A1  
               ___flmul@b 019D                 ___latbits 0002             __pcstackBANK0 0020  
           __pcstackBANK1 00A0             __pcstackBANK3 0190           i1___xxtofl@sign 0078  
       i1___fldiv@new_exp 0032               _EEPROM_read 07F3  i1__Umul8_16@multiplicand 0070  
                ?___fladd 01B2                  ?___fldiv 00BE                  ?___flmul 019D  
                ?___fltol 01C6                ?__Umul8_16 00B0               ??i1___fladd 005C  
             ??i1___fldiv 0028               ??i1___flmul 0042               ??i1___fltol 00A0  
       interrupt_function 0004                  _IOCBbits 0096                  _PIE1bits 008C  
                _PIR1bits 000C                 _servo_sel 00D4                _ADCON0bits 001F  
              _ADCON1bits 009F                  _WPUBbits 0095     __end_of_load_data_rb1 1927  
   __end_of_load_data_rb2 07DE                _EECON1bits 018C             ??i1__Umul8_16 0072  
             ??__Umul8_16 00B2                  ___xxtofl 107D                  __ptext10 0807  
                __ptext11 1A57                  __ptext20 07F3                  __ptext12 19BB  
                __ptext13 149F                  __ptext14 1882                  __ptext15 05AC  
                __ptext16 1D78                  __ptext17 0789                  __ptext18 18D2  
                __ptext19 07DE             ?_EEPROM_write 0070               _pot1_serial 01DE  
             _pot2_serial 01DD               _pot3_serial 01DC               _pot4_serial 01DB  
     __end_ofi1__Umul8_16 18A9                _INTCONbits 000B                  intlevel1 0000  
          ??_EEPROM_write 0071    i1__Umul8_16@multiplier 0078              ?_EEPROM_read 0070  
              _OSCCONbits 008F    __Umul8_16@multiplicand 00B0             ___fladd@signs 01C2  
            ___fladd@aexp 01C3              ___fladd@bexp 01C4      __Umul8_16@multiplier 00B8  
              _SSPCONbits 0014               i1__Umul8_16 1882         __Umul8_16@product 00B4  
